Export ID	Record_Number	Invoice Number	Record Type	First Name	Middle Initial	Last Name	CIN	Gender	Telephone	Birthdate	Medical Provider	Provider ID	Ordering Provider ID	Transport Company	Transport Type	Procedure Code	Procedure Code Modifier	Service Starts	Service Ends	Standing Order	Trips Approved	Days Approved	Wheelchair	Contact Name	Contact Phone	Total/Calculated Mileage	Pick-up Date	Pick-up Time	Pick-up Address	Pick-up Ste/Apt	Pick-up City	Pick-up State	Pick-up Zip	Drop-off Date	Drop-off Time	Drop-off Address	Drop-off Ste/Apt	Drop-off City	Drop-off State	Drop-off Zip	Leg Mileage	Instructions	Secondary Service	Changed	Leg ID
2504293	1	526938640	Leg	Shouliang		Yeung	KJ81008U	M	(917) 217-4030	05/01/1942	Borough Park Dialysis	03339457	1699166926	Clean Air Car Svc & Parking (NYC)	Livery/QN-Med Appt in CMMA	A0100		01/02/2018	01/02/2018	Yes	2	1		melanie renal care	7185914010	4.6	01/02/2018	1345	4343 Kissena Blvd	106 	Flushing	NY	11355	01/02/2018	1430	7112 Park Ave	  front	Flushing	NY	11365	2.3	s/o tues thur sat		No	126672796
2504293	2	526938640	Leg	Shouliang		Yeung	KJ81008U	M	(917) 217-4030	05/01/1942	Borough Park Dialysis	03339457	1699166926	Clean Air Car Svc & Parking (NYC)	Livery/QN-Med Appt in CMMA	A0100		01/02/2018	01/02/2018	Yes	2	1		melanie renal care	7185914010	4.6	01/02/2018	1830	7112 Park Ave	 front	Flushing	NY	11365	01/02/2018	1930	4343 Kissena Blvd	106 	Flushing	NY	11355	2.3			No	126672797
2504293	3	526940520	Leg	Shouliang		Yeung	KJ81008U	M	(917) 217-4030	05/01/1942	Borough Park Dialysis	03339457	1699166926	Clean Air Car Svc & Parking (NYC)	Livery/QN-Med Appt in CMMA	A0100		01/04/2018	01/04/2018	Yes	2	1		melanie renal care	7185914010	4.6	01/04/2018	1345	4343 Kissena Blvd	106 	Flushing	NY	11355	01/04/2018	1430	7112 Park Ave	  front	Flushing	NY	11365	2.3	s/o tues thur sat		No	126672798
2504293	4	526940520	Leg	Shouliang		Yeung	KJ81008U	M	(917) 217-4030	05/01/1942	Borough Park Dialysis	03339457	1699166926	Clean Air Car Svc & Parking (NYC)	Livery/QN-Med Appt in CMMA	A0100		01/04/2018	01/04/2018	Yes	2	1		melanie renal care	7185914010	4.6	01/04/2018	1830	7112 Park Ave	 front	Flushing	NY	11365	01/04/2018	1930	4343 Kissena Blvd	106 	Flushing	NY	11355	2.3			No	126672799
2504293	5	526940580	Leg	Shouliang		Yeung	KJ81008U	M	(917) 217-4030	05/01/1942	Borough Park Dialysis	03339457	1699166926	Clean Air Car Svc & Parking (NYC)	Livery/QN-Med Appt in CMMA	A0100		01/11/2018	01/11/2018	Yes	2	1		melanie renal care	7185914010	4.6	01/11/2018	1345	4343 Kissena Blvd	106 	Flushing	NY	11355	01/11/2018	1430	7112 Park Ave	  front	Flushing	NY	11365	2.3	s/o tues thur sat		No	126672804
2504293	6	526940580	Leg	Shouliang		Yeung	KJ81008U	M	(917) 217-4030	05/01/1942	Borough Park Dialysis	03339457	1699166926	Clean Air Car Svc & Parking (NYC)	Livery/QN-Med Appt in CMMA	A0100		01/11/2018	01/11/2018	Yes	2	1		melanie renal care	7185914010	4.6	01/11/2018	1830	7112 Park Ave	 front	Flushing	NY	11365	01/11/2018	1930	4343 Kissena Blvd	106 	Flushing	NY	11355	2.3			No	126672805
2504293	7	526940590	Leg	Shouliang		Yeung	KJ81008U	M	(917) 217-4030	05/01/1942	Borough Park Dialysis	03339457	1699166926	Clean Air Car Svc & Parking (NYC)	Livery/QN-Med Appt in CMMA	A0100		01/13/2018	01/13/2018	Yes	2	1		melanie renal care	7185914010	4.6	01/13/2018	1345	4343 Kissena Blvd	106 	Flushing	NY	11355	01/13/2018	1430	7112 Park Ave	  front	Flushing	NY	11365	2.3	s/o tues thur sat		No	126672806
2504293	8	526940590	Leg	Shouliang		Yeung	KJ81008U	M	(917) 217-4030	05/01/1942	Borough Park Dialysis	03339457	1699166926	Clean Air Car Svc & Parking (NYC)	Livery/QN-Med Appt in CMMA	A0100		01/13/2018	01/13/2018	Yes	2	1		melanie renal care	7185914010	4.6	01/13/2018	1830	7112 Park Ave	 front	Flushing	NY	11365	01/13/2018	1930	4343 Kissena Blvd	106 	Flushing	NY	11355	2.3			No	126672807
2504293	9	526940610	Leg	Shouliang		Yeung	KJ81008U	M	(917) 217-4030	05/01/1942	Borough Park Dialysis	03339457	1699166926	Clean Air Car Svc & Parking (NYC)	Livery/QN-Med Appt in CMMA	A0100		01/16/2018	01/16/2018	Yes	2	1		melanie renal care	7185914010	4.6	01/16/2018	1345	4343 Kissena Blvd	106 	Flushing	NY	11355	01/16/2018	1430	7112 Park Ave	  front	Flushing	NY	11365	2.3	s/o tues thur sat		No	126672808
2504293	10	526940610	Leg	Shouliang		Yeung	KJ81008U	M	(917) 217-4030	05/01/1942	Borough Park Dialysis	03339457	1699166926	Clean Air Car Svc & Parking (NYC)	Livery/QN-Med Appt in CMMA	A0100		01/16/2018	01/16/2018	Yes	2	1		melanie renal care	7185914010	4.6	01/16/2018	1830	7112 Park Ave	 front	Flushing	NY	11365	01/16/2018	1930	4343 Kissena Blvd	106 	Flushing	NY	11355	2.3			No	126672809
2504293	11	526940620	Leg	Shouliang		Yeung	KJ81008U	M	(917) 217-4030	05/01/1942	Borough Park Dialysis	03339457	1699166926	Clean Air Car Svc & Parking (NYC)	Livery/QN-Med Appt in CMMA	A0100		01/18/2018	01/18/2018	Yes	2	1		melanie renal care	7185914010	4.6	01/18/2018	1345	4343 Kissena Blvd	106 	Flushing	NY	11355	01/18/2018	1430	7112 Park Ave	  front	Flushing	NY	11365	2.3	s/o tues thur sat		No	126672810
2504293	12	526940620	Leg	Shouliang		Yeung	KJ81008U	M	(917) 217-4030	05/01/1942	Borough Park Dialysis	03339457	1699166926	Clean Air Car Svc & Parking (NYC)	Livery/QN-Med Appt in CMMA	A0100		01/18/2018	01/18/2018	Yes	2	1		melanie renal care	7185914010	4.6	01/18/2018	1830	7112 Park Ave	 front	Flushing	NY	11365	01/18/2018	1930	4343 Kissena Blvd	106 	Flushing	NY	11355	2.3			No	126672811
2504293	13	526940640	Leg	Shouliang		Yeung	KJ81008U	M	(917) 217-4030	05/01/1942	Borough Park Dialysis	03339457	1699166926	Clean Air Car Svc & Parking (NYC)	Livery/QN-Med Appt in CMMA	A0100		01/20/2018	01/20/2018	Yes	2	1		melanie renal care	7185914010	4.6	01/20/2018	1345	4343 Kissena Blvd	106 	Flushing	NY	11355	01/20/2018	1430	7112 Park Ave	  front	Flushing	NY	11365	2.3	s/o tues thur sat		No	126672812
2504293	14	526940640	Leg	Shouliang		Yeung	KJ81008U	M	(917) 217-4030	05/01/1942	Borough Park Dialysis	03339457	1699166926	Clean Air Car Svc & Parking (NYC)	Livery/QN-Med Appt in CMMA	A0100		01/20/2018	01/20/2018	Yes	2	1		melanie renal care	7185914010	4.6	01/20/2018	1830	7112 Park Ave	 front	Flushing	NY	11365	01/20/2018	1930	4343 Kissena Blvd	106 	Flushing	NY	11355	2.3			No	126672813
2504293	15	526940660	Leg	Shouliang		Yeung	KJ81008U	M	(917) 217-4030	05/01/1942	Borough Park Dialysis	03339457	1699166926	Clean Air Car Svc & Parking (NYC)	Livery/QN-Med Appt in CMMA	A0100		01/23/2018	01/23/2018	Yes	2	1		melanie renal care	7185914010	4.6	01/23/2018	1345	4343 Kissena Blvd	106 	Flushing	NY	11355	01/23/2018	1430	7112 Park Ave	  front	Flushing	NY	11365	2.3	s/o tues thur sat		No	126672814
2504293	16	526940660	Leg	Shouliang		Yeung	KJ81008U	M	(917) 217-4030	05/01/1942	Borough Park Dialysis	03339457	1699166926	Clean Air Car Svc & Parking (NYC)	Livery/QN-Med Appt in CMMA	A0100		01/23/2018	01/23/2018	Yes	2	1		melanie renal care	7185914010	4.6	01/23/2018	1830	7112 Park Ave	 front	Flushing	NY	11365	01/23/2018	1930	4343 Kissena Blvd	106 	Flushing	NY	11355	2.3			No	126672815
2504293	17	526940670	Leg	Shouliang		Yeung	KJ81008U	M	(917) 217-4030	05/01/1942	Borough Park Dialysis	03339457	1699166926	Clean Air Car Svc & Parking (NYC)	Livery/QN-Med Appt in CMMA	A0100		01/25/2018	01/25/2018	Yes	2	1		melanie renal care	7185914010	4.6	01/25/2018	1345	4343 Kissena Blvd	106 	Flushing	NY	11355	01/25/2018	1430	7112 Park Ave	  front	Flushing	NY	11365	2.3	s/o tues thur sat		No	126672816
2504293	18	526940670	Leg	Shouliang		Yeung	KJ81008U	M	(917) 217-4030	05/01/1942	Borough Park Dialysis	03339457	1699166926	Clean Air Car Svc & Parking (NYC)	Livery/QN-Med Appt in CMMA	A0100		01/25/2018	01/25/2018	Yes	2	1		melanie renal care	7185914010	4.6	01/25/2018	1830	7112 Park Ave	 front	Flushing	NY	11365	01/25/2018	1930	4343 Kissena Blvd	106 	Flushing	NY	11355	2.3			No	126672817
2504293	19	526940680	Leg	Shouliang		Yeung	KJ81008U	M	(917) 217-4030	05/01/1942	Borough Park Dialysis	03339457	1699166926	Clean Air Car Svc & Parking (NYC)	Livery/QN-Med Appt in CMMA	A0100		01/27/2018	01/27/2018	Yes	2	1		melanie renal care	7185914010	4.6	01/27/2018	1345	4343 Kissena Blvd	106 	Flushing	NY	11355	01/27/2018	1430	7112 Park Ave	  front	Flushing	NY	11365	2.3	s/o tues thur sat		No	126672818
2504293	20	526940680	Leg	Shouliang		Yeung	KJ81008U	M	(917) 217-4030	05/01/1942	Borough Park Dialysis	03339457	1699166926	Clean Air Car Svc & Parking (NYC)	Livery/QN-Med Appt in CMMA	A0100		01/27/2018	01/27/2018	Yes	2	1		melanie renal care	7185914010	4.6	01/27/2018	1830	7112 Park Ave	 front	Flushing	NY	11365	01/27/2018	1930	4343 Kissena Blvd	106 	Flushing	NY	11355	2.3			No	126672819
2504293	21	526940710	Leg	Shouliang		Yeung	KJ81008U	M	(917) 217-4030	05/01/1942	Borough Park Dialysis	03339457	1699166926	Clean Air Car Svc & Parking (NYC)	Livery/QN-Med Appt in CMMA	A0100		01/30/2018	01/30/2018	Yes	2	1		melanie renal care	7185914010	4.6	01/30/2018	1345	4343 Kissena Blvd	106 	Flushing	NY	11355	01/30/2018	1430	7112 Park Ave	  front	Flushing	NY	11365	2.3	s/o tues thur sat		No	126672820
2504293	22	526940710	Leg	Shouliang		Yeung	KJ81008U	M	(917) 217-4030	05/01/1942	Borough Park Dialysis	03339457	1699166926	Clean Air Car Svc & Parking (NYC)	Livery/QN-Med Appt in CMMA	A0100		01/30/2018	01/30/2018	Yes	2	1		melanie renal care	7185914010	4.6	01/30/2018	1830	7112 Park Ave	 front	Flushing	NY	11365	01/30/2018	1930	4343 Kissena Blvd	106 	Flushing	NY	11355	2.3			No	126672821
2504293	23	529483740	Leg	Lai	S	Ngwong	TB96462N	F	(718) 388-1825	03/22/1951	Brooklyn Hospital Center	000	1326046467	Clean Air Car Svc & Parking (NYC)	Livery/BK-Med Appt in CMMA	A0100		01/03/2018	01/03/2018	Yes	2	1		self	(718) 388-1825	9.2	01/03/2018	0815	30 Montrose Ave	Apt 3T 	Brooklyn	NY	11206	01/03/2018	0915	323 E 34th St	  main	New York	NY	10016	4.6	S/o Monday Wednesday Friday; Only Speaks Chinese		No	127267128
2504293	24	529483740	Leg	Lai	S	Ngwong	TB96462N	F	(718) 388-1825	03/22/1951	Brooklyn Hospital Center	000	1326046467	Clean Air Car Svc & Parking (NYC)	Livery/BK-Med Appt in CMMA	A0100		01/03/2018	01/03/2018	Yes	2	1		self	(718) 388-1825	9.2	01/03/2018	1300	323 E 34th St	 main	New York	NY	10016	01/03/2018	1400	30 Montrose Ave	Apt 3T 	Brooklyn	NY	11206	4.6			No	127267129
2504293	25	529483740	Service	Lai	S	Ngwong	TB96462N	F	(718) 388-1825	03/22/1951	Brooklyn Hospital Center	000	1326046467	Clean Air Car Svc & Parking (NYC)	Tolls-Universal	A0170	CG	01/03/2018	01/03/2018	Yes	2	1																					Tolls-Universal	127267128
2504293	26	529483740	Service	Lai	S	Ngwong	TB96462N	F	(718) 388-1825	03/22/1951	Brooklyn Hospital Center	000	1326046467	Clean Air Car Svc & Parking (NYC)	Livery-Manhattan Surcharge	A0100	SC	01/03/2018	01/03/2018	Yes	2	1																					Livery-Manhattan Surcharge	127267128
2504293	27	529483740	Service	Lai	S	Ngwong	TB96462N	F	(718) 388-1825	03/22/1951	Brooklyn Hospital Center	000	1326046467	Clean Air Car Svc & Parking (NYC)	Livery-Manhattan Surcharge	A0100	SC	01/03/2018	01/03/2018	Yes	2	1																					Livery-Manhattan Surcharge	127267129
2504293	28	529486450	Leg	Lai	S	Ngwong	TB96462N	F	(718) 388-1825	03/22/1951	Brooklyn Hospital Center	000	1326046467	Clean Air Car Svc & Parking (NYC)	Livery/BK-Med Appt in CMMA	A0100		01/05/2018	01/05/2018	Yes	2	1		self	(718) 388-1825	9.2	01/05/2018	0815	30 Montrose Ave	Apt 3T 	Brooklyn	NY	11206	01/05/2018	0915	323 E 34th St	  main	New York	NY	10016	4.6	S/o Monday Wednesday Friday; Only Speaks Chinese		No	127267130
2504293	29	529486450	Leg	Lai	S	Ngwong	TB96462N	F	(718) 388-1825	03/22/1951	Brooklyn Hospital Center	000	1326046467	Clean Air Car Svc & Parking (NYC)	Livery/BK-Med Appt in CMMA	A0100		01/05/2018	01/05/2018	Yes	2	1		self	(718) 388-1825	9.2	01/05/2018	1300	323 E 34th St	 main	New York	NY	10016	01/05/2018	1400	30 Montrose Ave	Apt 3T 	Brooklyn	NY	11206	4.6			No	127267131
2504293	30	529486450	Service	Lai	S	Ngwong	TB96462N	F	(718) 388-1825	03/22/1951	Brooklyn Hospital Center	000	1326046467	Clean Air Car Svc & Parking (NYC)	Tolls-Universal	A0170	CG	01/05/2018	01/05/2018	Yes	2	1																					Tolls-Universal	127267130
2504293	31	529486450	Service	Lai	S	Ngwong	TB96462N	F	(718) 388-1825	03/22/1951	Brooklyn Hospital Center	000	1326046467	Clean Air Car Svc & Parking (NYC)	Livery-Manhattan Surcharge	A0100	SC	01/05/2018	01/05/2018	Yes	2	1																					Livery-Manhattan Surcharge	127267130
2504293	32	529486450	Service	Lai	S	Ngwong	TB96462N	F	(718) 388-1825	03/22/1951	Brooklyn Hospital Center	000	1326046467	Clean Air Car Svc & Parking (NYC)	Livery-Manhattan Surcharge	A0100	SC	01/05/2018	01/05/2018	Yes	2	1																					Livery-Manhattan Surcharge	127267131
2504293	33	529486470	Leg	Lai	S	Ngwong	TB96462N	F	(718) 388-1825	03/22/1951	Brooklyn Hospital Center	000	1326046467	Clean Air Car Svc & Parking (NYC)	Livery/BK-Med Appt in CMMA	A0100		01/08/2018	01/08/2018	Yes	2	1		self	(718) 388-1825	9.2	01/08/2018	0815	30 Montrose Ave	Apt 3T 	Brooklyn	NY	11206	01/08/2018	0915	323 E 34th St	  main	New York	NY	10016	4.6	S/o Monday Wednesday Friday; Only Speaks Chinese		No	127267134
2504293	34	529486470	Leg	Lai	S	Ngwong	TB96462N	F	(718) 388-1825	03/22/1951	Brooklyn Hospital Center	000	1326046467	Clean Air Car Svc & Parking (NYC)	Livery/BK-Med Appt in CMMA	A0100		01/08/2018	01/08/2018	Yes	2	1		self	(718) 388-1825	9.2	01/08/2018	1300	323 E 34th St	 main	New York	NY	10016	01/08/2018	1400	30 Montrose Ave	Apt 3T 	Brooklyn	NY	11206	4.6			No	127267135
2504293	35	529486470	Service	Lai	S	Ngwong	TB96462N	F	(718) 388-1825	03/22/1951	Brooklyn Hospital Center	000	1326046467	Clean Air Car Svc & Parking (NYC)	Tolls-Universal	A0170	CG	01/08/2018	01/08/2018	Yes	2	1																					Tolls-Universal	127267134
2504293	36	529486470	Service	Lai	S	Ngwong	TB96462N	F	(718) 388-1825	03/22/1951	Brooklyn Hospital Center	000	1326046467	Clean Air Car Svc & Parking (NYC)	Livery-Manhattan Surcharge	A0100	SC	01/08/2018	01/08/2018	Yes	2	1																					Livery-Manhattan Surcharge	127267134
2504293	37	529486470	Service	Lai	S	Ngwong	TB96462N	F	(718) 388-1825	03/22/1951	Brooklyn Hospital Center	000	1326046467	Clean Air Car Svc & Parking (NYC)	Livery-Manhattan Surcharge	A0100	SC	01/08/2018	01/08/2018	Yes	2	1																					Livery-Manhattan Surcharge	127267135
2504293	38	529486490	Leg	Lai	S	Ngwong	TB96462N	F	(718) 388-1825	03/22/1951	Brooklyn Hospital Center	000	1326046467	Clean Air Car Svc & Parking (NYC)	Livery/BK-Med Appt in CMMA	A0100		01/10/2018	01/10/2018	Yes	2	1		self	(718) 388-1825	9.2	01/10/2018	0815	30 Montrose Ave	Apt 3T 	Brooklyn	NY	11206	01/10/2018	0915	323 E 34th St	  main	New York	NY	10016	4.6	S/o Monday Wednesday Friday; Only Speaks Chinese		No	127267138
2504293	39	529486490	Leg	Lai	S	Ngwong	TB96462N	F	(718) 388-1825	03/22/1951	Brooklyn Hospital Center	000	1326046467	Clean Air Car Svc & Parking (NYC)	Livery/BK-Med Appt in CMMA	A0100		01/10/2018	01/10/2018	Yes	2	1		self	(718) 388-1825	9.2	01/10/2018	1300	323 E 34th St	 main	New York	NY	10016	01/10/2018	1400	30 Montrose Ave	Apt 3T 	Brooklyn	NY	11206	4.6			No	127267139
2504293	40	529486490	Service	Lai	S	Ngwong	TB96462N	F	(718) 388-1825	03/22/1951	Brooklyn Hospital Center	000	1326046467	Clean Air Car Svc & Parking (NYC)	Tolls-Universal	A0170	CG	01/10/2018	01/10/2018	Yes	2	1																					Tolls-Universal	127267138
2504293	41	529486490	Service	Lai	S	Ngwong	TB96462N	F	(718) 388-1825	03/22/1951	Brooklyn Hospital Center	000	1326046467	Clean Air Car Svc & Parking (NYC)	Livery-Manhattan Surcharge	A0100	SC	01/10/2018	01/10/2018	Yes	2	1																					Livery-Manhattan Surcharge	127267138
2504293	42	529486490	Service	Lai	S	Ngwong	TB96462N	F	(718) 388-1825	03/22/1951	Brooklyn Hospital Center	000	1326046467	Clean Air Car Svc & Parking (NYC)	Livery-Manhattan Surcharge	A0100	SC	01/10/2018	01/10/2018	Yes	2	1																					Livery-Manhattan Surcharge	127267139
2504293	43	529486500	Leg	Lai	S	Ngwong	TB96462N	F	(718) 388-1825	03/22/1951	Brooklyn Hospital Center	000	1326046467	Clean Air Car Svc & Parking (NYC)	Livery/BK-Med Appt in CMMA	A0100		01/12/2018	01/12/2018	Yes	2	1		self	(718) 388-1825	9.2	01/12/2018	0815	30 Montrose Ave	Apt 3T 	Brooklyn	NY	11206	01/12/2018	0915	323 E 34th St	  main	New York	NY	10016	4.6	S/o Monday Wednesday Friday; Only Speaks Chinese		No	127267140
2504293	44	529486500	Leg	Lai	S	Ngwong	TB96462N	F	(718) 388-1825	03/22/1951	Brooklyn Hospital Center	000	1326046467	Clean Air Car Svc & Parking (NYC)	Livery/BK-Med Appt in CMMA	A0100		01/12/2018	01/12/2018	Yes	2	1		self	(718) 388-1825	9.2	01/12/2018	1300	323 E 34th St	 main	New York	NY	10016	01/12/2018	1400	30 Montrose Ave	Apt 3T 	Brooklyn	NY	11206	4.6			No	127267141
2504293	45	529486500	Service	Lai	S	Ngwong	TB96462N	F	(718) 388-1825	03/22/1951	Brooklyn Hospital Center	000	1326046467	Clean Air Car Svc & Parking (NYC)	Tolls-Universal	A0170	CG	01/12/2018	01/12/2018	Yes	2	1																					Tolls-Universal	127267140
2504293	46	529486500	Service	Lai	S	Ngwong	TB96462N	F	(718) 388-1825	03/22/1951	Brooklyn Hospital Center	000	1326046467	Clean Air Car Svc & Parking (NYC)	Livery-Manhattan Surcharge	A0100	SC	01/12/2018	01/12/2018	Yes	2	1																					Livery-Manhattan Surcharge	127267140
2504293	47	529486500	Service	Lai	S	Ngwong	TB96462N	F	(718) 388-1825	03/22/1951	Brooklyn Hospital Center	000	1326046467	Clean Air Car Svc & Parking (NYC)	Livery-Manhattan Surcharge	A0100	SC	01/12/2018	01/12/2018	Yes	2	1																					Livery-Manhattan Surcharge	127267141
2504293	48	529486520	Leg	Lai	S	Ngwong	TB96462N	F	(718) 388-1825	03/22/1951	Brooklyn Hospital Center	000	1326046467	Clean Air Car Svc & Parking (NYC)	Livery/BK-Med Appt in CMMA	A0100		01/15/2018	01/15/2018	Yes	2	1		self	(718) 388-1825	9.2	01/15/2018	0815	30 Montrose Ave	Apt 3T 	Brooklyn	NY	11206	01/15/2018	0915	323 E 34th St	  main	New York	NY	10016	4.6	S/o Monday Wednesday Friday; Only Speaks Chinese		No	127267144
2504293	49	529486520	Leg	Lai	S	Ngwong	TB96462N	F	(718) 388-1825	03/22/1951	Brooklyn Hospital Center	000	1326046467	Clean Air Car Svc & Parking (NYC)	Livery/BK-Med Appt in CMMA	A0100		01/15/2018	01/15/2018	Yes	2	1		self	(718) 388-1825	9.2	01/15/2018	1300	323 E 34th St	 main	New York	NY	10016	01/15/2018	1400	30 Montrose Ave	Apt 3T 	Brooklyn	NY	11206	4.6			No	127267145
2504293	50	529486520	Service	Lai	S	Ngwong	TB96462N	F	(718) 388-1825	03/22/1951	Brooklyn Hospital Center	000	1326046467	Clean Air Car Svc & Parking (NYC)	Tolls-Universal	A0170	CG	01/15/2018	01/15/2018	Yes	2	1																					Tolls-Universal	127267144
2504293	51	529486520	Service	Lai	S	Ngwong	TB96462N	F	(718) 388-1825	03/22/1951	Brooklyn Hospital Center	000	1326046467	Clean Air Car Svc & Parking (NYC)	Livery-Manhattan Surcharge	A0100	SC	01/15/2018	01/15/2018	Yes	2	1																					Livery-Manhattan Surcharge	127267144
2504293	52	529486520	Service	Lai	S	Ngwong	TB96462N	F	(718) 388-1825	03/22/1951	Brooklyn Hospital Center	000	1326046467	Clean Air Car Svc & Parking (NYC)	Livery-Manhattan Surcharge	A0100	SC	01/15/2018	01/15/2018	Yes	2	1																					Livery-Manhattan Surcharge	127267145
2504293	53	533464100	Leg	Elaine		Winter	SN12085Y	F	(917) 972-1969	10/25/1959	Queens Hospital	000	1801803903	Clean Air Car Svc & Parking (NYC)	Livery/QN-Med Appt out CMMA	A0100	TN	01/09/2018	01/09/2018	Yes	2	1		Self	(917) 972-1969	10.6	01/09/2018	1000	18 21 25th Road	 Home	Astoria	NY	11102	01/09/2018	1100	1184 5th Ave	  Main	New York	NY	10029	5.3			No	128247982
2504293	54	533464100	Leg	Elaine		Winter	SN12085Y	F	(917) 972-1969	10/25/1959	Queens Hospital	000	1801803903	Clean Air Car Svc & Parking (NYC)	Livery/QN-Med Appt out CMMA	A0100	TN	01/09/2018	01/09/2018	Yes	2	1		Self	(917) 972-1969	10.6	01/09/2018	1400	1184 5th Ave	 Main	New York	NY	10029	01/09/2018	1500	18 21 25th Road	  Home	Astoria	NY	11102	5.3			No	128247983
2504293	55	533464100	Service	Elaine		Winter	SN12085Y	F	(917) 972-1969	10/25/1959	Queens Hospital	000	1801803903	Clean Air Car Svc & Parking (NYC)	Tolls-Universal	A0170	CG	01/09/2018	01/09/2018	Yes	2	1																					Tolls-Universal	128247982
2504293	56	533464100	Service	Elaine		Winter	SN12085Y	F	(917) 972-1969	10/25/1959	Queens Hospital	000	1801803903	Clean Air Car Svc & Parking (NYC)	Livery-Manhattan Surcharge	A0100	SC	01/09/2018	01/09/2018	Yes	2	1																					Livery-Manhattan Surcharge	128247982
2504293	57	533464100	Service	Elaine		Winter	SN12085Y	F	(917) 972-1969	10/25/1959	Queens Hospital	000	1801803903	Clean Air Car Svc & Parking (NYC)	Livery-Manhattan Surcharge	A0100	SC	01/09/2018	01/09/2018	Yes	2	1																					Livery-Manhattan Surcharge	128247983
2504293	58	533467410	Leg	Elaine		Winter	SN12085Y	F	(917) 406-3841	10/25/1959	Queens Hospital	000	1801803903	Clean Air Car Svc & Parking (NYC)	Livery/QN-Med Appt out CMMA	A0100	TN	01/16/2018	01/16/2018	Yes	2	1		Self	(917) 406-3841	10.6	01/16/2018	1200	18 21 25th Road	 Home	Astoria	NY	11102	01/16/2018	1400	1184 5th Ave	  Main	New York	NY	10029	5.3			No	128249140
2504293	59	533467410	Leg	Elaine		Winter	SN12085Y	F	(917) 406-3841	10/25/1959	Queens Hospital	000	1801803903	Clean Air Car Svc & Parking (NYC)	Livery/QN-Med Appt out CMMA	A0100	TN	01/16/2018	01/16/2018	Yes	2	1		Self	(917) 406-3841	10.6	01/16/2018	call	1184 5th Ave	 Main	New York	NY	10029	01/16/2018	call	18 21 25th Road	  Home	Astoria	NY	11102	5.3			No	128249141
2504293	60	533467410	Service	Elaine		Winter	SN12085Y	F	(917) 406-3841	10/25/1959	Queens Hospital	000	1801803903	Clean Air Car Svc & Parking (NYC)	Tolls-Universal	A0170	CG	01/16/2018	01/16/2018	Yes	2	1																					Tolls-Universal	128249140
2504293	61	533467410	Service	Elaine		Winter	SN12085Y	F	(917) 406-3841	10/25/1959	Queens Hospital	000	1801803903	Clean Air Car Svc & Parking (NYC)	Livery-Manhattan Surcharge	A0100	SC	01/16/2018	01/16/2018	Yes	2	1																					Livery-Manhattan Surcharge	128249140
2504293	62	533467410	Service	Elaine		Winter	SN12085Y	F	(917) 406-3841	10/25/1959	Queens Hospital	000	1801803903	Clean Air Car Svc & Parking (NYC)	Livery-Manhattan Surcharge	A0100	SC	01/16/2018	01/16/2018	Yes	2	1																					Livery-Manhattan Surcharge	128249141
2504293	63	533467440	Leg	Elaine		Winter	SN12085Y	F	(917) 406-3841	10/25/1959	Queens Hospital	000	1801803903	Clean Air Car Svc & Parking (NYC)	Livery/QN-Med Appt out CMMA	A0100	TN	01/18/2018	01/18/2018	Yes	2	1		Self	(917) 406-3841	10.6	01/18/2018	1230	18 21 25th Road	 Home	Astoria	NY	11102	01/18/2018	1330	1184 5th Ave	  Main	New York	NY	10029	5.3			No	128249144
2504293	64	533467440	Leg	Elaine		Winter	SN12085Y	F	(917) 406-3841	10/25/1959	Queens Hospital	000	1801803903	Clean Air Car Svc & Parking (NYC)	Livery/QN-Med Appt out CMMA	A0100	TN	01/18/2018	01/18/2018	Yes	2	1		Self	(917) 406-3841	10.6	01/18/2018	call	1184 5th Ave	 Main	New York	NY	10029	01/18/2018	call	18 21 25th Road	  Home	Astoria	NY	11102	5.3			No	128249145
2504293	65	533467440	Service	Elaine		Winter	SN12085Y	F	(917) 406-3841	10/25/1959	Queens Hospital	000	1801803903	Clean Air Car Svc & Parking (NYC)	Tolls-Universal	A0170	CG	01/18/2018	01/18/2018	Yes	2	1																					Tolls-Universal	128249144
2504293	66	533467440	Service	Elaine		Winter	SN12085Y	F	(917) 406-3841	10/25/1959	Queens Hospital	000	1801803903	Clean Air Car Svc & Parking (NYC)	Livery-Manhattan Surcharge	A0100	SC	01/18/2018	01/18/2018	Yes	2	1																					Livery-Manhattan Surcharge	128249144
2504293	67	533467440	Service	Elaine		Winter	SN12085Y	F	(917) 406-3841	10/25/1959	Queens Hospital	000	1801803903	Clean Air Car Svc & Parking (NYC)	Livery-Manhattan Surcharge	A0100	SC	01/18/2018	01/18/2018	Yes	2	1																					Livery-Manhattan Surcharge	128249145
2504293	68	533467460	Leg	Elaine		Winter	SN12085Y	F	(917) 406-3841	10/25/1959	Queens Hospital	000	1801803903	Clean Air Car Svc & Parking (NYC)	Livery/QN-Med Appt out CMMA	A0100	TN	01/19/2018	01/19/2018	Yes	2	1		Self	(917) 406-3841	10.6	01/19/2018	0900	18 21 25th Road	 Home	Astoria	NY	11102	01/19/2018	1030	1184 5th Ave	  Main	New York	NY	10029	5.3			No	128249146
2504293	69	533467460	Leg	Elaine		Winter	SN12085Y	F	(917) 406-3841	10/25/1959	Queens Hospital	000	1801803903	Clean Air Car Svc & Parking (NYC)	Livery/QN-Med Appt out CMMA	A0100	TN	01/19/2018	01/19/2018	Yes	2	1		Self	(917) 406-3841	10.6	01/19/2018	call	1184 5th Ave	 Main	New York	NY	10029	01/19/2018	call	18 21 25th Road	  Home	Astoria	NY	11102	5.3			No	128249147
2504293	70	533467460	Service	Elaine		Winter	SN12085Y	F	(917) 406-3841	10/25/1959	Queens Hospital	000	1801803903	Clean Air Car Svc & Parking (NYC)	Tolls-Universal	A0170	CG	01/19/2018	01/19/2018	Yes	2	1																					Tolls-Universal	128249146
2504293	71	533467460	Service	Elaine		Winter	SN12085Y	F	(917) 406-3841	10/25/1959	Queens Hospital	000	1801803903	Clean Air Car Svc & Parking (NYC)	Livery-Manhattan Surcharge	A0100	SC	01/19/2018	01/19/2018	Yes	2	1																					Livery-Manhattan Surcharge	128249146
2504293	72	533467460	Service	Elaine		Winter	SN12085Y	F	(917) 406-3841	10/25/1959	Queens Hospital	000	1801803903	Clean Air Car Svc & Parking (NYC)	Livery-Manhattan Surcharge	A0100	SC	01/19/2018	01/19/2018	Yes	2	1																					Livery-Manhattan Surcharge	128249147
2504293	73	534473250	Leg	Carol	S	Ancar	PZ82509Q	F	(718) 327-3780	09/16/1956	Queens Hospital	000	1801803903	Clean Air Car Svc & Parking (NYC)	Livery/QN-Med Appt out CMMA	A0100	TN	01/02/2018	01/02/2018	No	2	1		self	(718) 327-3780	28.0	01/02/2018	1000	707 Beach 9th St	 home	Far Rockaway	NY	11691	01/02/2018	1100	8045 Winchester Blvd	  main entrance	Queens Village	NY	11427	14.0	requesting driver jack		No	128540141
2504293	74	534473250	Leg	Carol	S	Ancar	PZ82509Q	F	(718) 327-3780	09/16/1956	Queens Hospital	000	1801803903	Clean Air Car Svc & Parking (NYC)	Livery/QN-Med Appt out CMMA	A0100	TN	01/02/2018	01/02/2018	No	2	1		self	(718) 327-3780	28.0	01/02/2018	1500	8045 Winchester Blvd	 main entrance	Queens Village	NY	11427	01/02/2018	1600	707 Beach 9th St	  home	Far Rockaway	NY	11691	14.0			No	128540145
2504293	75	534473250	Service	Carol	S	Ancar	PZ82509Q	F	(718) 327-3780	09/16/1956	Queens Hospital	000	1801803903	Clean Air Car Svc & Parking (NYC)	Mileage-Livery in NYC	S0215		01/02/2018	01/02/2018	No	2	1																					Mileage-Livery in NYC	128540141
2504293	76	534473250	Service	Carol	S	Ancar	PZ82509Q	F	(718) 327-3780	09/16/1956	Queens Hospital	000	1801803903	Clean Air Car Svc & Parking (NYC)	Mileage-Livery in NYC	S0215		01/02/2018	01/02/2018	No	2	1																					Mileage-Livery in NYC	128540145
2504293	77	539032300	Leg	Reshma		Maharaj	KD54352J	F	(347) 500-4614	11/06/1980	Mcdonald Annmarie		1003976341	Clean Air Car Svc & Parking (NYC)	Livery/QN-Med Appt out CMMA	A0100	TN	01/02/2018	01/02/2018	Yes	2	1		self	(347) 500-4614	35.2	01/02/2018	0700	10459 121st St	 -	South Richmond Hill	NY	11419	01/02/2018	0900	622 W 168th St	  -	New York	NY	10032	17.6	s/o tues thurs and sat		No	129474041
2504293	78	539032300	Leg	Reshma		Maharaj	KD54352J	F	(347) 500-4614	11/06/1980	Mcdonald Annmarie		1003976341	Clean Air Car Svc & Parking (NYC)	Livery/QN-Med Appt out CMMA	A0100	TN	01/02/2018	01/02/2018	Yes	2	1		self	(347) 500-4614	35.2	01/02/2018	1015	622 W 168th St	 -	New York	NY	10032	01/02/2018	1115	10459 121st St	  -	South Richmond Hill	NY	11419	17.6			No	129474042
2504293	79	539032300	Service	Reshma		Maharaj	KD54352J	F	(347) 500-4614	11/06/1980	Mcdonald Annmarie		1003976341	Clean Air Car Svc & Parking (NYC)	Mileage-Livery in NYC	S0215		01/02/2018	01/02/2018	Yes	2	1																					Mileage-Livery in NYC	129474041
2504293	80	539032300	Service	Reshma		Maharaj	KD54352J	F	(347) 500-4614	11/06/1980	Mcdonald Annmarie		1003976341	Clean Air Car Svc & Parking (NYC)	Mileage-Livery in NYC	S0215		01/02/2018	01/02/2018	Yes	2	1																					Mileage-Livery in NYC	129474042
2504293	81	539032300	Service	Reshma		Maharaj	KD54352J	F	(347) 500-4614	11/06/1980	Mcdonald Annmarie		1003976341	Clean Air Car Svc & Parking (NYC)	Tolls-Universal	A0170	CG	01/02/2018	01/02/2018	Yes	2	1																					Tolls-Universal	129474041
2504293	82	539032360	Leg	Reshma		Maharaj	KD54352J	F	(347) 500-4614	11/06/1980	Mcdonald Annmarie		1003976341	Clean Air Car Svc & Parking (NYC)	Livery/QN-Med Appt out CMMA	A0100	TN	01/04/2018	01/04/2018	Yes	2	1		self	(347) 500-4614	35.2	01/04/2018	0700	10459 121st St	 -	South Richmond Hill	NY	11419	01/04/2018	0900	622 W 168th St	  -	New York	NY	10032	17.6	s/o tues thurs and sat		No	129474043
2504293	83	539032360	Leg	Reshma		Maharaj	KD54352J	F	(347) 500-4614	11/06/1980	Mcdonald Annmarie		1003976341	Clean Air Car Svc & Parking (NYC)	Livery/QN-Med Appt out CMMA	A0100	TN	01/04/2018	01/04/2018	Yes	2	1		self	(347) 500-4614	35.2	01/04/2018	1015	622 W 168th St	 -	New York	NY	10032	01/04/2018	1115	10459 121st St	  -	South Richmond Hill	NY	11419	17.6			No	129474044
2504293	84	539032360	Service	Reshma		Maharaj	KD54352J	F	(347) 500-4614	11/06/1980	Mcdonald Annmarie		1003976341	Clean Air Car Svc & Parking (NYC)	Mileage-Livery in NYC	S0215		01/04/2018	01/04/2018	Yes	2	1																					Mileage-Livery in NYC	129474043
2504293	85	539032360	Service	Reshma		Maharaj	KD54352J	F	(347) 500-4614	11/06/1980	Mcdonald Annmarie		1003976341	Clean Air Car Svc & Parking (NYC)	Mileage-Livery in NYC	S0215		01/04/2018	01/04/2018	Yes	2	1																					Mileage-Livery in NYC	129474044
2504293	86	539032360	Service	Reshma		Maharaj	KD54352J	F	(347) 500-4614	11/06/1980	Mcdonald Annmarie		1003976341	Clean Air Car Svc & Parking (NYC)	Tolls-Universal	A0170	CG	01/04/2018	01/04/2018	Yes	2	1																					Tolls-Universal	129474043
2504293	87	539032500	Leg	Reshma		Maharaj	KD54352J	F	(347) 500-4614	11/06/1980	Mcdonald Annmarie		1003976341	Clean Air Car Svc & Parking (NYC)	Livery/QN-Med Appt out CMMA	A0100	TN	01/09/2018	01/09/2018	Yes	4	1		self	(347) 500-4614	40.0	01/09/2018	0600	10459 121st St	 -	South Richmond Hill	NY	11419	01/09/2018	0700	622 W 168th St	  -	New York	NY	10032	17.6	s/o tues thurs and sat		Yes	129474047
2504293	88	539032500	Leg	Reshma		Maharaj	KD54352J	F	(347) 500-4614	11/06/1980	Mcdonald Annmarie		1003976341	Clean Air Car Svc & Parking (NYC)	Livery/QN-Med Appt out CMMA	A0100	TN	01/09/2018	01/09/2018	Yes	4	1		self	(347) 500-4614	40.0	01/09/2018	call	622 W 168th St	 -	New York	NY	10032	01/09/2018	call	10459 121st St	  -	South Richmond Hill	NY	11419	17.6			Yes	129474048
2504293	89	539032500	Leg	Reshma		Maharaj	KD54352J	F	(347) 500-4614	11/06/1980	Mcdonald Annmarie		1003976341	Clean Air Car Svc & Parking (NYC)	Livery/QN-Med Appt out CMMA	A0100	TN	01/09/2018	01/09/2018	Yes	4	1		self	(347) 500-4614	40.0	01/09/2018	0830	10459 121st St	 	South Richmond Hill	NY	11419	01/09/2018	0900	11227 Guy R Brewer Blvd	ny 	Jamaica	NY	11433	2.4			Yes	135891702
2504293	90	539032500	Leg	Reshma		Maharaj	KD54352J	F	(347) 500-4614	11/06/1980	Mcdonald Annmarie		1003976341	Clean Air Car Svc & Parking (NYC)	Livery/QN-Med Appt out CMMA	A0100	TN	01/09/2018	01/09/2018	Yes	4	1		self	(347) 500-4614	40.0	01/09/2018	Call	11227 Guy R Brewer Blvd	ny 	Jamaica	NY	11433	01/09/2018	Call	10459 121st St	  	South Richmond Hill	NY	11419	2.4			Yes	135891703
2504293	91	539032500	Service	Reshma		Maharaj	KD54352J	F	(347) 500-4614	11/06/1980	Mcdonald Annmarie		1003976341	Clean Air Car Svc & Parking (NYC)	Tolls-Universal	A0170	CG	01/09/2018	01/09/2018	Yes	4	1																					Tolls-Universal	129474047
2504293	92	539032500	Service	Reshma		Maharaj	KD54352J	F	(347) 500-4614	11/06/1980	Mcdonald Annmarie		1003976341	Clean Air Car Svc & Parking (NYC)	Mileage-Livery in NYC	S0215		01/09/2018	01/09/2018	Yes	4	1																					Mileage-Livery in NYC	129474047
2504293	93	539032500	Service	Reshma		Maharaj	KD54352J	F	(347) 500-4614	11/06/1980	Mcdonald Annmarie		1003976341	Clean Air Car Svc & Parking (NYC)	Mileage-Livery in NYC	S0215		01/09/2018	01/09/2018	Yes	4	1																					Mileage-Livery in NYC	129474048
2504293	94	539032500	Service	Reshma		Maharaj	KD54352J	F	(347) 500-4614	11/06/1980	Mcdonald Annmarie		1003976341	Clean Air Car Svc & Parking (NYC)	Mileage-Livery in NYC	S0215		01/09/2018	01/09/2018	Yes	4	1																					Mileage-Livery in NYC	135891702
2504293	95	539032500	Service	Reshma		Maharaj	KD54352J	F	(347) 500-4614	11/06/1980	Mcdonald Annmarie		1003976341	Clean Air Car Svc & Parking (NYC)	Livery/QN-Med Appt in CMMA P/S	A0100		01/09/2018	01/09/2018	Yes	4	1																					Livery/QN-Med Appt in CMMA P/S	135891702
2504293	96	539032500	Service	Reshma		Maharaj	KD54352J	F	(347) 500-4614	11/06/1980	Mcdonald Annmarie		1003976341	Clean Air Car Svc & Parking (NYC)	Livery/QN-Med Appt in CMMA P/S	A0100		01/09/2018	01/09/2018	Yes	4	1																					Livery/QN-Med Appt in CMMA P/S	135891703
2504293	97	539032610	Leg	Reshma		Maharaj	KD54352J	F	(347) 500-4614	11/06/1980	Mcdonald Annmarie		1003976341	Clean Air Car Svc & Parking (NYC)	Livery/QN-Med Appt out CMMA	A0100	TN	01/13/2018	01/13/2018	Yes	2	1		self	(347) 500-4614	35.2	01/13/2018	0700	10459 121st St	 -	South Richmond Hill	NY	11419	01/13/2018	0900	622 W 168th St	  -	New York	NY	10032	17.6	s/o tues thurs and sat		No	129474051
2504293	98	539032610	Leg	Reshma		Maharaj	KD54352J	F	(347) 500-4614	11/06/1980	Mcdonald Annmarie		1003976341	Clean Air Car Svc & Parking (NYC)	Livery/QN-Med Appt out CMMA	A0100	TN	01/13/2018	01/13/2018	Yes	2	1		self	(347) 500-4614	35.2	01/13/2018	1015	622 W 168th St	 -	New York	NY	10032	01/13/2018	1115	10459 121st St	  -	South Richmond Hill	NY	11419	17.6			No	129474052
2504293	99	539032610	Service	Reshma		Maharaj	KD54352J	F	(347) 500-4614	11/06/1980	Mcdonald Annmarie		1003976341	Clean Air Car Svc & Parking (NYC)	Mileage-Livery in NYC	S0215		01/13/2018	01/13/2018	Yes	2	1																					Mileage-Livery in NYC	129474051
2504293	100	539032610	Service	Reshma		Maharaj	KD54352J	F	(347) 500-4614	11/06/1980	Mcdonald Annmarie		1003976341	Clean Air Car Svc & Parking (NYC)	Mileage-Livery in NYC	S0215		01/13/2018	01/13/2018	Yes	2	1																					Mileage-Livery in NYC	129474052
2504293	101	539032610	Service	Reshma		Maharaj	KD54352J	F	(347) 500-4614	11/06/1980	Mcdonald Annmarie		1003976341	Clean Air Car Svc & Parking (NYC)	Tolls-Universal	A0170	CG	01/13/2018	01/13/2018	Yes	2	1																					Tolls-Universal	129474051
2504293	102	539032730	Leg	Reshma		Maharaj	KD54352J	F	(347) 500-4614	11/06/1980	Mcdonald Annmarie		1003976341	Clean Air Car Svc & Parking (NYC)	Livery/QN-Med Appt out CMMA	A0100	TN	01/18/2018	01/18/2018	Yes	2	1		self	(347) 500-4614	35.2	01/18/2018	0700	10459 121st St	 -	South Richmond Hill	NY	11419	01/18/2018	0900	622 W 168th St	  -	New York	NY	10032	17.6	s/o tues thurs and sat		No	129474055
2504293	103	539032730	Leg	Reshma		Maharaj	KD54352J	F	(347) 500-4614	11/06/1980	Mcdonald Annmarie		1003976341	Clean Air Car Svc & Parking (NYC)	Livery/QN-Med Appt out CMMA	A0100	TN	01/18/2018	01/18/2018	Yes	2	1		self	(347) 500-4614	35.2	01/18/2018	1015	622 W 168th St	 -	New York	NY	10032	01/18/2018	1115	10459 121st St	  -	South Richmond Hill	NY	11419	17.6			No	129474056
2504293	104	539032730	Service	Reshma		Maharaj	KD54352J	F	(347) 500-4614	11/06/1980	Mcdonald Annmarie		1003976341	Clean Air Car Svc & Parking (NYC)	Mileage-Livery in NYC	S0215		01/18/2018	01/18/2018	Yes	2	1																					Mileage-Livery in NYC	129474055
2504293	105	539032730	Service	Reshma		Maharaj	KD54352J	F	(347) 500-4614	11/06/1980	Mcdonald Annmarie		1003976341	Clean Air Car Svc & Parking (NYC)	Mileage-Livery in NYC	S0215		01/18/2018	01/18/2018	Yes	2	1																					Mileage-Livery in NYC	129474056
2504293	106	539032730	Service	Reshma		Maharaj	KD54352J	F	(347) 500-4614	11/06/1980	Mcdonald Annmarie		1003976341	Clean Air Car Svc & Parking (NYC)	Tolls-Universal	A0170	CG	01/18/2018	01/18/2018	Yes	2	1																					Tolls-Universal	129474055
2504293	107	539032750	Leg	Reshma		Maharaj	KD54352J	F	(347) 500-4614	11/06/1980	Mcdonald Annmarie		1003976341	Clean Air Car Svc & Parking (NYC)	Livery/QN-Med Appt out CMMA	A0100	TN	01/20/2018	01/20/2018	Yes	2	1		self	(347) 500-4614	35.2	01/20/2018	0700	10459 121st St	 -	South Richmond Hill	NY	11419	01/20/2018	0900	622 W 168th St	  -	New York	NY	10032	17.6	s/o tues thurs and sat		No	129474057
2504293	108	539032750	Leg	Reshma		Maharaj	KD54352J	F	(347) 500-4614	11/06/1980	Mcdonald Annmarie		1003976341	Clean Air Car Svc & Parking (NYC)	Livery/QN-Med Appt out CMMA	A0100	TN	01/20/2018	01/20/2018	Yes	2	1		self	(347) 500-4614	35.2	01/20/2018	1015	622 W 168th St	 -	New York	NY	10032	01/20/2018	1115	10459 121st St	  -	South Richmond Hill	NY	11419	17.6			No	129474058
2504293	109	539032750	Service	Reshma		Maharaj	KD54352J	F	(347) 500-4614	11/06/1980	Mcdonald Annmarie		1003976341	Clean Air Car Svc & Parking (NYC)	Mileage-Livery in NYC	S0215		01/20/2018	01/20/2018	Yes	2	1																					Mileage-Livery in NYC	129474057
2504293	110	539032750	Service	Reshma		Maharaj	KD54352J	F	(347) 500-4614	11/06/1980	Mcdonald Annmarie		1003976341	Clean Air Car Svc & Parking (NYC)	Mileage-Livery in NYC	S0215		01/20/2018	01/20/2018	Yes	2	1																					Mileage-Livery in NYC	129474058
2504293	111	539032750	Service	Reshma		Maharaj	KD54352J	F	(347) 500-4614	11/06/1980	Mcdonald Annmarie		1003976341	Clean Air Car Svc & Parking (NYC)	Tolls-Universal	A0170	CG	01/20/2018	01/20/2018	Yes	2	1																					Tolls-Universal	129474057
2504293	112	539032820	Leg	Reshma		Maharaj	KD54352J	F	(347) 500-4614	11/06/1980	Mcdonald Annmarie		1003976341	Clean Air Car Svc & Parking (NYC)	Livery/QN-Med Appt out CMMA	A0100	TN	01/25/2018	01/25/2018	Yes	2	1		self	(347) 500-4614	35.2	01/25/2018	0700	10459 121st St	 -	South Richmond Hill	NY	11419	01/25/2018	0900	622 W 168th St	  -	New York	NY	10032	17.6	s/o tues thurs and sat		No	129474061
2504293	113	539032820	Leg	Reshma		Maharaj	KD54352J	F	(347) 500-4614	11/06/1980	Mcdonald Annmarie		1003976341	Clean Air Car Svc & Parking (NYC)	Livery/QN-Med Appt out CMMA	A0100	TN	01/25/2018	01/25/2018	Yes	2	1		self	(347) 500-4614	35.2	01/25/2018	1015	622 W 168th St	 -	New York	NY	10032	01/25/2018	1115	10459 121st St	  -	South Richmond Hill	NY	11419	17.6			No	129474062
2504293	114	539032820	Service	Reshma		Maharaj	KD54352J	F	(347) 500-4614	11/06/1980	Mcdonald Annmarie		1003976341	Clean Air Car Svc & Parking (NYC)	Mileage-Livery in NYC	S0215		01/25/2018	01/25/2018	Yes	2	1																					Mileage-Livery in NYC	129474061
2504293	115	539032820	Service	Reshma		Maharaj	KD54352J	F	(347) 500-4614	11/06/1980	Mcdonald Annmarie		1003976341	Clean Air Car Svc & Parking (NYC)	Mileage-Livery in NYC	S0215		01/25/2018	01/25/2018	Yes	2	1																					Mileage-Livery in NYC	129474062
2504293	116	539032820	Service	Reshma		Maharaj	KD54352J	F	(347) 500-4614	11/06/1980	Mcdonald Annmarie		1003976341	Clean Air Car Svc & Parking (NYC)	Tolls-Universal	A0170	CG	01/25/2018	01/25/2018	Yes	2	1																					Tolls-Universal	129474061
2504293	117	540372000	Leg	Clintasia		Pressley	VD56124Y	F	(646) 975-8276	04/05/1995	DEMATTEO, CELINE		1598915431	Clean Air Car Svc & Parking (NYC)	Livery/QN-Med Appt out CMMA	A0100	TN	01/05/2018	01/05/2018	No	2	1		regina...Mom	(646) 975-8276	18.6	01/05/2018	1100	177 37 105th Ave.	2nd fl. 	Jamaica	NY	11433	01/05/2018	1200	27005 76th Ave	  main	New Hyde Park	NY	11040	9.3	Additional Rider		No	130146497
2504293	118	540372000	Leg	Clintasia		Pressley	VD56124Y	F	(646) 975-8276	04/05/1995	DEMATTEO, CELINE		1598915431	Clean Air Car Svc & Parking (NYC)	Livery/QN-Med Appt out CMMA	A0100	TN	01/05/2018	01/05/2018	No	2	1		regina...Mom	(646) 975-8276	18.6	01/05/2018	Call	27005 76th Ave	 main	New Hyde Park	NY	11040	01/05/2018	Call	177 37 105th Ave.	2nd fl. 	Jamaica	NY	11433	9.3			No	130146500
2504293	119	540372000	Service	Clintasia		Pressley	VD56124Y	F	(646) 975-8276	04/05/1995	DEMATTEO, CELINE		1598915431	Clean Air Car Svc & Parking (NYC)	Mileage-Livery in NYC	S0215		01/05/2018	01/05/2018	No	2	1																					Mileage-Livery in NYC	130146497
2504293	120	540372000	Service	Clintasia		Pressley	VD56124Y	F	(646) 975-8276	04/05/1995	DEMATTEO, CELINE		1598915431	Clean Air Car Svc & Parking (NYC)	Mileage-Livery in NYC	S0215		01/05/2018	01/05/2018	No	2	1																					Mileage-Livery in NYC	130146500
2504293	121	540380800	Leg	Clintasia		Pressley	VD56124Y	F	(646) 975-8276	04/05/1995	Queens Hospital	000	1801803903	Clean Air Car Svc & Parking (NYC)	Livery/QN-Med Appt out CMMA	A0100	TN	01/10/2018	01/10/2018	No	2	1		regina...Mom	(646) 975-8276	23.0	01/10/2018	0745	177 37 105th Ave.	2nd fl. 	Jamaica	NY	11433	01/10/2018	0900	300 Community Dr	  main	Manhasset	NY	11030	11.5	Additional Rider		No	130147176
2504293	122	540380800	Leg	Clintasia		Pressley	VD56124Y	F	(646) 975-8276	04/05/1995	Queens Hospital	000	1801803903	Clean Air Car Svc & Parking (NYC)	Livery/QN-Med Appt out CMMA	A0100	TN	01/10/2018	01/10/2018	No	2	1		regina...Mom	(646) 975-8276	23.0	01/10/2018	Call	300 Community Dr	 main	Manhasset	NY	11030	01/10/2018	Call	177 37 105th Ave.	2nd fl. 	Jamaica	NY	11433	11.5			No	130147177
2504293	123	540380800	Service	Clintasia		Pressley	VD56124Y	F	(646) 975-8276	04/05/1995	Queens Hospital	000	1801803903	Clean Air Car Svc & Parking (NYC)	Tolls-Universal	A0170	CG	01/10/2018	01/10/2018	No	2	1																					Tolls-Universal	130147176
2504293	124	540380800	Service	Clintasia		Pressley	VD56124Y	F	(646) 975-8276	04/05/1995	Queens Hospital	000	1801803903	Clean Air Car Svc & Parking (NYC)	Mileage-Livery out of NYC	S0215	TN	01/10/2018	01/10/2018	No	2	1																					Mileage-Livery out of NYC	130147176
2504293	125	540380800	Service	Clintasia		Pressley	VD56124Y	F	(646) 975-8276	04/05/1995	Queens Hospital	000	1801803903	Clean Air Car Svc & Parking (NYC)	Mileage-Livery out of NYC	S0215	TN	01/10/2018	01/10/2018	No	2	1																					Mileage-Livery out of NYC	130147177
2504293	126	540382110	Leg	Clintasia		Pressley	VD56124Y	F	(646) 975-8276	04/05/1995	Queens Hospital	000	1801803903	Clean Air Car Svc & Parking (NYC)	Livery/QN-Med Appt out CMMA	A0100	TN	01/12/2018	01/12/2018	No	2	1		regina...Mom	(646) 975-8276	23.8	01/12/2018	0830	177 37 105th Ave.	2nd fl. 	Jamaica	NY	11433	01/12/2018	0945	600 Northern Blvd	  main	Great Neck	NY	11021	11.9	+2, Additional Rider		No	130147621
2504293	127	540382110	Leg	Clintasia		Pressley	VD56124Y	F	(646) 975-8276	04/05/1995	Queens Hospital	000	1801803903	Clean Air Car Svc & Parking (NYC)	Livery/QN-Med Appt out CMMA	A0100	TN	01/12/2018	01/12/2018	No	2	1		regina...Mom	(646) 975-8276	23.8	01/12/2018	Call	600 Northern Blvd	 main	Great Neck	NY	11021	01/12/2018	Call	177 37 105th Ave.	2nd fl. 	Jamaica	NY	11433	11.9			No	130147622
2504293	128	540382110	Service	Clintasia		Pressley	VD56124Y	F	(646) 975-8276	04/05/1995	Queens Hospital	000	1801803903	Clean Air Car Svc & Parking (NYC)	Tolls-Universal	A0170	CG	01/12/2018	01/12/2018	No	2	1																					Tolls-Universal	130147621
2504293	129	540382110	Service	Clintasia		Pressley	VD56124Y	F	(646) 975-8276	04/05/1995	Queens Hospital	000	1801803903	Clean Air Car Svc & Parking (NYC)	Mileage-Livery out of NYC	S0215	TN	01/12/2018	01/12/2018	No	2	1																					Mileage-Livery out of NYC	130147621
2504293	130	540382110	Service	Clintasia		Pressley	VD56124Y	F	(646) 975-8276	04/05/1995	Queens Hospital	000	1801803903	Clean Air Car Svc & Parking (NYC)	Mileage-Livery out of NYC	S0215	TN	01/12/2018	01/12/2018	No	2	1																					Mileage-Livery out of NYC	130147622
2504293	131	541325390	Leg	Hailee	E	Fernandez	WV89347B	F	(347) 563-7998	09/01/1991	Queens Hospital	000	1801803903	Clean Air Car Svc & Parking (NYC)	Livery/QN-Med Appt out CMMA	A0100	TN	01/01/2018	01/01/2018	Yes	2	1		Beth Coleman/ care man	7183341551	11.8	01/01/2018	0800	15746 21 st ave	 home	Whitestone	NY	11357	01/01/2018	0900	8002 41st Ave	  main ent	Elmhurst	NY	11373	5.9	s/o mon-fri		No	130427057
2504293	132	541325390	Leg	Hailee	E	Fernandez	WV89347B	F	(347) 563-7998	09/01/1991	Queens Hospital	000	1801803903	Clean Air Car Svc & Parking (NYC)	Livery/QN-Med Appt out CMMA	A0100	TN	01/01/2018	01/01/2018	Yes	2	1		Beth Coleman/ care man	7183341551	11.8	01/01/2018	1500	8002 41st Ave	 main ent	Elmhurst	NY	11373	01/01/2018	1600	15746 21 st ave	  home	Whitestone	NY	11357	5.9			No	130427059
2504293	133	541325480	Leg	Hailee	E	Fernandez	WV89347B	F	(347) 563-7998	09/01/1991	Queens Hospital	000	1801803903	Clean Air Car Svc & Parking (NYC)	Livery/QN-Med Appt out CMMA	A0100	TN	01/02/2018	01/02/2018	Yes	2	1		Beth Coleman/ care man	7183341551	11.8	01/02/2018	0800	15746 21 st ave	 home	Whitestone	NY	11357	01/02/2018	0900	8002 41st Ave	  main ent	Elmhurst	NY	11373	5.9	s/o mon-fri		No	130427061
2504293	134	541325480	Leg	Hailee	E	Fernandez	WV89347B	F	(347) 563-7998	09/01/1991	Queens Hospital	000	1801803903	Clean Air Car Svc & Parking (NYC)	Livery/QN-Med Appt out CMMA	A0100	TN	01/02/2018	01/02/2018	Yes	2	1		Beth Coleman/ care man	7183341551	11.8	01/02/2018	1500	8002 41st Ave	 main ent	Elmhurst	NY	11373	01/02/2018	1600	15746 21 st ave	  home	Whitestone	NY	11357	5.9			No	130427064
2504293	135	541325530	Leg	Hailee	E	Fernandez	WV89347B	F	(347) 563-7998	09/01/1991	Queens Hospital	000	1801803903	Clean Air Car Svc & Parking (NYC)	Livery/QN-Med Appt out CMMA	A0100	TN	01/03/2018	01/03/2018	Yes	2	1		Beth Coleman/ care man	7183341551	11.8	01/03/2018	0800	15746 21 st ave	 home	Whitestone	NY	11357	01/03/2018	0900	8002 41st Ave	  main ent	Elmhurst	NY	11373	5.9	s/o mon-fri		No	130427065
2504293	136	541325530	Leg	Hailee	E	Fernandez	WV89347B	F	(347) 563-7998	09/01/1991	Queens Hospital	000	1801803903	Clean Air Car Svc & Parking (NYC)	Livery/QN-Med Appt out CMMA	A0100	TN	01/03/2018	01/03/2018	Yes	2	1		Beth Coleman/ care man	7183341551	11.8	01/03/2018	1500	8002 41st Ave	 main ent	Elmhurst	NY	11373	01/03/2018	1600	15746 21 st ave	  home	Whitestone	NY	11357	5.9			No	130427067
2504293	137	541325570	Leg	Hailee	E	Fernandez	WV89347B	F	(347) 563-7998	09/01/1991	Queens Hospital	000	1801803903	Clean Air Car Svc & Parking (NYC)	Livery/QN-Med Appt out CMMA	A0100	TN	01/04/2018	01/04/2018	Yes	2	1		Beth Coleman/ care man	7183341551	11.8	01/04/2018	0800	15746 21 st ave	 home	Whitestone	NY	11357	01/04/2018	0900	8002 41st Ave	  main ent	Elmhurst	NY	11373	5.9	s/o mon-fri		No	130427069
2504293	138	541325570	Leg	Hailee	E	Fernandez	WV89347B	F	(347) 563-7998	09/01/1991	Queens Hospital	000	1801803903	Clean Air Car Svc & Parking (NYC)	Livery/QN-Med Appt out CMMA	A0100	TN	01/04/2018	01/04/2018	Yes	2	1		Beth Coleman/ care man	7183341551	11.8	01/04/2018	1500	8002 41st Ave	 main ent	Elmhurst	NY	11373	01/04/2018	1600	15746 21 st ave	  home	Whitestone	NY	11357	5.9			No	130427071
2504293	139	541325590	Leg	Hailee	E	Fernandez	WV89347B	F	(347) 563-7998	09/01/1991	Queens Hospital	000	1801803903	Clean Air Car Svc & Parking (NYC)	Livery/QN-Med Appt out CMMA	A0100	TN	01/05/2018	01/05/2018	Yes	2	1		Beth Coleman/ care man	7183341551	11.8	01/05/2018	0800	15746 21 st ave	 home	Whitestone	NY	11357	01/05/2018	0900	8002 41st Ave	  main ent	Elmhurst	NY	11373	5.9	s/o mon-fri		No	130427074
2504293	140	541325590	Leg	Hailee	E	Fernandez	WV89347B	F	(347) 563-7998	09/01/1991	Queens Hospital	000	1801803903	Clean Air Car Svc & Parking (NYC)	Livery/QN-Med Appt out CMMA	A0100	TN	01/05/2018	01/05/2018	Yes	2	1		Beth Coleman/ care man	7183341551	11.8	01/05/2018	1500	8002 41st Ave	 main ent	Elmhurst	NY	11373	01/05/2018	1600	15746 21 st ave	  home	Whitestone	NY	11357	5.9			No	130427076
2504293	141	541325620	Leg	Hailee	E	Fernandez	WV89347B	F	(347) 563-7998	09/01/1991	Queens Hospital	000	1801803903	Clean Air Car Svc & Parking (NYC)	Livery/QN-Med Appt out CMMA	A0100	TN	01/08/2018	01/08/2018	Yes	2	1		Beth Coleman/ care man	7183341551	11.8	01/08/2018	0800	15746 21 st ave	 home	Whitestone	NY	11357	01/08/2018	0900	8002 41st Ave	  main ent	Elmhurst	NY	11373	5.9	s/o mon-fri		No	130427078
2504293	142	541325620	Leg	Hailee	E	Fernandez	WV89347B	F	(347) 563-7998	09/01/1991	Queens Hospital	000	1801803903	Clean Air Car Svc & Parking (NYC)	Livery/QN-Med Appt out CMMA	A0100	TN	01/08/2018	01/08/2018	Yes	2	1		Beth Coleman/ care man	7183341551	11.8	01/08/2018	1500	8002 41st Ave	 main ent	Elmhurst	NY	11373	01/08/2018	1600	15746 21 st ave	  home	Whitestone	NY	11357	5.9			No	130427079
2504293	143	541325670	Leg	Hailee	E	Fernandez	WV89347B	F	(347) 563-7998	09/01/1991	Queens Hospital	000	1801803903	Clean Air Car Svc & Parking (NYC)	Livery/QN-Med Appt out CMMA	A0100	TN	01/09/2018	01/09/2018	Yes	2	1		Beth Coleman/ care man	7183341551		01/09/2018	0800	15746 21 st ave	 home	Whitestone	NY	11357	01/09/2018	0900	8002 41st Ave	  main ent	Elmhurst	NY	11373	5.9	s/o mon-fri		No	130427081
2504293	144	541325670	Leg	Hailee	E	Fernandez	WV89347B	F	(347) 563-7998	09/01/1991	Queens Hospital	000	1801803903	Clean Air Car Svc & Parking (NYC)	Livery/QN-Med Appt out CMMA	A0100	TN	01/09/2018	01/09/2018	Yes	2	1		Beth Coleman/ care man	7183341551		01/09/2018	1500	8002 41st Ave	 main ent	Elmhurst	NY	11373	01/09/2018	1600	15746 21 st ave	  home	Whitestone	NY	11357	5.9			No	130427083
2504293	145	542002710	Leg	Yimha		Ng	SY11089M	F	(347) 698-3330	10/21/1961	NYC Health and Hospital Corp	00246039	1073535027	Clean Air Car Svc & Parking (NYC)	Livery/BK-Med Appt out CMMA	A0100	TN	01/02/2018	01/02/2018	No	2	1		self	(347) 698-3330	22.2	01/02/2018	1330	1056 E 16th St	Ph 	Brooklyn	NY	11230	01/02/2018	1500	530 1st Ave	  Main	New York	NY	10016	11.1	Requested for driver s39 Ms chen		No	130602387
2504293	146	542002710	Leg	Yimha		Ng	SY11089M	F	(347) 698-3330	10/21/1961	NYC Health and Hospital Corp	00246039	1073535027	Clean Air Car Svc & Parking (NYC)	Livery/BK-Med Appt out CMMA	A0100	TN	01/02/2018	01/02/2018	No	2	1		self	(347) 698-3330	22.2	01/02/2018	Call	530 1st Ave	 Main	New York	NY	10016	01/02/2018	Call	1056 E 16th St	Ph 	Brooklyn	NY	11230	11.1			No	130602388
2504293	147	542002710	Service	Yimha		Ng	SY11089M	F	(347) 698-3330	10/21/1961	NYC Health and Hospital Corp	00246039	1073535027	Clean Air Car Svc & Parking (NYC)	Mileage-Livery in NYC	S0215		01/02/2018	01/02/2018	No	2	1																					Mileage-Livery in NYC	130602387
2504293	148	542002710	Service	Yimha		Ng	SY11089M	F	(347) 698-3330	10/21/1961	NYC Health and Hospital Corp	00246039	1073535027	Clean Air Car Svc & Parking (NYC)	Mileage-Livery in NYC	S0215		01/02/2018	01/02/2018	No	2	1																					Mileage-Livery in NYC	130602388
2504293	149	542002710	Service	Yimha		Ng	SY11089M	F	(347) 698-3330	10/21/1961	NYC Health and Hospital Corp	00246039	1073535027	Clean Air Car Svc & Parking (NYC)	Tolls-Universal	A0170	CG	01/02/2018	01/02/2018	No	2	1																					Tolls-Universal	130602387
2504293	150	542002710	Service	Yimha		Ng	SY11089M	F	(347) 698-3330	10/21/1961	NYC Health and Hospital Corp	00246039	1073535027	Clean Air Car Svc & Parking (NYC)	Livery-Manhattan Surcharge	A0100	SC	01/02/2018	01/02/2018	No	2	1																					Livery-Manhattan Surcharge	130602387
2504293	151	542002710	Service	Yimha		Ng	SY11089M	F	(347) 698-3330	10/21/1961	NYC Health and Hospital Corp	00246039	1073535027	Clean Air Car Svc & Parking (NYC)	Livery-Manhattan Surcharge	A0100	SC	01/02/2018	01/02/2018	No	2	1																					Livery-Manhattan Surcharge	130602388
2504293	152	544456320	Leg	Rosa	M	Santiago	SK42824S	F	(347) 529-4306	11/18/1953	Queens Hospital	000	1801803903	Clean Air Car Svc & Parking (NYC)	Livery/QN-Med Appt in CMMA	A0100		01/03/2018	01/03/2018	No	2	1		self	(347) 529-4306	2.0	01/03/2018	1100	1683 Gates Ave	# 1B 	Ridgewood	NY	11385	01/03/2018	1200	6686 Fresh Pond Rd	  main	Ridgewood	NY	11385	1.0			No	131198679
2504293	153	544456320	Leg	Rosa	M	Santiago	SK42824S	F	(347) 529-4306	11/18/1953	Queens Hospital	000	1801803903	Clean Air Car Svc & Parking (NYC)	Livery/QN-Med Appt in CMMA	A0100		01/03/2018	01/03/2018	No	2	1		self	(347) 529-4306	2.0	01/03/2018	Call	6686 Fresh Pond Rd	 main	Ridgewood	NY	11385	01/03/2018	Call	1683 Gates Ave	# 1B 	Ridgewood	NY	11385	1.0			No	131198681
2504293	154	544471020	Leg	Rosa	M	Santiago	SK42824S	F	(347) 529-4306	11/18/1953	Queens Hospital	000	1801803903	Clean Air Car Svc & Parking (NYC)	Livery/QN-Med Appt out CMMA	A0100	TN	01/11/2018	01/11/2018	No	2	1		self	(347) 529-4306	13.2	01/11/2018	1000	1683 Gates Ave	# 1B 	Ridgewood	NY	11385	01/11/2018	1100	9027 Sutphin Blvd	8639528 	Jamaica	NY	11435	6.6	Additional Rider		No	131201663
2504293	155	544471020	Leg	Rosa	M	Santiago	SK42824S	F	(347) 529-4306	11/18/1953	Queens Hospital	000	1801803903	Clean Air Car Svc & Parking (NYC)	Livery/QN-Med Appt out CMMA	A0100	TN	01/11/2018	01/11/2018	No	2	1		self	(347) 529-4306	13.2	01/11/2018	Call	9027 Sutphin Blvd	8639528 	Jamaica	NY	11435	01/11/2018	Call	1683 Gates Ave	# 1B 	Ridgewood	NY	11385	6.6			No	131201664
2504293	156	544476620	Leg	Rosa	M	Santiago	SK42824S	F	(347) 529-4306	11/18/1953	Queens Hospital	000	1801803903	Clean Air Car Svc & Parking (NYC)	Livery/QN-Med Appt in CMMA	A0100		01/26/2018	01/26/2018	No	2	1		self	(347) 529-4306	2.0	01/26/2018	1000	1683 Gates Ave	# 1B 	Ridgewood	NY	11385	01/26/2018	1100	6686 Fresh Pond Rd	  main	Ridgewood	NY	11385	1.0	Additional Rider		No	131203572
2504293	157	544476620	Leg	Rosa	M	Santiago	SK42824S	F	(347) 529-4306	11/18/1953	Queens Hospital	000	1801803903	Clean Air Car Svc & Parking (NYC)	Livery/QN-Med Appt in CMMA	A0100		01/26/2018	01/26/2018	No	2	1		self	(347) 529-4306	2.0	01/26/2018	Call	6686 Fresh Pond Rd	 main	Ridgewood	NY	11385	01/26/2018	Call	1683 Gates Ave	# 1B 	Ridgewood	NY	11385	1.0			No	131203574
2504293	158	544983750	Leg	Cui	Y	Kuang	XA99269A	F	(212) 253-5402	12/16/1954	Lwr Manhattan Dialysis Ctr	01636819	1740261874	Clean Air Car Svc & Parking (NYC)	Livery/MN-Med Appt in CMMA	A0100		01/03/2018	01/03/2018	Yes	3	1		Althea J from Lower Manhattan Dialysis Center	212-889-1082	5.0	01/03/2018	0830	215 Eldridge St	Apt 3D 	New York	NY	10002	01/03/2018	0930	323 E 34th St	  12th FL	New York	NY	10016	1.9	walker, Additional Rider S/O Mon, Wed, Fri		No	131351591
2504293	159	544983750	Leg	Cui	Y	Kuang	XA99269A	F	(212) 253-5402	12/16/1954	Lwr Manhattan Dialysis Ctr	01636819	1740261874	Clean Air Car Svc & Parking (NYC)	Livery/MN-Med Appt in CMMA	A0100		01/03/2018	01/03/2018	Yes	3	1		Althea J from Lower Manhattan Dialysis Center	212-889-1082	5.0	01/03/2018	Call	323 E 34th St	 12th FL	New York	NY	10016	01/03/2018	Call	41 Elizabeth St	  Ste 507	New York	NY	10013	2.5	walker, Additional Rider		No	131351658
2504293	160	544983750	Leg	Cui	Y	Kuang	XA99269A	F	(212) 253-5402	12/16/1954	Lwr Manhattan Dialysis Ctr	01636819	1740261874	Clean Air Car Svc & Parking (NYC)	Livery/MN-Med Appt in CMMA	A0100		01/03/2018	01/03/2018	Yes	3	1		Althea J from Lower Manhattan Dialysis Center	212-889-1082	5.0	01/03/2018	Call	41 Elizabeth St	 Ste 507	New York	NY	10013	01/03/2018	Call	215 Eldridge St	Apt 3D 	New York	NY	10002	.6	walker, Additional Rider		No	131355471
2504293	161	544983760	Leg	Cui	Y	Kuang	XA99269A	F	(212) 253-5402	12/16/1954	Lwr Manhattan Dialysis Ctr	01636819	1740261874	Clean Air Car Svc & Parking (NYC)	Livery/MN-Med Appt in CMMA	A0100		01/05/2018	01/05/2018	Yes	2	1		Althea J from Lower Manhattan Dialysis Center	212-889-1082	3.8	01/05/2018	0830	215 Eldridge St	Apt 3D 	New York	NY	10002	01/05/2018	0930	323 E 34th St	  12th FL	New York	NY	10016	1.9	walker, Additional Rider S/O Mon, Wed, Fri		No	131352022
2504293	162	544983760	Leg	Cui	Y	Kuang	XA99269A	F	(212) 253-5402	12/16/1954	Lwr Manhattan Dialysis Ctr	01636819	1740261874	Clean Air Car Svc & Parking (NYC)	Livery/MN-Med Appt in CMMA	A0100		01/05/2018	01/05/2018	Yes	2	1		Althea J from Lower Manhattan Dialysis Center	212-889-1082	3.8	01/05/2018	Call	323 E 34th St	 12th FL	New York	NY	10016	01/05/2018	Call	215 Eldridge St	Apt 3D 	New York	NY	10002	1.9	walker, Additional Rider		No	131352116
2504293	163	544983770	Leg	Cui	Y	Kuang	XA99269A	F	(212) 253-5402	12/16/1954	Lwr Manhattan Dialysis Ctr	01636819	1740261874	Clean Air Car Svc & Parking (NYC)	Livery/MN-Med Appt in CMMA	A0100		01/08/2018	01/08/2018	Yes	2	1		Althea J from Lower Manhattan Dialysis Center	212-889-1082	3.8	01/08/2018	0830	215 Eldridge St	Apt 3D 	New York	NY	10002	01/08/2018	0930	323 E 34th St	  12th FL	New York	NY	10016	1.9	walker, Additional Rider S/O Mon, Wed, Fri		No	131352023
2504293	164	544983770	Leg	Cui	Y	Kuang	XA99269A	F	(212) 253-5402	12/16/1954	Lwr Manhattan Dialysis Ctr	01636819	1740261874	Clean Air Car Svc & Parking (NYC)	Livery/MN-Med Appt in CMMA	A0100		01/08/2018	01/08/2018	Yes	2	1		Althea J from Lower Manhattan Dialysis Center	212-889-1082	3.8	01/08/2018	Call	323 E 34th St	 12th FL	New York	NY	10016	01/08/2018	Call	215 Eldridge St	Apt 3D 	New York	NY	10002	1.9	walker, Additional Rider		No	131352117
2504293	165	544983780	Leg	Cui	Y	Kuang	XA99269A	F	(212) 253-5402	12/16/1954	Lwr Manhattan Dialysis Ctr	01636819	1740261874	Clean Air Car Svc & Parking (NYC)	Livery/MN-Med Appt in CMMA	A0100		01/10/2018	01/10/2018	Yes	2	1		Althea J from Lower Manhattan Dialysis Center	212-889-1082	3.8	01/10/2018	0830	215 Eldridge St	Apt 3D 	New York	NY	10002	01/10/2018	0930	323 E 34th St	  12th FL	New York	NY	10016	1.9	walker, Additional Rider S/O Mon, Wed, Fri		No	131352024
2504293	166	544983780	Leg	Cui	Y	Kuang	XA99269A	F	(212) 253-5402	12/16/1954	Lwr Manhattan Dialysis Ctr	01636819	1740261874	Clean Air Car Svc & Parking (NYC)	Livery/MN-Med Appt in CMMA	A0100		01/10/2018	01/10/2018	Yes	2	1		Althea J from Lower Manhattan Dialysis Center	212-889-1082	3.8	01/10/2018	Call	323 E 34th St	 12th FL	New York	NY	10016	01/10/2018	Call	215 Eldridge St	Apt 3D 	New York	NY	10002	1.9	walker, Additional Rider		No	131352119
2504293	167	544983810	Leg	Cui	Y	Kuang	XA99269A	F	(212) 253-5402	12/16/1954	Lwr Manhattan Dialysis Ctr	01636819	1740261874	Clean Air Car Svc & Parking (NYC)	Livery/MN-Med Appt in CMMA	A0100		01/12/2018	01/12/2018	Yes	2	1		Althea J from Lower Manhattan Dialysis Center	212-889-1082	3.8	01/12/2018	0830	215 Eldridge St	Apt 3D 	New York	NY	10002	01/12/2018	0930	323 E 34th St	  12th FL	New York	NY	10016	1.9	walker, Additional Rider S/O Mon, Wed, Fri		No	131352025
2504293	168	544983810	Leg	Cui	Y	Kuang	XA99269A	F	(212) 253-5402	12/16/1954	Lwr Manhattan Dialysis Ctr	01636819	1740261874	Clean Air Car Svc & Parking (NYC)	Livery/MN-Med Appt in CMMA	A0100		01/12/2018	01/12/2018	Yes	2	1		Althea J from Lower Manhattan Dialysis Center	212-889-1082	3.8	01/12/2018	Call	323 E 34th St	 12th FL	New York	NY	10016	01/12/2018	Call	215 Eldridge St	Apt 3D 	New York	NY	10002	1.9	walker, Additional Rider		No	131352120
2504293	169	544983820	Leg	Cui	Y	Kuang	XA99269A	F	(212) 253-5402	12/16/1954	Lwr Manhattan Dialysis Ctr	01636819	1740261874	Clean Air Car Svc & Parking (NYC)	Livery/MN-Med Appt in CMMA	A0100		01/15/2018	01/15/2018	Yes	2	1		Althea J from Lower Manhattan Dialysis Center	212-889-1082	3.8	01/15/2018	0830	215 Eldridge St	Apt 3D 	New York	NY	10002	01/15/2018	0930	323 E 34th St	  12th FL	New York	NY	10016	1.9	walker, Additional Rider S/O Mon, Wed, Fri		No	131352026
2504293	170	544983820	Leg	Cui	Y	Kuang	XA99269A	F	(212) 253-5402	12/16/1954	Lwr Manhattan Dialysis Ctr	01636819	1740261874	Clean Air Car Svc & Parking (NYC)	Livery/MN-Med Appt in CMMA	A0100		01/15/2018	01/15/2018	Yes	2	1		Althea J from Lower Manhattan Dialysis Center	212-889-1082	3.8	01/15/2018	Call	323 E 34th St	 12th FL	New York	NY	10016	01/15/2018	Call	215 Eldridge St	Apt 3D 	New York	NY	10002	1.9	walker, Additional Rider		No	131352121
2504293	171	544983830	Leg	Cui	Y	Kuang	XA99269A	F	(212) 253-5402	12/16/1954	Lwr Manhattan Dialysis Ctr	01636819	1740261874	Clean Air Car Svc & Parking (NYC)	Livery/MN-Med Appt in CMMA	A0100		01/17/2018	01/17/2018	Yes	2	1		Althea J from Lower Manhattan Dialysis Center	212-889-1082	3.8	01/17/2018	0830	215 Eldridge St	Apt 3D 	New York	NY	10002	01/17/2018	0930	323 E 34th St	  12th FL	New York	NY	10016	1.9	walker, Additional Rider S/O Mon, Wed, Fri		No	131352027
2504293	172	544983830	Leg	Cui	Y	Kuang	XA99269A	F	(212) 253-5402	12/16/1954	Lwr Manhattan Dialysis Ctr	01636819	1740261874	Clean Air Car Svc & Parking (NYC)	Livery/MN-Med Appt in CMMA	A0100		01/17/2018	01/17/2018	Yes	2	1		Althea J from Lower Manhattan Dialysis Center	212-889-1082	3.8	01/17/2018	Call	323 E 34th St	 12th FL	New York	NY	10016	01/17/2018	Call	215 Eldridge St	Apt 3D 	New York	NY	10002	1.9	walker, Additional Rider		No	131352122
2504293	173	544983840	Leg	Cui	Y	Kuang	XA99269A	F	(212) 253-5402	12/16/1954	Lwr Manhattan Dialysis Ctr	01636819	1740261874	Clean Air Car Svc & Parking (NYC)	Livery/MN-Med Appt in CMMA	A0100		01/19/2018	01/19/2018	Yes	2	1		Althea J from Lower Manhattan Dialysis Center	212-889-1082	3.8	01/19/2018	0830	215 Eldridge St	Apt 3D 	New York	NY	10002	01/19/2018	0930	323 E 34th St	  12th FL	New York	NY	10016	1.9	walker, Additional Rider S/O Mon, Wed, Fri		No	131352028
2504293	174	544983840	Leg	Cui	Y	Kuang	XA99269A	F	(212) 253-5402	12/16/1954	Lwr Manhattan Dialysis Ctr	01636819	1740261874	Clean Air Car Svc & Parking (NYC)	Livery/MN-Med Appt in CMMA	A0100		01/19/2018	01/19/2018	Yes	2	1		Althea J from Lower Manhattan Dialysis Center	212-889-1082	3.8	01/19/2018	Call	323 E 34th St	 12th FL	New York	NY	10016	01/19/2018	Call	215 Eldridge St	Apt 3D 	New York	NY	10002	1.9	walker, Additional Rider		No	131352123
2504293	175	544983870	Leg	Cui	Y	Kuang	XA99269A	F	(212) 253-5402	12/16/1954	Lwr Manhattan Dialysis Ctr	01636819	1740261874	Clean Air Car Svc & Parking (NYC)	Livery/MN-Med Appt in CMMA	A0100		01/22/2018	01/22/2018	Yes	2	1		Althea J from Lower Manhattan Dialysis Center	212-889-1082	3.8	01/22/2018	0830	215 Eldridge St	Apt 3D 	New York	NY	10002	01/22/2018	0930	323 E 34th St	  12th FL	New York	NY	10016	1.9	walker, Additional Rider S/O Mon, Wed, Fri		No	131352029
2504293	176	544983870	Leg	Cui	Y	Kuang	XA99269A	F	(212) 253-5402	12/16/1954	Lwr Manhattan Dialysis Ctr	01636819	1740261874	Clean Air Car Svc & Parking (NYC)	Livery/MN-Med Appt in CMMA	A0100		01/22/2018	01/22/2018	Yes	2	1		Althea J from Lower Manhattan Dialysis Center	212-889-1082	3.8	01/22/2018	Call	323 E 34th St	 12th FL	New York	NY	10016	01/22/2018	Call	215 Eldridge St	Apt 3D 	New York	NY	10002	1.9	walker, Additional Rider		No	131352124
2504293	177	544983880	Leg	Cui	Y	Kuang	XA99269A	F	(212) 253-5402	12/16/1954	Lwr Manhattan Dialysis Ctr	01636819	1740261874	Clean Air Car Svc & Parking (NYC)	Livery/MN-Med Appt in CMMA	A0100		01/24/2018	01/24/2018	Yes	2	1		Althea J from Lower Manhattan Dialysis Center	212-889-1082	3.8	01/24/2018	0830	215 Eldridge St	Apt 3D 	New York	NY	10002	01/24/2018	0930	323 E 34th St	  12th FL	New York	NY	10016	1.9	walker, Additional Rider S/O Mon, Wed, Fri		No	131352030
2504293	178	544983880	Leg	Cui	Y	Kuang	XA99269A	F	(212) 253-5402	12/16/1954	Lwr Manhattan Dialysis Ctr	01636819	1740261874	Clean Air Car Svc & Parking (NYC)	Livery/MN-Med Appt in CMMA	A0100		01/24/2018	01/24/2018	Yes	2	1		Althea J from Lower Manhattan Dialysis Center	212-889-1082	3.8	01/24/2018	Call	323 E 34th St	 12th FL	New York	NY	10016	01/24/2018	Call	215 Eldridge St	Apt 3D 	New York	NY	10002	1.9	walker, Additional Rider		No	131352125
2504293	179	544983900	Leg	Cui	Y	Kuang	XA99269A	F	(212) 253-5402	12/16/1954	Lwr Manhattan Dialysis Ctr	01636819	1740261874	Clean Air Car Svc & Parking (NYC)	Livery/MN-Med Appt in CMMA	A0100		01/26/2018	01/26/2018	Yes	2	1		Althea J from Lower Manhattan Dialysis Center	212-889-1082	3.8	01/26/2018	0830	215 Eldridge St	Apt 3D 	New York	NY	10002	01/26/2018	0930	323 E 34th St	  12th FL	New York	NY	10016	1.9	walker, Additional Rider S/O Mon, Wed, Fri		No	131352031
2504293	180	544983900	Leg	Cui	Y	Kuang	XA99269A	F	(212) 253-5402	12/16/1954	Lwr Manhattan Dialysis Ctr	01636819	1740261874	Clean Air Car Svc & Parking (NYC)	Livery/MN-Med Appt in CMMA	A0100		01/26/2018	01/26/2018	Yes	2	1		Althea J from Lower Manhattan Dialysis Center	212-889-1082	3.8	01/26/2018	Call	323 E 34th St	 12th FL	New York	NY	10016	01/26/2018	Call	215 Eldridge St	Apt 3D 	New York	NY	10002	1.9	walker, Additional Rider		No	131352126
2504293	181	544983910	Leg	Cui	Y	Kuang	XA99269A	F	(212) 253-5402	12/16/1954	Lwr Manhattan Dialysis Ctr	01636819	1740261874	Clean Air Car Svc & Parking (NYC)	Livery/MN-Med Appt in CMMA	A0100		01/29/2018	01/29/2018	Yes	2	1		Althea J from Lower Manhattan Dialysis Center	212-889-1082	3.8	01/29/2018	0830	215 Eldridge St	Apt 3D 	New York	NY	10002	01/29/2018	0930	323 E 34th St	  12th FL	New York	NY	10016	1.9	walker, Additional Rider S/O Mon, Wed, Fri		No	131352032
2504293	182	544983910	Leg	Cui	Y	Kuang	XA99269A	F	(212) 253-5402	12/16/1954	Lwr Manhattan Dialysis Ctr	01636819	1740261874	Clean Air Car Svc & Parking (NYC)	Livery/MN-Med Appt in CMMA	A0100		01/29/2018	01/29/2018	Yes	2	1		Althea J from Lower Manhattan Dialysis Center	212-889-1082	3.8	01/29/2018	Call	323 E 34th St	 12th FL	New York	NY	10016	01/29/2018	Call	215 Eldridge St	Apt 3D 	New York	NY	10002	1.9	walker, Additional Rider		No	131352127
2504293	183	544983920	Leg	Cui	Y	Kuang	XA99269A	F	(212) 253-5402	12/16/1954	Lwr Manhattan Dialysis Ctr	01636819	1740261874	Clean Air Car Svc & Parking (NYC)	Livery/MN-Med Appt in CMMA	A0100		01/31/2018	01/31/2018	Yes	2	1		Althea J from Lower Manhattan Dialysis Center	212-889-1082	3.8	01/31/2018	0830	215 Eldridge St	Apt 3D 	New York	NY	10002	01/31/2018	0930	323 E 34th St	  12th FL	New York	NY	10016	1.9	walker, Additional Rider S/O Mon, Wed, Fri		No	131352033
2504293	184	544983920	Leg	Cui	Y	Kuang	XA99269A	F	(212) 253-5402	12/16/1954	Lwr Manhattan Dialysis Ctr	01636819	1740261874	Clean Air Car Svc & Parking (NYC)	Livery/MN-Med Appt in CMMA	A0100		01/31/2018	01/31/2018	Yes	2	1		Althea J from Lower Manhattan Dialysis Center	212-889-1082	3.8	01/31/2018	Call	323 E 34th St	 12th FL	New York	NY	10016	01/31/2018	Call	215 Eldridge St	Apt 3D 	New York	NY	10002	1.9	walker, Additional Rider		No	131352128
2504293	185	547218070	Leg	Sumin		Zhou	QF10646S	M	(347) 237-7389	01/18/1940	LI, JAMES		1740322148	Clean Air Car Svc & Parking (NYC)	Livery/QN-Med Appt in CMMA	A0100		01/10/2018	01/10/2018	No	2	1		self	(347) 237-7389	7.6	01/10/2018	0900	9840 64th Ave	Apt 8D 	Rego Park	NY	11374	01/10/2018	1000	13633 37th Ave	  	Flushing	NY	11354	3.8	Additional Rider		No	131886706
2504293	186	547218070	Leg	Sumin		Zhou	QF10646S	M	(347) 237-7389	01/18/1940	LI, JAMES		1740322148	Clean Air Car Svc & Parking (NYC)	Livery/QN-Med Appt in CMMA	A0100		01/10/2018	01/10/2018	No	2	1		self	(347) 237-7389	7.6	01/10/2018	Call	13633 37th Ave	 	Flushing	NY	11354	01/10/2018	Call	9840 64th Ave	Apt 8D 	Rego Park	NY	11374	3.8			No	131886707
2504293	187	547531030	Leg	Yimha		Ng	SY11089M	F	(347) 698-3330	10/21/1961	NYC Health and Hospital Corp	00246039	1073535027	Clean Air Car Svc & Parking (NYC)	Livery/BK-Med Appt out CMMA	A0100	TN	01/10/2018	01/10/2018	No	2	1		self	(347) 698-3330	22.6	01/10/2018	1230	1056 E 16th St	Ph 	Brooklyn	NY	11230	01/10/2018	1330	240 E 38th St	  	New York	NY	10016	11.3	Additional Rider		No	131954623
2504293	188	547531030	Leg	Yimha		Ng	SY11089M	F	(347) 698-3330	10/21/1961	NYC Health and Hospital Corp	00246039	1073535027	Clean Air Car Svc & Parking (NYC)	Livery/BK-Med Appt out CMMA	A0100	TN	01/10/2018	01/10/2018	No	2	1		self	(347) 698-3330	22.6	01/10/2018	Call	240 E 38th St	 	New York	NY	10016	01/10/2018	Call	1056 E 16th St	Ph 	Brooklyn	NY	11230	11.3			No	131954624
2504293	189	547531030	Service	Yimha		Ng	SY11089M	F	(347) 698-3330	10/21/1961	NYC Health and Hospital Corp	00246039	1073535027	Clean Air Car Svc & Parking (NYC)	Mileage-Livery in NYC	S0215		01/10/2018	01/10/2018	No	2	1																					Mileage-Livery in NYC	131954623
2504293	190	547531030	Service	Yimha		Ng	SY11089M	F	(347) 698-3330	10/21/1961	NYC Health and Hospital Corp	00246039	1073535027	Clean Air Car Svc & Parking (NYC)	Mileage-Livery in NYC	S0215		01/10/2018	01/10/2018	No	2	1																					Mileage-Livery in NYC	131954624
2504293	191	547531030	Service	Yimha		Ng	SY11089M	F	(347) 698-3330	10/21/1961	NYC Health and Hospital Corp	00246039	1073535027	Clean Air Car Svc & Parking (NYC)	Tolls-Universal	A0170	CG	01/10/2018	01/10/2018	No	2	1																					Tolls-Universal	131954623
2504293	192	547531030	Service	Yimha		Ng	SY11089M	F	(347) 698-3330	10/21/1961	NYC Health and Hospital Corp	00246039	1073535027	Clean Air Car Svc & Parking (NYC)	Livery-Manhattan Surcharge	A0100	SC	01/10/2018	01/10/2018	No	2	1																					Livery-Manhattan Surcharge	131954623
2504293	193	547531030	Service	Yimha		Ng	SY11089M	F	(347) 698-3330	10/21/1961	NYC Health and Hospital Corp	00246039	1073535027	Clean Air Car Svc & Parking (NYC)	Livery-Manhattan Surcharge	A0100	SC	01/10/2018	01/10/2018	No	2	1																					Livery-Manhattan Surcharge	131954624
2504293	194	547620890	Leg	Kelvin		Yang	ME14998G	M	(631) 353-1293	09/26/2014	Brooklyn Hospital Center	000	1326046467	Clean Air Car Svc & Parking (NYC)	Livery/BK-Med Appt out CMMA	A0100	TN	01/03/2018	01/03/2018	No	2	1		mom	(631) 353-1293	18.4	01/03/2018	1145	542 61st St	Fl 1 	Brooklyn	NY	11220	01/03/2018	1330	301 E 17th St	  	New York	NY	10003	9.2	Enrollee a car seat needed, Additional Rider		No	131974368
2504293	195	547620890	Leg	Kelvin		Yang	ME14998G	M	(631) 353-1293	09/26/2014	Brooklyn Hospital Center	000	1326046467	Clean Air Car Svc & Parking (NYC)	Livery/BK-Med Appt out CMMA	A0100	TN	01/03/2018	01/03/2018	No	2	1		mom	(631) 353-1293	18.4	01/03/2018	Call	301 E 17th St	 	New York	NY	10003	01/03/2018	Call	542 61st St	Fl 1 	Brooklyn	NY	11220	9.2			No	131974369
2504293	196	547620890	Service	Kelvin		Yang	ME14998G	M	(631) 353-1293	09/26/2014	Brooklyn Hospital Center	000	1326046467	Clean Air Car Svc & Parking (NYC)	Mileage-Livery in NYC	S0215		01/03/2018	01/03/2018	No	2	1																					Mileage-Livery in NYC	131974368
2504293	197	547620890	Service	Kelvin		Yang	ME14998G	M	(631) 353-1293	09/26/2014	Brooklyn Hospital Center	000	1326046467	Clean Air Car Svc & Parking (NYC)	Mileage-Livery in NYC	S0215		01/03/2018	01/03/2018	No	2	1																					Mileage-Livery in NYC	131974369
2504293	198	547620890	Service	Kelvin		Yang	ME14998G	M	(631) 353-1293	09/26/2014	Brooklyn Hospital Center	000	1326046467	Clean Air Car Svc & Parking (NYC)	Tolls-Universal	A0170	CG	01/03/2018	01/03/2018	No	2	1																					Tolls-Universal	131974368
2504293	199	547620890	Service	Kelvin		Yang	ME14998G	M	(631) 353-1293	09/26/2014	Brooklyn Hospital Center	000	1326046467	Clean Air Car Svc & Parking (NYC)	Livery-Manhattan Surcharge	A0100	SC	01/03/2018	01/03/2018	No	2	1																					Livery-Manhattan Surcharge	131974368
2504293	200	547620890	Service	Kelvin		Yang	ME14998G	M	(631) 353-1293	09/26/2014	Brooklyn Hospital Center	000	1326046467	Clean Air Car Svc & Parking (NYC)	Livery-Manhattan Surcharge	A0100	SC	01/03/2018	01/03/2018	No	2	1																					Livery-Manhattan Surcharge	131974369
2504293	201	549064330	Leg	Shamima		Rahman	QT41827U	F	7186570838	08/09/1960	Rahman Amanur Mohammed	00000	1104162502	Clean Air Car Svc & Parking (NYC)	Livery/QN-Med Appt out CMMA	A0100	TN	01/02/2018	01/02/2018	No	2	1		daughter	7186570838	17.8	01/02/2018	0845	19332 Foothill Ave	 	Hollis	NY	11423	01/02/2018	0945	4141 51st St	  	Woodside	NY	11377	8.9	plus 2 and customer uses a cane		No	132303466
2504293	202	549064330	Leg	Shamima		Rahman	QT41827U	F	7186570838	08/09/1960	Rahman Amanur Mohammed	00000	1104162502	Clean Air Car Svc & Parking (NYC)	Livery/QN-Med Appt out CMMA	A0100	TN	01/02/2018	01/02/2018	No	2	1		daughter	7186570838	17.8	01/02/2018	CALL	4141 51st St	 	Woodside	NY	11377	01/02/2018	CALL	19332 Foothill Ave	  	Hollis	NY	11423	8.9			No	132303467
2504293	203	549064330	Service	Shamima		Rahman	QT41827U	F	7186570838	08/09/1960	Rahman Amanur Mohammed	00000	1104162502	Clean Air Car Svc & Parking (NYC)	Mileage-Livery in NYC	S0215		01/02/2018	01/02/2018	No	2	1																					Mileage-Livery in NYC	132303466
2504293	204	549064330	Service	Shamima		Rahman	QT41827U	F	7186570838	08/09/1960	Rahman Amanur Mohammed	00000	1104162502	Clean Air Car Svc & Parking (NYC)	Mileage-Livery in NYC	S0215		01/02/2018	01/02/2018	No	2	1																					Mileage-Livery in NYC	132303467
2504293	205	549066280	Leg	Shamima		Rahman	QT41827U	F	7186570838	08/09/1960	Rahman Amanur Mohammed	00000	1104162502	Clean Air Car Svc & Parking (NYC)	Livery/QN-Med Appt out CMMA	A0100	TN	01/03/2018	01/03/2018	No	2	1		daughter	7186570838	31.6	01/03/2018	1000	19332 Foothill Ave	 	Hollis	NY	11423	01/03/2018	1100	1470 Madison Ave	  	New York	NY	10029	15.8	plus 2 and customer uses a cane		No	132303497
2504293	206	549066280	Leg	Shamima		Rahman	QT41827U	F	7186570838	08/09/1960	Rahman Amanur Mohammed	00000	1104162502	Clean Air Car Svc & Parking (NYC)	Livery/QN-Med Appt out CMMA	A0100	TN	01/03/2018	01/03/2018	No	2	1		daughter	7186570838	31.6	01/03/2018	CALL	1470 Madison Ave	 	New York	NY	10029	01/03/2018	CALL	19332 Foothill Ave	  	Hollis	NY	11423	15.8			No	132303498
2504293	207	549066280	Service	Shamima		Rahman	QT41827U	F	7186570838	08/09/1960	Rahman Amanur Mohammed	00000	1104162502	Clean Air Car Svc & Parking (NYC)	Tolls-Universal	A0170	CG	01/03/2018	01/03/2018	No	2	1																					Tolls-Universal	132303497
2504293	208	549066280	Service	Shamima		Rahman	QT41827U	F	7186570838	08/09/1960	Rahman Amanur Mohammed	00000	1104162502	Clean Air Car Svc & Parking (NYC)	Livery-Manhattan Surcharge	A0100	SC	01/03/2018	01/03/2018	No	2	1																					Livery-Manhattan Surcharge	132303497
2504293	209	549066280	Service	Shamima		Rahman	QT41827U	F	7186570838	08/09/1960	Rahman Amanur Mohammed	00000	1104162502	Clean Air Car Svc & Parking (NYC)	Livery-Manhattan Surcharge	A0100	SC	01/03/2018	01/03/2018	No	2	1																					Livery-Manhattan Surcharge	132303498
2504293	210	549066280	Service	Shamima		Rahman	QT41827U	F	7186570838	08/09/1960	Rahman Amanur Mohammed	00000	1104162502	Clean Air Car Svc & Parking (NYC)	Mileage-Livery in NYC	S0215		01/03/2018	01/03/2018	No	2	1																					Mileage-Livery in NYC	132303497
2504293	211	549066280	Service	Shamima		Rahman	QT41827U	F	7186570838	08/09/1960	Rahman Amanur Mohammed	00000	1104162502	Clean Air Car Svc & Parking (NYC)	Mileage-Livery in NYC	S0215		01/03/2018	01/03/2018	No	2	1																					Mileage-Livery in NYC	132303498
2504293	212	549069820	Leg	Shamima		Rahman	QT41827U	F	(929) 433-0432	08/09/1960	Queens Hospital	000	1801803903	Clean Air Car Svc & Parking (NYC)	Livery/QN-Med Appt out CMMA	A0100	TN	01/06/2018	01/06/2018	No	2	1		daughter	7186570838	12.2	01/06/2018	1000	19332 Foothill Ave	 	Hollis	NY	11423	01/06/2018	1100	3907 Prince St	  	Flushing	NY	11354	6.1	plus 2 and customer uses a cane		No	132303988
2504293	213	549069820	Leg	Shamima		Rahman	QT41827U	F	(929) 433-0432	08/09/1960	Queens Hospital	000	1801803903	Clean Air Car Svc & Parking (NYC)	Livery/QN-Med Appt out CMMA	A0100	TN	01/06/2018	01/06/2018	No	2	1		daughter	7186570838	12.2	01/06/2018	CALL	3907 Prince St	 	Flushing	NY	11354	01/06/2018	CALL	19332 Foothill Ave	  	Hollis	NY	11423	6.1			No	132303989
2504293	214	549069890	Leg	Shamima		Rahman	QT41827U	F	(929) 433-0432	08/09/1960	Queens Hospital	000	1801803903	Clean Air Car Svc & Parking (NYC)	Livery/QN-Med Appt out CMMA	A0100	TN	01/07/2018	01/07/2018	No	2	1		daughter	7186570838	12.2	01/07/2018	1000	19332 Foothill Ave	 	Hollis	NY	11423	01/07/2018	1100	3907 Prince St	  	Flushing	NY	11354	6.1	plus 2 and customer uses a cane		No	132304007
2504293	215	549069890	Leg	Shamima		Rahman	QT41827U	F	(929) 433-0432	08/09/1960	Queens Hospital	000	1801803903	Clean Air Car Svc & Parking (NYC)	Livery/QN-Med Appt out CMMA	A0100	TN	01/07/2018	01/07/2018	No	2	1		daughter	7186570838	12.2	01/07/2018	CALL	3907 Prince St	 	Flushing	NY	11354	01/07/2018	CALL	19332 Foothill Ave	  	Hollis	NY	11423	6.1			No	132304008
2504293	216	549077620	Leg	Syed	M	Sufian	QT41837Q	M	(718) 657-0838	10/14/1958	Queens Hospital	000	1801803903	Clean Air Car Svc & Parking (NYC)	Livery/QN-Med Appt out CMMA	A0100	TN	01/02/2018	01/02/2018	No	2	1		mORADINE @ DAUGHTER	(718) 657-0838	28.6	01/02/2018	1030	19332 Foothill Ave	 MAIN	Hollis	NY	11423	01/02/2018	1130	462 1st Ave	  MAIN	New York	NY	10016	14.3	2, Additional Rider		No	132306625
2504293	217	549077620	Leg	Syed	M	Sufian	QT41837Q	M	(718) 657-0838	10/14/1958	Queens Hospital	000	1801803903	Clean Air Car Svc & Parking (NYC)	Livery/QN-Med Appt out CMMA	A0100	TN	01/02/2018	01/02/2018	No	2	1		mORADINE @ DAUGHTER	(718) 657-0838	28.6	01/02/2018	Call	462 1st Ave	 MAIN	New York	NY	10016	01/02/2018	Call	19332 Foothill Ave	  MAIN	Hollis	NY	11423	14.3			No	132306626
2504293	218	549077620	Service	Syed	M	Sufian	QT41837Q	M	(718) 657-0838	10/14/1958	Queens Hospital	000	1801803903	Clean Air Car Svc & Parking (NYC)	Mileage-Livery in NYC	S0215		01/02/2018	01/02/2018	No	2	1																					Mileage-Livery in NYC	132306625
2504293	219	549077620	Service	Syed	M	Sufian	QT41837Q	M	(718) 657-0838	10/14/1958	Queens Hospital	000	1801803903	Clean Air Car Svc & Parking (NYC)	Mileage-Livery in NYC	S0215		01/02/2018	01/02/2018	No	2	1																					Mileage-Livery in NYC	132306626
2504293	220	549077620	Service	Syed	M	Sufian	QT41837Q	M	(718) 657-0838	10/14/1958	Queens Hospital	000	1801803903	Clean Air Car Svc & Parking (NYC)	Tolls-Universal	A0170	CG	01/02/2018	01/02/2018	No	2	1																					Tolls-Universal	132306625
2504293	221	549077620	Service	Syed	M	Sufian	QT41837Q	M	(718) 657-0838	10/14/1958	Queens Hospital	000	1801803903	Clean Air Car Svc & Parking (NYC)	Livery-Manhattan Surcharge	A0100	SC	01/02/2018	01/02/2018	No	2	1																					Livery-Manhattan Surcharge	132306625
2504293	222	549077620	Service	Syed	M	Sufian	QT41837Q	M	(718) 657-0838	10/14/1958	Queens Hospital	000	1801803903	Clean Air Car Svc & Parking (NYC)	Livery-Manhattan Surcharge	A0100	SC	01/02/2018	01/02/2018	No	2	1																					Livery-Manhattan Surcharge	132306626
2504293	223	549079500	Leg	Syed	M	Sufian	QT41837Q	M	(718) 657-0838	10/14/1958	Queens Hospital	000	1801803903	Clean Air Car Svc & Parking (NYC)	Livery/QN-Med Appt out CMMA	A0100	TN	01/03/2018	01/03/2018	No	2	1		Mordarine @ daughter	(718) 657-0838	12.8	01/03/2018	0915	19332 Foothill Ave	 main	Hollis	NY	11423	01/03/2018	1015	9520 63rd Rd	8639517 	Rego Park	NY	11374	6.4	2, Additional Rider		No	132306665
2504293	224	549079500	Leg	Syed	M	Sufian	QT41837Q	M	(718) 657-0838	10/14/1958	Queens Hospital	000	1801803903	Clean Air Car Svc & Parking (NYC)	Livery/QN-Med Appt out CMMA	A0100	TN	01/03/2018	01/03/2018	No	2	1		Mordarine @ daughter	(718) 657-0838	12.8	01/03/2018	Call	9520 63rd Rd	8639517 	Rego Park	NY	11374	01/03/2018	Call	19332 Foothill Ave	  main	Hollis	NY	11423	6.4			No	132306666
2504293	225	549079820	Leg	Syed	M	Sufian	QT41837Q	M	(929) 433-0432	10/14/1958	Queens Hospital	000	1801803903	Clean Air Car Svc & Parking (NYC)	Livery/QN-Med Appt out CMMA	A0100	TN	01/05/2018	01/05/2018	No	2	1			(929) 433-0432	17.8	01/05/2018	0800	19332 Foothill Ave	 	Hollis	NY	11423	01/05/2018	0900	4032 74th St	  MAINM ENTRANCED	Elmhurst	NY	11373	8.9	2, Additional Rider		No	132306704
2504293	226	549079820	Leg	Syed	M	Sufian	QT41837Q	M	(929) 433-0432	10/14/1958	Queens Hospital	000	1801803903	Clean Air Car Svc & Parking (NYC)	Livery/QN-Med Appt out CMMA	A0100	TN	01/05/2018	01/05/2018	No	2	1			(929) 433-0432	17.8	01/05/2018	Call	4032 74th St	 MAINM ENTRANCED	Elmhurst	NY	11373	01/05/2018	Call	19332 Foothill Ave	  	Hollis	NY	11423	8.9			No	132306705
2504293	227	549079820	Service	Syed	M	Sufian	QT41837Q	M	(929) 433-0432	10/14/1958	Queens Hospital	000	1801803903	Clean Air Car Svc & Parking (NYC)	Mileage-Livery in NYC	S0215		01/05/2018	01/05/2018	No	2	1																					Mileage-Livery in NYC	132306704
2504293	228	549079820	Service	Syed	M	Sufian	QT41837Q	M	(929) 433-0432	10/14/1958	Queens Hospital	000	1801803903	Clean Air Car Svc & Parking (NYC)	Mileage-Livery in NYC	S0215		01/05/2018	01/05/2018	No	2	1																					Mileage-Livery in NYC	132306705
2504293	229	549079950	Leg	Syed	M	Sufian	QT41837Q	M	(929) 433-0432	10/14/1958	Queens Hospital	000	1801803903	Clean Air Car Svc & Parking (NYC)	Livery/QN-Med Appt out CMMA	A0100	TN	01/06/2018	01/06/2018	No	2	1		mORDARINE @ DAUGHTER	(718) 657-0838	8.6	01/06/2018	0915	19332 Foothill Ave	 main	Hollis	NY	11423	01/06/2018	1015	2705 76th ave	  main	New Hyde Park	NY	11040	4.3	2, Additional Rider		No	132306721
2504293	230	549079950	Leg	Syed	M	Sufian	QT41837Q	M	(929) 433-0432	10/14/1958	Queens Hospital	000	1801803903	Clean Air Car Svc & Parking (NYC)	Livery/QN-Med Appt out CMMA	A0100	TN	01/06/2018	01/06/2018	No	2	1		mORDARINE @ DAUGHTER	(718) 657-0838	8.6	01/06/2018	Call	2705 76th ave	 main	New Hyde Park	NY	11040	01/06/2018	Call	19332 Foothill Ave	  main	Hollis	NY	11423	4.3			No	132306722
2504293	231	549079950	Service	Syed	M	Sufian	QT41837Q	M	(929) 433-0432	10/14/1958	Queens Hospital	000	1801803903	Clean Air Car Svc & Parking (NYC)	Tolls-Universal	A0170	CG	01/06/2018	01/06/2018	No	2	1																					Tolls-Universal	132306721
2504293	232	549079950	Service	Syed	M	Sufian	QT41837Q	M	(929) 433-0432	10/14/1958	Queens Hospital	000	1801803903	Clean Air Car Svc & Parking (NYC)	Mileage-Livery out of NYC	S0215	TN	01/06/2018	01/06/2018	No	2	1																					Mileage-Livery out of NYC	132306721
2504293	233	549079950	Service	Syed	M	Sufian	QT41837Q	M	(929) 433-0432	10/14/1958	Queens Hospital	000	1801803903	Clean Air Car Svc & Parking (NYC)	Mileage-Livery out of NYC	S0215	TN	01/06/2018	01/06/2018	No	2	1																					Mileage-Livery out of NYC	132306722
2504293	234	549080850	Leg	Syed	M	Sufian	QT41837Q	M	(929) 433-0432	10/14/1958	Queens Hospital	000	1801803903	Clean Air Car Svc & Parking (NYC)	Livery/QN-Med Appt out CMMA	A0100	TN	01/07/2018	01/07/2018	No	2	1		Mordarine @ daughter	(718) 657-0838	12.2	01/07/2018	1045	19332 Foothill Ave	 main entrance	Hollis	NY	11423	01/07/2018	1145	3907 Prince St	8632804 	Flushing	NY	11354	6.1	2, Additional Rider		No	132307157
2504293	235	549080850	Leg	Syed	M	Sufian	QT41837Q	M	(929) 433-0432	10/14/1958	Queens Hospital	000	1801803903	Clean Air Car Svc & Parking (NYC)	Livery/QN-Med Appt out CMMA	A0100	TN	01/07/2018	01/07/2018	No	2	1		Mordarine @ daughter	(718) 657-0838	12.2	01/07/2018	Call	3907 Prince St	8632804 	Flushing	NY	11354	01/07/2018	Call	19332 Foothill Ave	  main entrance	Hollis	NY	11423	6.1			No	132307158
2504293	236	549084160	Leg	Mohammed	M	Sufian	QT41817Y	M	7186570838	08/29/1989	Queens Hospital	000	1801803903	Clean Air Car Svc & Parking (NYC)	Livery/QN-Med Appt out CMMA	A0100	TN	01/02/2018	01/02/2018	No	2	1		monarine-sister	7186570838	17.8	01/02/2018	0915	19332 Foothill Ave	 	Hollis	NY	11423	01/02/2018	1015	4141 51st St	  	Woodside	NY	11377	8.9	plus 2		No	132307779
2504293	237	549084160	Leg	Mohammed	M	Sufian	QT41817Y	M	7186570838	08/29/1989	Queens Hospital	000	1801803903	Clean Air Car Svc & Parking (NYC)	Livery/QN-Med Appt out CMMA	A0100	TN	01/02/2018	01/02/2018	No	2	1		monarine-sister	7186570838	17.8	01/02/2018	CALL	4141 51st St	 	Woodside	NY	11377	01/02/2018	CALL	19332 Foothill Ave	  	Hollis	NY	11423	8.9			No	132307780
2504293	238	549084160	Service	Mohammed	M	Sufian	QT41817Y	M	7186570838	08/29/1989	Queens Hospital	000	1801803903	Clean Air Car Svc & Parking (NYC)	Mileage-Livery in NYC	S0215		01/02/2018	01/02/2018	No	2	1																					Mileage-Livery in NYC	132307779
2504293	239	549084160	Service	Mohammed	M	Sufian	QT41817Y	M	7186570838	08/29/1989	Queens Hospital	000	1801803903	Clean Air Car Svc & Parking (NYC)	Mileage-Livery in NYC	S0215		01/02/2018	01/02/2018	No	2	1																					Mileage-Livery in NYC	132307780
2504293	240	549084230	Leg	Mohammed	M	Sufian	QT41817Y	M	7186570838	08/29/1989	Queens Hospital	000	1801803903	Clean Air Car Svc & Parking (NYC)	Livery/QN-Med Appt out CMMA	A0100	TN	01/03/2018	01/03/2018	No	2	1		monarine-sister	7186570838	31.6	01/03/2018	0900	19332 Foothill Ave	 	Hollis	NY	11423	01/03/2018	1000	1470 Madison Ave	  	New York	NY	10029	15.8	plus 2		No	132307791
2504293	241	549084230	Leg	Mohammed	M	Sufian	QT41817Y	M	7186570838	08/29/1989	Queens Hospital	000	1801803903	Clean Air Car Svc & Parking (NYC)	Livery/QN-Med Appt out CMMA	A0100	TN	01/03/2018	01/03/2018	No	2	1		monarine-sister	7186570838	31.6	01/03/2018	CALL	1470 Madison Ave	 	New York	NY	10029	01/03/2018	CALL	19332 Foothill Ave	  	Hollis	NY	11423	15.8			No	132307792
2504293	242	549084230	Service	Mohammed	M	Sufian	QT41817Y	M	7186570838	08/29/1989	Queens Hospital	000	1801803903	Clean Air Car Svc & Parking (NYC)	Tolls-Universal	A0170	CG	01/03/2018	01/03/2018	No	2	1																					Tolls-Universal	132307791
2504293	243	549084230	Service	Mohammed	M	Sufian	QT41817Y	M	7186570838	08/29/1989	Queens Hospital	000	1801803903	Clean Air Car Svc & Parking (NYC)	Livery-Manhattan Surcharge	A0100	SC	01/03/2018	01/03/2018	No	2	1																					Livery-Manhattan Surcharge	132307791
2504293	244	549084230	Service	Mohammed	M	Sufian	QT41817Y	M	7186570838	08/29/1989	Queens Hospital	000	1801803903	Clean Air Car Svc & Parking (NYC)	Livery-Manhattan Surcharge	A0100	SC	01/03/2018	01/03/2018	No	2	1																					Livery-Manhattan Surcharge	132307792
2504293	245	549084230	Service	Mohammed	M	Sufian	QT41817Y	M	7186570838	08/29/1989	Queens Hospital	000	1801803903	Clean Air Car Svc & Parking (NYC)	Mileage-Livery in NYC	S0215		01/03/2018	01/03/2018	No	2	1																					Mileage-Livery in NYC	132307791
2504293	246	549084230	Service	Mohammed	M	Sufian	QT41817Y	M	7186570838	08/29/1989	Queens Hospital	000	1801803903	Clean Air Car Svc & Parking (NYC)	Mileage-Livery in NYC	S0215		01/03/2018	01/03/2018	No	2	1																					Mileage-Livery in NYC	132307792
2504293	247	549084570	Leg	Mohammed	M	Sufian	QT41817Y	M	(929) 433-0432	08/29/1989	Queens Hospital	000	1801803903	Clean Air Car Svc & Parking (NYC)	Livery/QN-Med Appt out CMMA	A0100	TN	01/05/2018	01/05/2018	No	2	1		monarine-sister	7186570838	17.8	01/05/2018	0930	19332 Foothill Ave	 	Hollis	NY	11423	01/05/2018	1030	4032 74th St	  	Elmhurst	NY	11373	8.9	plus 2		No	132307866
2504293	248	549084570	Leg	Mohammed	M	Sufian	QT41817Y	M	(929) 433-0432	08/29/1989	Queens Hospital	000	1801803903	Clean Air Car Svc & Parking (NYC)	Livery/QN-Med Appt out CMMA	A0100	TN	01/05/2018	01/05/2018	No	2	1		monarine-sister	7186570838	17.8	01/05/2018	CALL	4032 74th St	 	Elmhurst	NY	11373	01/05/2018	CALL	19332 Foothill Ave	  	Hollis	NY	11423	8.9			No	132307867
2504293	249	549084570	Service	Mohammed	M	Sufian	QT41817Y	M	(929) 433-0432	08/29/1989	Queens Hospital	000	1801803903	Clean Air Car Svc & Parking (NYC)	Mileage-Livery in NYC	S0215		01/05/2018	01/05/2018	No	2	1																					Mileage-Livery in NYC	132307866
2504293	250	549084570	Service	Mohammed	M	Sufian	QT41817Y	M	(929) 433-0432	08/29/1989	Queens Hospital	000	1801803903	Clean Air Car Svc & Parking (NYC)	Mileage-Livery in NYC	S0215		01/05/2018	01/05/2018	No	2	1																					Mileage-Livery in NYC	132307867
2504293	251	549084640	Leg	Mohammed	M	Sufian	QT41817Y	M	(929) 433-0432	08/29/1989	Queens Hospital	000	1801803903	Clean Air Car Svc & Parking (NYC)	Livery/QN-Med Appt out CMMA	A0100	TN	01/06/2018	01/06/2018	No	2	1		monarine-sister	7186570838	12.2	01/06/2018	1030	19332 Foothill Ave	 	Hollis	NY	11423	01/06/2018	1130	3907 Prince St	  	Flushing	NY	11354	6.1	plus 2		No	132307876
2504293	252	549084640	Leg	Mohammed	M	Sufian	QT41817Y	M	(929) 433-0432	08/29/1989	Queens Hospital	000	1801803903	Clean Air Car Svc & Parking (NYC)	Livery/QN-Med Appt out CMMA	A0100	TN	01/06/2018	01/06/2018	No	2	1		monarine-sister	7186570838	12.2	01/06/2018	CALL	3907 Prince St	 	Flushing	NY	11354	01/06/2018	CALL	19332 Foothill Ave	  	Hollis	NY	11423	6.1			No	132307877
2504293	253	549085960	Leg	Mohammed	M	Sufian	QT41817Y	M	(929) 433-0432	08/29/1989	Queens Hospital	000	1801803903	Clean Air Car Svc & Parking (NYC)	Livery/QN-Med Appt out CMMA	A0100	TN	01/07/2018	01/07/2018	No	2	1		monarine-sister	7186570838	12.2	01/07/2018	1030	19332 Foothill Ave	 	Hollis	NY	11423	01/07/2018	1130	3907 Prince St	  	Flushing	NY	11354	6.1	plus 2		No	132307936
2504293	254	549085960	Leg	Mohammed	M	Sufian	QT41817Y	M	(929) 433-0432	08/29/1989	Queens Hospital	000	1801803903	Clean Air Car Svc & Parking (NYC)	Livery/QN-Med Appt out CMMA	A0100	TN	01/07/2018	01/07/2018	No	2	1		monarine-sister	7186570838	12.2	01/07/2018	CALL	3907 Prince St	 	Flushing	NY	11354	01/07/2018	CALL	19332 Foothill Ave	  	Hollis	NY	11423	6.1			No	132307937
2504293	255	549283150	Leg	Elizabeth		Mejia	WA51950F	F	(347) 670-9092	02/03/1985	Queens Hospital	000	1801803903	Clean Air Car Svc & Parking (NYC)	Livery/QN-Med Appt out CMMA	A0100	TN	01/12/2018	01/12/2018	No	2	1		self	(347) 670-9092	23.4	01/12/2018	0930	90-36 144th Pl                A1 Ca	 	Jamaica	NY	11435	01/12/2018	1030	240 E 38th St	- 	New York	NY	10016	11.7	enrl uses a cane, Additional Rider		No	132345209
2504293	256	549283150	Leg	Elizabeth		Mejia	WA51950F	F	(347) 670-9092	02/03/1985	Queens Hospital	000	1801803903	Clean Air Car Svc & Parking (NYC)	Livery/QN-Med Appt out CMMA	A0100	TN	01/12/2018	01/12/2018	No	2	1		self	(347) 670-9092	23.4	01/12/2018	Call	240 E 38th St	- 	New York	NY	10016	01/12/2018	Call	90-36 144th Pl                A1 Ca	  	Jamaica	NY	11435	11.7			No	132345210
2504293	257	549283150	Service	Elizabeth		Mejia	WA51950F	F	(347) 670-9092	02/03/1985	Queens Hospital	000	1801803903	Clean Air Car Svc & Parking (NYC)	Mileage-Livery in NYC	S0215		01/12/2018	01/12/2018	No	2	1																					Mileage-Livery in NYC	132345209
2504293	258	549283150	Service	Elizabeth		Mejia	WA51950F	F	(347) 670-9092	02/03/1985	Queens Hospital	000	1801803903	Clean Air Car Svc & Parking (NYC)	Mileage-Livery in NYC	S0215		01/12/2018	01/12/2018	No	2	1																					Mileage-Livery in NYC	132345210
2504293	259	549283150	Service	Elizabeth		Mejia	WA51950F	F	(347) 670-9092	02/03/1985	Queens Hospital	000	1801803903	Clean Air Car Svc & Parking (NYC)	Tolls-Universal	A0170	CG	01/12/2018	01/12/2018	No	2	1																					Tolls-Universal	132345209
2504293	260	549283150	Service	Elizabeth		Mejia	WA51950F	F	(347) 670-9092	02/03/1985	Queens Hospital	000	1801803903	Clean Air Car Svc & Parking (NYC)	Livery-Manhattan Surcharge	A0100	SC	01/12/2018	01/12/2018	No	2	1																					Livery-Manhattan Surcharge	132345209
2504293	261	549283150	Service	Elizabeth		Mejia	WA51950F	F	(347) 670-9092	02/03/1985	Queens Hospital	000	1801803903	Clean Air Car Svc & Parking (NYC)	Livery-Manhattan Surcharge	A0100	SC	01/12/2018	01/12/2018	No	2	1																					Livery-Manhattan Surcharge	132345210
2504293	262	549285300	Leg	Elizabeth		Mejia	WA51950F	F	(347) 670-9092	02/03/1985	Queens Hospital	000	1801803903	Clean Air Car Svc & Parking (NYC)	Livery/QN-Med Appt in CMMA	A0100		01/02/2018	01/02/2018	Yes	4	1		self	(347) 670-9092	6.0	01/02/2018	1200	90-36 144th Pl                A1 Ca	 Home	Jamaica	NY	11435	01/02/2018	1300	16110 Jamaica Ave	8639796 	Jamaica	NY	11432	.9	S/O Tues., Additional Rider		No	132345932
2504293	263	549285300	Leg	Elizabeth		Mejia	WA51950F	F	(347) 670-9092	02/03/1985	Queens Hospital	000	1801803903	Clean Air Car Svc & Parking (NYC)	Livery/QN-Med Appt in CMMA	A0100		01/02/2018	01/02/2018	Yes	4	1		self	(347) 670-9092	6.0	01/02/2018	Call	16110 Jamaica Ave	8639796 	Jamaica	NY	11432	01/02/2018		90-36 144th Pl                A1 Ca	  Home	Jamaica	NY	11435	.9			No	132345933
2504293	264	549285300	Leg	Elizabeth		Mejia	WA51950F	F	(347) 670-9092	02/03/1985	Queens Hospital	000	1801803903	Clean Air Car Svc & Parking (NYC)	Livery/QN-Med Appt in CMMA	A0100		01/02/2018	01/02/2018	Yes	4	1		self	(347) 670-9092	6.0	01/02/2018	1530	90-36 144th Pl                A1 Ca	 	Jamaica	NY	11435	01/02/2018	1630	15031 Union Tpke	  	Flushing	NY	11367	2.1			No	133812007
2504293	265	549285300	Leg	Elizabeth		Mejia	WA51950F	F	(347) 670-9092	02/03/1985	Queens Hospital	000	1801803903	Clean Air Car Svc & Parking (NYC)	Livery/QN-Med Appt in CMMA	A0100		01/02/2018	01/02/2018	Yes	4	1		self	(347) 670-9092	6.0	01/02/2018	Call	15031 Union Tpke	 	Flushing	NY	11367	01/02/2018	Call	90-36 144th Pl                A1 Ca	  	Jamaica	NY	11435	2.1			No	133812008
2504293	266	549285510	Leg	Elizabeth		Mejia	WA51950F	F	(347) 670-9092	02/03/1985	Queens Hospital	000	1801803903	Clean Air Car Svc & Parking (NYC)	Livery/QN-Med Appt in CMMA	A0100		01/09/2018	01/09/2018	Yes	4	1		self	(347) 670-9092	6.0	01/09/2018	1200	90-36 144th Pl                A1 Ca	 Home	Jamaica	NY	11435	01/09/2018	1300	16110 Jamaica Ave	8639796 	Jamaica	NY	11432	.9	S/O Tues., Additional Rider		No	132345934
2504293	267	549285510	Leg	Elizabeth		Mejia	WA51950F	F	(347) 670-9092	02/03/1985	Queens Hospital	000	1801803903	Clean Air Car Svc & Parking (NYC)	Livery/QN-Med Appt in CMMA	A0100		01/09/2018	01/09/2018	Yes	4	1		self	(347) 670-9092	6.0	01/09/2018	Call	16110 Jamaica Ave	8639796 	Jamaica	NY	11432	01/09/2018		90-36 144th Pl                A1 Ca	  Home	Jamaica	NY	11435	.9			No	132345935
2504293	268	549285510	Leg	Elizabeth		Mejia	WA51950F	F	(347) 670-9092	02/03/1985	Queens Hospital	000	1801803903	Clean Air Car Svc & Parking (NYC)	Livery/QN-Med Appt in CMMA	A0100		01/09/2018	01/09/2018	Yes	4	1		self	(347) 670-9092	6.0	01/09/2018	1530	90-36 144th Pl                A1 Ca	 	Jamaica	NY	11435	01/09/2018	1630	15031 Union Tpke	  main	Flushing	NY	11367	2.1	Additional Rider		No	135751592
2504293	269	549285510	Leg	Elizabeth		Mejia	WA51950F	F	(347) 670-9092	02/03/1985	Queens Hospital	000	1801803903	Clean Air Car Svc & Parking (NYC)	Livery/QN-Med Appt in CMMA	A0100		01/09/2018	01/09/2018	Yes	4	1		self	(347) 670-9092	6.0	01/09/2018	Call	15031 Union Tpke	 main	Flushing	NY	11367	01/09/2018	Call	90-36 144th Pl                A1 Ca	  	Jamaica	NY	11435	2.1			No	135751593
2504293	270	549285520	Leg	Elizabeth		Mejia	WA51950F	F	(347) 670-9092	02/03/1985	Queens Hospital	000	1801803903	Clean Air Car Svc & Parking (NYC)	Livery/QN-Med Appt in CMMA	A0100		01/16/2018	01/16/2018	Yes	2	1		self	(347) 670-9092	1.8	01/16/2018	1200	90-36 144th Pl                A1 Ca	 Home	Jamaica	NY	11435	01/16/2018	1300	16110 Jamaica Ave	8639796 	Jamaica	NY	11432	.9	S/O Tues., Additional Rider		No	132345936
2504293	271	549285520	Leg	Elizabeth		Mejia	WA51950F	F	(347) 670-9092	02/03/1985	Queens Hospital	000	1801803903	Clean Air Car Svc & Parking (NYC)	Livery/QN-Med Appt in CMMA	A0100		01/16/2018	01/16/2018	Yes	2	1		self	(347) 670-9092	1.8	01/16/2018	Call	16110 Jamaica Ave	8639796 	Jamaica	NY	11432	01/16/2018		90-36 144th Pl                A1 Ca	  Home	Jamaica	NY	11435	.9			No	132345937
2504293	272	549285530	Leg	Elizabeth		Mejia	WA51950F	F	(347) 670-9092	02/03/1985	Queens Hospital	000	1801803903	Clean Air Car Svc & Parking (NYC)	Livery/QN-Med Appt in CMMA	A0100		01/23/2018	01/23/2018	Yes	2	1		self	(347) 670-9092	1.8	01/23/2018	1200	90-36 144th Pl                A1 Ca	 Home	Jamaica	NY	11435	01/23/2018	1300	16110 Jamaica Ave	8639796 	Jamaica	NY	11432	.9	S/O Tues., Additional Rider		No	132345938
2504293	273	549285530	Leg	Elizabeth		Mejia	WA51950F	F	(347) 670-9092	02/03/1985	Queens Hospital	000	1801803903	Clean Air Car Svc & Parking (NYC)	Livery/QN-Med Appt in CMMA	A0100		01/23/2018	01/23/2018	Yes	2	1		self	(347) 670-9092	1.8	01/23/2018	Call	16110 Jamaica Ave	8639796 	Jamaica	NY	11432	01/23/2018		90-36 144th Pl                A1 Ca	  Home	Jamaica	NY	11435	.9			No	132345939
2504293	274	549285540	Leg	Elizabeth		Mejia	WA51950F	F	(347) 670-9092	02/03/1985	Queens Hospital	000	1801803903	Clean Air Car Svc & Parking (NYC)	Livery/QN-Med Appt in CMMA	A0100		01/30/2018	01/30/2018	Yes	2	1		self	(347) 670-9092	1.8	01/30/2018	1200	90-36 144th Pl                A1 Ca	 Home	Jamaica	NY	11435	01/30/2018	1300	16110 Jamaica Ave	8639796 	Jamaica	NY	11432	.9	S/O Tues., Additional Rider		No	132345940
2504293	275	549285540	Leg	Elizabeth		Mejia	WA51950F	F	(347) 670-9092	02/03/1985	Queens Hospital	000	1801803903	Clean Air Car Svc & Parking (NYC)	Livery/QN-Med Appt in CMMA	A0100		01/30/2018	01/30/2018	Yes	2	1		self	(347) 670-9092	1.8	01/30/2018	Call	16110 Jamaica Ave	8639796 	Jamaica	NY	11432	01/30/2018		90-36 144th Pl                A1 Ca	  Home	Jamaica	NY	11435	.9			No	132345941
2504293	276	549609930	Leg	Swatiben	A	Vora	NC76974F	F	(516) 455-3952	05/12/1958	Akhtar Sajjad MD	000000000	1912919457	Clean Air Car Svc & Parking (NYC)	Livery/QN-Med Appt in CMMA	A0100		01/02/2018	01/02/2018	Yes	2	1		self	(516) 455-3952	2.8	01/02/2018	1500	3514 65th St	FL 1 	Woodside	NY	11377	01/02/2018	1600	3353 82nd St	  main	Jackson Heights	NY	11372	1.4	S/O Tue , Thru ., Additional Rider		No	131941246
2504293	277	549609930	Leg	Swatiben	A	Vora	NC76974F	F	(516) 455-3952	05/12/1958	Akhtar Sajjad MD	000000000	1912919457	Clean Air Car Svc & Parking (NYC)	Livery/QN-Med Appt in CMMA	A0100		01/02/2018	01/02/2018	Yes	2	1		self	(516) 455-3952	2.8	01/02/2018	Call	3353 82nd St	 main	Jackson Heights	NY	11372	01/02/2018		3514 65th St	FL 1 	Woodside	NY	11377	1.4			No	131941247
2504293	278	549609960	Leg	Swatiben	A	Vora	NC76974F	F	(516) 455-3952	05/12/1958	Akhtar Sajjad MD	000000000	1912919457	Clean Air Car Svc & Parking (NYC)	Livery/QN-Med Appt in CMMA	A0100		01/09/2018	01/09/2018	Yes	2	1		self	(516) 455-3952	2.8	01/09/2018	1500	3514 65th St	FL 1 	Woodside	NY	11377	01/09/2018	1600	3353 82nd St	  main	Jackson Heights	NY	11372	1.4	S/O Tue , Thru ., Additional Rider		No	131941250
2504293	279	549609960	Leg	Swatiben	A	Vora	NC76974F	F	(516) 455-3952	05/12/1958	Akhtar Sajjad MD	000000000	1912919457	Clean Air Car Svc & Parking (NYC)	Livery/QN-Med Appt in CMMA	A0100		01/09/2018	01/09/2018	Yes	2	1		self	(516) 455-3952	2.8	01/09/2018	Call	3353 82nd St	 main	Jackson Heights	NY	11372	01/09/2018		3514 65th St	FL 1 	Woodside	NY	11377	1.4			No	131941251
2504293	280	549610020	Leg	Swatiben	A	Vora	NC76974F	F	(516) 455-3952	05/12/1958	Akhtar Sajjad MD	000000000	1912919457	Clean Air Car Svc & Parking (NYC)	Livery/QN-Med Appt in CMMA	A0100		01/25/2018	01/25/2018	Yes	2	1		self	(516) 455-3952	2.8	01/25/2018	1500	3514 65th St	FL 1 	Woodside	NY	11377	01/25/2018	1600	3353 82nd St	  main	Jackson Heights	NY	11372	1.4	S/O Tue , Thru ., Additional Rider		No	131941260
2504293	281	549610020	Leg	Swatiben	A	Vora	NC76974F	F	(516) 455-3952	05/12/1958	Akhtar Sajjad MD	000000000	1912919457	Clean Air Car Svc & Parking (NYC)	Livery/QN-Med Appt in CMMA	A0100		01/25/2018	01/25/2018	Yes	2	1		self	(516) 455-3952	2.8	01/25/2018	Call	3353 82nd St	 main	Jackson Heights	NY	11372	01/25/2018		3514 65th St	FL 1 	Woodside	NY	11377	1.4			No	131941261
2504293	282	549854370	Leg	Reshma		Maharaj	KD54352J	F	(347) 500-4614	11/06/1980	Mcdonald Annmarie		1003976341	Clean Air Car Svc & Parking (NYC)	Livery/QN-Med Appt out CMMA	A0100	TN	01/02/2018	01/02/2018	No	2	1		self	(347) 500-4614	35.2	01/02/2018	0600	10459 121st St	 -	South Richmond Hill	NY	11419	01/02/2018	0700	622 W 168th St	  -	New York	NY	10032	17.6	s/o tues thurs and sat		No	132484055
2504293	283	549854370	Leg	Reshma		Maharaj	KD54352J	F	(347) 500-4614	11/06/1980	Mcdonald Annmarie		1003976341	Clean Air Car Svc & Parking (NYC)	Livery/QN-Med Appt out CMMA	A0100	TN	01/02/2018	01/02/2018	No	2	1		self	(347) 500-4614	35.2	01/02/2018	Call	622 W 168th St	 -	New York	NY	10032	01/02/2018	Call	10459 121st St	  -	South Richmond Hill	NY	11419	17.6	s/o tues thurs and sat		No	132484056
2504293	284	549854370	Service	Reshma		Maharaj	KD54352J	F	(347) 500-4614	11/06/1980	Mcdonald Annmarie		1003976341	Clean Air Car Svc & Parking (NYC)	Mileage-Livery in NYC	S0215		01/02/2018	01/02/2018	No	2	1																					Mileage-Livery in NYC	132484055
2504293	285	549854370	Service	Reshma		Maharaj	KD54352J	F	(347) 500-4614	11/06/1980	Mcdonald Annmarie		1003976341	Clean Air Car Svc & Parking (NYC)	Mileage-Livery in NYC	S0215		01/02/2018	01/02/2018	No	2	1																					Mileage-Livery in NYC	132484056
2504293	286	549854370	Service	Reshma		Maharaj	KD54352J	F	(347) 500-4614	11/06/1980	Mcdonald Annmarie		1003976341	Clean Air Car Svc & Parking (NYC)	Tolls-Universal	A0170	CG	01/02/2018	01/02/2018	No	2	1																					Tolls-Universal	132484055
2504293	287	549857980	Leg	Reshma		Maharaj	KD54352J	F	(347) 500-4614	11/06/1980	Mcdonald Annmarie		1003976341	Clean Air Car Svc & Parking (NYC)	Livery/QN-Med Appt out CMMA	A0100	TN	01/03/2018	01/03/2018	No	2	1		self	(347) 500-4614	36.2	01/03/2018	0900	10459 121st St	 	South Richmond Hill	NY	11419	01/03/2018	1000	177 Fort Washington Ave	  	New York	NY	10032	18.1			No	132485068
2504293	288	549857980	Leg	Reshma		Maharaj	KD54352J	F	(347) 500-4614	11/06/1980	Mcdonald Annmarie		1003976341	Clean Air Car Svc & Parking (NYC)	Livery/QN-Med Appt out CMMA	A0100	TN	01/03/2018	01/03/2018	No	2	1		self	(347) 500-4614	36.2	01/03/2018	Call	177 Fort Washington Ave	 	New York	NY	10032	01/03/2018	Call	10459 121st St	  	South Richmond Hill	NY	11419	18.1			No	132485069
2504293	289	549857980	Service	Reshma		Maharaj	KD54352J	F	(347) 500-4614	11/06/1980	Mcdonald Annmarie		1003976341	Clean Air Car Svc & Parking (NYC)	Mileage-Livery in NYC	S0215		01/03/2018	01/03/2018	No	2	1																					Mileage-Livery in NYC	132485068
2504293	290	549857980	Service	Reshma		Maharaj	KD54352J	F	(347) 500-4614	11/06/1980	Mcdonald Annmarie		1003976341	Clean Air Car Svc & Parking (NYC)	Mileage-Livery in NYC	S0215		01/03/2018	01/03/2018	No	2	1																					Mileage-Livery in NYC	132485069
2504293	291	549857980	Service	Reshma		Maharaj	KD54352J	F	(347) 500-4614	11/06/1980	Mcdonald Annmarie		1003976341	Clean Air Car Svc & Parking (NYC)	Tolls-Universal	A0170	CG	01/03/2018	01/03/2018	No	2	1																					Tolls-Universal	132485068
2504293	292	550046820	Leg	Traceyann		Morgan	TE05142U	F	(929) 355-4909	08/07/1970	QUEENS MEDICAL ASSOCIATES		1932188869	Clean Air Car Svc & Parking (NYC)	Livery/BK-Med Appt out CMMA	A0100	TN	01/09/2018	01/09/2018	No	2	1		self	(929) 355-4909	18.8	01/09/2018	1300	1062 Elton St	Apt 508 	Brooklyn	NY	11239	01/09/2018	1400	17660 Union Tpke	  ste 360	Fresh Meadows	NY	11366	9.4			No	132533733
2504293	293	550046820	Leg	Traceyann		Morgan	TE05142U	F	(929) 355-4909	08/07/1970	QUEENS MEDICAL ASSOCIATES		1932188869	Clean Air Car Svc & Parking (NYC)	Livery/BK-Med Appt out CMMA	A0100	TN	01/09/2018	01/09/2018	No	2	1		self	(929) 355-4909	18.8	01/09/2018	Call	17660 Union Tpke	 ste 360	Fresh Meadows	NY	11366	01/09/2018	Call	1062 Elton St	Apt 508 	Brooklyn	NY	11239	9.4			No	132533734
2504293	294	550046820	Service	Traceyann		Morgan	TE05142U	F	(929) 355-4909	08/07/1970	QUEENS MEDICAL ASSOCIATES		1932188869	Clean Air Car Svc & Parking (NYC)	Mileage-Livery in NYC	S0215		01/09/2018	01/09/2018	No	2	1																					Mileage-Livery in NYC	132533733
2504293	295	550046820	Service	Traceyann		Morgan	TE05142U	F	(929) 355-4909	08/07/1970	QUEENS MEDICAL ASSOCIATES		1932188869	Clean Air Car Svc & Parking (NYC)	Mileage-Livery in NYC	S0215		01/09/2018	01/09/2018	No	2	1																					Mileage-Livery in NYC	132533734
2504293	296	550046820	Service	Traceyann		Morgan	TE05142U	F	(929) 355-4909	08/07/1970	QUEENS MEDICAL ASSOCIATES		1932188869	Clean Air Car Svc & Parking (NYC)	Tolls-Universal	A0170	CG	01/09/2018	01/09/2018	No	2	1																					Tolls-Universal	132533733
2504293	297	550056500	Leg	Abu	M	Ishtiaq	UD62972K	M	6464369307	12/04/1997	Akita Francis		1063493732	Clean Air Car Svc & Parking (NYC)	Livery/QN-Med Appt out CMMA	A0100	TN	01/09/2018	01/09/2018	No	2	1		fatima      mom	6464369307	10.2	01/09/2018	1400	3230 77th St	 	East Elmhurst	NY	11370	01/09/2018	1500	1305 York Ave	  	New York	NY	10021	5.1	1 Additional rider(s). 1 additional rider		No	132537160
2504293	298	550056500	Leg	Abu	M	Ishtiaq	UD62972K	M	6464369307	12/04/1997	Akita Francis		1063493732	Clean Air Car Svc & Parking (NYC)	Livery/QN-Med Appt out CMMA	A0100	TN	01/09/2018	01/09/2018	No	2	1		fatima      mom	6464369307	10.2	01/09/2018	Call	1305 York Ave	 	New York	NY	10021	01/09/2018	Call	3230 77th St	  	East Elmhurst	NY	11370	5.1	1 Additional rider(s). 1 additional rider		No	132537162
2504293	299	550056500	Service	Abu	M	Ishtiaq	UD62972K	M	6464369307	12/04/1997	Akita Francis		1063493732	Clean Air Car Svc & Parking (NYC)	Tolls-Universal	A0170	CG	01/09/2018	01/09/2018	No	2	1																					Tolls-Universal	132537160
2504293	300	550056500	Service	Abu	M	Ishtiaq	UD62972K	M	6464369307	12/04/1997	Akita Francis		1063493732	Clean Air Car Svc & Parking (NYC)	Livery-Manhattan Surcharge	A0100	SC	01/09/2018	01/09/2018	No	2	1																					Livery-Manhattan Surcharge	132537160
2504293	301	550056500	Service	Abu	M	Ishtiaq	UD62972K	M	6464369307	12/04/1997	Akita Francis		1063493732	Clean Air Car Svc & Parking (NYC)	Livery-Manhattan Surcharge	A0100	SC	01/09/2018	01/09/2018	No	2	1																					Livery-Manhattan Surcharge	132537162
2504293	302	550067040	Leg	Abu	M	Ishtiaq	UD62972K	M	(646) 436-9307	12/04/1997	Akita Francis		1063493732	Clean Air Car Svc & Parking (NYC)	Livery/QN-Med Appt out CMMA	A0100	TN	01/05/2018	01/05/2018	No	2	1		mother	(646) 436-9307	10.2	01/05/2018	1300	3230 77th St	Fl 1 	East Elmhurst	NY	11370	01/05/2018	1330	520 E 70th St	  main	New York	NY	10021	5.1	mother, Additional Rider		No	132541331
2504293	303	550067040	Leg	Abu	M	Ishtiaq	UD62972K	M	(646) 436-9307	12/04/1997	Akita Francis		1063493732	Clean Air Car Svc & Parking (NYC)	Livery/QN-Med Appt out CMMA	A0100	TN	01/05/2018	01/05/2018	No	2	1		mother	(646) 436-9307	10.2	01/05/2018	Call	520 E 70th St	 main	New York	NY	10021	01/05/2018	Call	3230 77th St	Fl 1 	East Elmhurst	NY	11370	5.1			No	132541332
2504293	304	550067040	Service	Abu	M	Ishtiaq	UD62972K	M	(646) 436-9307	12/04/1997	Akita Francis		1063493732	Clean Air Car Svc & Parking (NYC)	Tolls-Universal	A0170	CG	01/05/2018	01/05/2018	No	2	1																					Tolls-Universal	132541331
2504293	305	550067040	Service	Abu	M	Ishtiaq	UD62972K	M	(646) 436-9307	12/04/1997	Akita Francis		1063493732	Clean Air Car Svc & Parking (NYC)	Livery-Manhattan Surcharge	A0100	SC	01/05/2018	01/05/2018	No	2	1																					Livery-Manhattan Surcharge	132541331
2504293	306	550067040	Service	Abu	M	Ishtiaq	UD62972K	M	(646) 436-9307	12/04/1997	Akita Francis		1063493732	Clean Air Car Svc & Parking (NYC)	Livery-Manhattan Surcharge	A0100	SC	01/05/2018	01/05/2018	No	2	1																					Livery-Manhattan Surcharge	132541332
2504293	307	550076180	Leg	Abu	M	Ishtiaq	UD62972K	M	(646) 436-9307	12/04/1997	Akita Francis		1063493732	Clean Air Car Svc & Parking (NYC)	Livery/QN-Med Appt out CMMA	A0100	TN	01/23/2018	01/23/2018	No	2	1		mother	(646) 436-9307	10.2	01/23/2018	0900	3230 77th St	Fl 1 	East Elmhurst	NY	11370	01/23/2018	0930	505 E 70th St	  main	New York	NY	10021	5.1	moter, Additional Rider		No	132542802
2504293	308	550076180	Leg	Abu	M	Ishtiaq	UD62972K	M	(646) 436-9307	12/04/1997	Akita Francis		1063493732	Clean Air Car Svc & Parking (NYC)	Livery/QN-Med Appt out CMMA	A0100	TN	01/23/2018	01/23/2018	No	2	1		mother	(646) 436-9307	10.2	01/23/2018	Call	505 E 70th St	 main	New York	NY	10021	01/23/2018	Call	3230 77th St	Fl 1 	East Elmhurst	NY	11370	5.1			No	132542803
2504293	309	550076180	Service	Abu	M	Ishtiaq	UD62972K	M	(646) 436-9307	12/04/1997	Akita Francis		1063493732	Clean Air Car Svc & Parking (NYC)	Tolls-Universal	A0170	CG	01/23/2018	01/23/2018	No	2	1																					Tolls-Universal	132542802
2504293	310	550076180	Service	Abu	M	Ishtiaq	UD62972K	M	(646) 436-9307	12/04/1997	Akita Francis		1063493732	Clean Air Car Svc & Parking (NYC)	Livery-Manhattan Surcharge	A0100	SC	01/23/2018	01/23/2018	No	2	1																					Livery-Manhattan Surcharge	132542802
2504293	311	550076180	Service	Abu	M	Ishtiaq	UD62972K	M	(646) 436-9307	12/04/1997	Akita Francis		1063493732	Clean Air Car Svc & Parking (NYC)	Livery-Manhattan Surcharge	A0100	SC	01/23/2018	01/23/2018	No	2	1																					Livery-Manhattan Surcharge	132542803
2504293	312	550218350	Leg	Ivan		Zheng	MV14162D	M	(646) 220-8576	11/04/2013	Queens Hospital	000	1801803903	Clean Air Car Svc & Parking (NYC)	Livery/QN-Med Appt out CMMA	A0100	TN	01/02/2018	01/02/2018	No	2	1		Lichiying-Mother	(646) 220-8576	15.4	01/02/2018	0900	14443 38th Ave	 	Flushing	NY	11354	01/02/2018	1000	26901 76th Ave	  Main	New Hyde Park	NY	11040	7.7	Enrollee will bring a carseat also Please DO Not sign the driver from last time . Additional Rider		No	132572089
2504293	313	550218350	Leg	Ivan		Zheng	MV14162D	M	(646) 220-8576	11/04/2013	Queens Hospital	000	1801803903	Clean Air Car Svc & Parking (NYC)	Livery/QN-Med Appt out CMMA	A0100	TN	01/02/2018	01/02/2018	No	2	1		Lichiying-Mother	(646) 220-8576	15.4	01/02/2018	1230	26901 76th Ave	 Main	New Hyde Park	NY	11040	01/02/2018	Call	14443 38th Ave	  	Flushing	NY	11354	7.7			No	132572090
2504293	314	550860140	Leg	Ke	Y	Tan	ST57575K	M	(212) 732-4977	11/16/2000	Queens Hospital	000	1801803903	Clean Air Car Svc & Parking (NYC)	Livery/QN-Med Appt in CMMA	A0100		01/11/2018	01/11/2018	No	2	1		Yun @ Dr. Wangs' Office	718-886-1212	5.8	01/11/2018	1430	20104 33rd Ave	# 4A 	Bayside	NY	11361	01/11/2018	1530	13626 37th Ave	  Main Entrance	Flushing	NY	11354	2.9	Additional Rider		No	132711950
2504293	315	550860140	Leg	Ke	Y	Tan	ST57575K	M	(212) 732-4977	11/16/2000	Queens Hospital	000	1801803903	Clean Air Car Svc & Parking (NYC)	Livery/QN-Med Appt in CMMA	A0100		01/11/2018	01/11/2018	No	2	1		Yun @ Dr. Wangs' Office	718-886-1212	5.8	01/11/2018	Call	13626 37th Ave	 Main Entrance	Flushing	NY	11354	01/11/2018	Call	20104 33rd Ave	# 4A 	Bayside	NY	11361	2.9			No	132711951
2504293	316	550863170	Leg	Ke	Y	Tan	ST57575K	M	(212) 732-4977	11/16/2000	Queens Hospital	000	1801803903	Clean Air Car Svc & Parking (NYC)	Livery/QN-Med Appt in CMMA	A0100		01/25/2018	01/25/2018	No	2	1		Yun @ Dr. Wangs' Office	718-886-1212	5.8	01/25/2018	1530	20104 33rd Ave	# 4A 	Bayside	NY	11361	01/25/2018	1630	13626 37th Ave	  Main Entrance	Flushing	NY	11354	2.9	Additional Rider		No	132712288
2504293	317	550863170	Leg	Ke	Y	Tan	ST57575K	M	(212) 732-4977	11/16/2000	Queens Hospital	000	1801803903	Clean Air Car Svc & Parking (NYC)	Livery/QN-Med Appt in CMMA	A0100		01/25/2018	01/25/2018	No	2	1		Yun @ Dr. Wangs' Office	718-886-1212	5.8	01/25/2018	Call	13626 37th Ave	 Main Entrance	Flushing	NY	11354	01/25/2018	Call	20104 33rd Ave	# 4A 	Bayside	NY	11361	2.9			No	132712289
2504293	318	550865550	Leg	Ke	Y	Tan	ST57575K	M	(212) 732-4977	11/16/2000	Queens Hospital	000	1801803903	Clean Air Car Svc & Parking (NYC)	Livery/QN-Med Appt in CMMA	A0100		01/06/2018	01/06/2018	No	2	1		Yun @ Dr. Wangs' Office	718-886-1212	6.2	01/06/2018	1300	20104 33rd Ave	# 4A 	Bayside	NY	11361	01/06/2018	1400	13743 45th Ave	  Main Entrance	Flushing	NY	11355	3.1	Additional Rider		No	132712460
2504293	319	550865550	Leg	Ke	Y	Tan	ST57575K	M	(212) 732-4977	11/16/2000	Queens Hospital	000	1801803903	Clean Air Car Svc & Parking (NYC)	Livery/QN-Med Appt in CMMA	A0100		01/06/2018	01/06/2018	No	2	1		Yun @ Dr. Wangs' Office	718-886-1212	6.2	01/06/2018	Call	13743 45th Ave	 Main Entrance	Flushing	NY	11355	01/06/2018	Call	20104 33rd Ave	# 4A 	Bayside	NY	11361	3.1			No	132713185
2504293	320	550867410	Leg	Ke	Y	Tan	ST57575K	M	(212) 732-4977	11/16/2000	Queens Hospital	000	1801803903	Clean Air Car Svc & Parking (NYC)	Livery/QN-Med Appt in CMMA	A0100		01/20/2018	01/20/2018	No	2	1		Yun @ Dr. Wangs' Office	718-886-1212	6.2	01/20/2018	1300	20104 33rd Ave	# 4A 	Bayside	NY	11361	01/20/2018	1400	13743 45th Ave	  Main Entrance	Flushing	NY	11355	3.1	Additional Rider		No	132713705
2504293	321	550867410	Leg	Ke	Y	Tan	ST57575K	M	(212) 732-4977	11/16/2000	Queens Hospital	000	1801803903	Clean Air Car Svc & Parking (NYC)	Livery/QN-Med Appt in CMMA	A0100		01/20/2018	01/20/2018	No	2	1		Yun @ Dr. Wangs' Office	718-886-1212	6.2	01/20/2018	Call	13743 45th Ave	 Main Entrance	Flushing	NY	11355	01/20/2018	Call	20104 33rd Ave	# 4A 	Bayside	NY	11361	3.1			No	132713706
2504293	322	551243560	Leg	Leslie		Burton	ZB53121Q	M	(718) 717-5343	09/06/1959	PAPPAS PHYSICAL MEDICINE		1538132154	Clean Air Car Svc & Parking (NYC)	Livery/QN-Med Appt in CMMA	A0100		01/03/2018	01/03/2018	No	2	1		self	(718) 717-5343	6.6	01/03/2018	1030	3553 12th St	Apt 2H 	Astoria	NY	11106	01/03/2018	1100	1305 York Ave	  main ent	New York	NY	10021	3.3			No	132800065
2504293	323	551243560	Leg	Leslie		Burton	ZB53121Q	M	(718) 717-5343	09/06/1959	PAPPAS PHYSICAL MEDICINE		1538132154	Clean Air Car Svc & Parking (NYC)	Livery/QN-Med Appt in CMMA	A0100		01/03/2018	01/03/2018	No	2	1		self	(718) 717-5343	6.6	01/03/2018	Call	1305 York Ave	 main ent	New York	NY	10021	01/03/2018	Call	3553 12th St	Apt 2H 	Astoria	NY	11106	3.3			No	132800066
2504293	324	551243560	Service	Leslie		Burton	ZB53121Q	M	(718) 717-5343	09/06/1959	PAPPAS PHYSICAL MEDICINE		1538132154	Clean Air Car Svc & Parking (NYC)	Tolls-Universal	A0170	CG	01/03/2018	01/03/2018	No	2	1																					Tolls-Universal	132800065
2504293	325	551243560	Service	Leslie		Burton	ZB53121Q	M	(718) 717-5343	09/06/1959	PAPPAS PHYSICAL MEDICINE		1538132154	Clean Air Car Svc & Parking (NYC)	Livery-Manhattan Surcharge	A0100	SC	01/03/2018	01/03/2018	No	2	1																					Livery-Manhattan Surcharge	132800065
2504293	326	551243560	Service	Leslie		Burton	ZB53121Q	M	(718) 717-5343	09/06/1959	PAPPAS PHYSICAL MEDICINE		1538132154	Clean Air Car Svc & Parking (NYC)	Livery-Manhattan Surcharge	A0100	SC	01/03/2018	01/03/2018	No	2	1																					Livery-Manhattan Surcharge	132800066
2504293	327	551497610	Leg	Fungsin		Chiu	NA77401H	F	6467055501	07/12/1944	Hon, King-Chen		1447281738	Clean Air Car Svc & Parking (NYC)	Livery/QN-Med Appt in CMMA	A0100		01/03/2018	01/03/2018	No	2	1		self	6467055501	6.4	01/03/2018	0900	18819 Underhill Ave	 	Fresh Meadows	NY	11365	01/03/2018	1000	13511 40th Rd	  	Flushing	NY	11354	3.2	1 Additional pass		No	132853914
2504293	328	551497610	Leg	Fungsin		Chiu	NA77401H	F	6467055501	07/12/1944	Hon, King-Chen		1447281738	Clean Air Car Svc & Parking (NYC)	Livery/QN-Med Appt in CMMA	A0100		01/03/2018	01/03/2018	No	2	1		self	6467055501	6.4	01/03/2018	CALL	13511 40th Rd	 	Flushing	NY	11354	01/03/2018	CALL	18819 Underhill Ave	  	Fresh Meadows	NY	11365	3.2			No	132853915
2504293	329	551498300	Leg	Fungsin		Chiu	NA77401H	F	6467055501	07/12/1944	Hon, King-Chen		1447281738	Clean Air Car Svc & Parking (NYC)	Livery/QN-Med Appt out CMMA	A0100	TN	01/04/2018	01/04/2018	No	2	1		self	6467055501	26.0	01/04/2018	0900	18819 Underhill Ave	 	Fresh Meadows	NY	11365	01/04/2018	1000	227 Madison St	  	New York	NY	10002	13.0	1 Additional pass		No	132853973
2504293	330	551498300	Leg	Fungsin		Chiu	NA77401H	F	6467055501	07/12/1944	Hon, King-Chen		1447281738	Clean Air Car Svc & Parking (NYC)	Livery/QN-Med Appt out CMMA	A0100	TN	01/04/2018	01/04/2018	No	2	1		self	6467055501	26.0	01/04/2018	CALL	227 Madison St	 	New York	NY	10002	01/04/2018	CALL	18819 Underhill Ave	  	Fresh Meadows	NY	11365	13.0			No	132853976
2504293	331	551498300	Service	Fungsin		Chiu	NA77401H	F	6467055501	07/12/1944	Hon, King-Chen		1447281738	Clean Air Car Svc & Parking (NYC)	Tolls-Universal	A0170	CG	01/04/2018	01/04/2018	No	2	1																					Tolls-Universal	132853973
2504293	332	551498300	Service	Fungsin		Chiu	NA77401H	F	6467055501	07/12/1944	Hon, King-Chen		1447281738	Clean Air Car Svc & Parking (NYC)	Livery-Manhattan Surcharge	A0100	SC	01/04/2018	01/04/2018	No	2	1																					Livery-Manhattan Surcharge	132853973
2504293	333	551498300	Service	Fungsin		Chiu	NA77401H	F	6467055501	07/12/1944	Hon, King-Chen		1447281738	Clean Air Car Svc & Parking (NYC)	Livery-Manhattan Surcharge	A0100	SC	01/04/2018	01/04/2018	No	2	1																					Livery-Manhattan Surcharge	132853976
2504293	334	551498300	Service	Fungsin		Chiu	NA77401H	F	6467055501	07/12/1944	Hon, King-Chen		1447281738	Clean Air Car Svc & Parking (NYC)	Mileage-Livery in NYC	S0215		01/04/2018	01/04/2018	No	2	1																					Mileage-Livery in NYC	132853973
2504293	335	551498300	Service	Fungsin		Chiu	NA77401H	F	6467055501	07/12/1944	Hon, King-Chen		1447281738	Clean Air Car Svc & Parking (NYC)	Mileage-Livery in NYC	S0215		01/04/2018	01/04/2018	No	2	1																					Mileage-Livery in NYC	132853976
2504293	336	551498690	Leg	Fungsin		Chiu	NA77401H	F	6467055501	07/12/1944	Hon, King-Chen		1447281738	Clean Air Car Svc & Parking (NYC)	Livery/QN-Med Appt in CMMA	A0100		01/05/2018	01/05/2018	No	2	1		self	6467055501	3.4	01/05/2018	0930	18819 Underhill Ave	 	Fresh Meadows	NY	11365	01/05/2018	1000	16303 Horace Harding Expy	  	Fresh Meadows	NY	11365	1.7	1 Additional pass		No	132854415
2504293	337	551498690	Leg	Fungsin		Chiu	NA77401H	F	6467055501	07/12/1944	Hon, King-Chen		1447281738	Clean Air Car Svc & Parking (NYC)	Livery/QN-Med Appt in CMMA	A0100		01/05/2018	01/05/2018	No	2	1		self	6467055501	3.4	01/05/2018	CALL	16303 Horace Harding Expy	 	Fresh Meadows	NY	11365	01/05/2018	CALL	18819 Underhill Ave	  	Fresh Meadows	NY	11365	1.7			No	132854416
2504293	338	552080680	Leg	Ashley	M	Li	PE16319D	F		11/17/2010	NYU Langone Medical Center		1871799502	Clean Air Car Svc & Parking (NYC)	Livery/QN-Med Appt out CMMA	A0100	TN	01/22/2018	01/22/2018	No	2	1		Fangyuzhu-mother		21.4	01/22/2018	1430	14230 Barclay Ave	 	Flushing	NY	11355	01/22/2018	1530	240 E 38th St	16TH FLR 	New York	NY	10016	9.7	Additional Rider		No	133009062
2504293	339	552080680	Leg	Ashley	M	Li	PE16319D	F		11/17/2010	NYU Langone Medical Center		1871799502	Clean Air Car Svc & Parking (NYC)	Livery/QN-Med Appt out CMMA	A0100	TN	01/22/2018	01/22/2018	No	2	1		Fangyuzhu-mother		21.4	01/22/2018	Call	240 E 38th St	16TH FLR 	New York	NY	10016	01/22/2018	Call	154 20 Bayside Ave            2	  	Flushing	NY	11354	11.7			No	133009063
2504293	340	552080680	Service	Ashley	M	Li	PE16319D	F		11/17/2010	NYU Langone Medical Center		1871799502	Clean Air Car Svc & Parking (NYC)	Mileage-Livery in NYC	S0215		01/22/2018	01/22/2018	No	2	1																					Mileage-Livery in NYC	133009062
2504293	341	552080680	Service	Ashley	M	Li	PE16319D	F		11/17/2010	NYU Langone Medical Center		1871799502	Clean Air Car Svc & Parking (NYC)	Mileage-Livery in NYC	S0215		01/22/2018	01/22/2018	No	2	1																					Mileage-Livery in NYC	133009063
2504293	342	552080680	Service	Ashley	M	Li	PE16319D	F		11/17/2010	NYU Langone Medical Center		1871799502	Clean Air Car Svc & Parking (NYC)	Tolls-Universal	A0170	CG	01/22/2018	01/22/2018	No	2	1																					Tolls-Universal	133009062
2504293	343	552080680	Service	Ashley	M	Li	PE16319D	F		11/17/2010	NYU Langone Medical Center		1871799502	Clean Air Car Svc & Parking (NYC)	Livery-Manhattan Surcharge	A0100	SC	01/22/2018	01/22/2018	No	2	1																					Livery-Manhattan Surcharge	133009062
2504293	344	552080680	Service	Ashley	M	Li	PE16319D	F		11/17/2010	NYU Langone Medical Center		1871799502	Clean Air Car Svc & Parking (NYC)	Livery-Manhattan Surcharge	A0100	SC	01/22/2018	01/22/2018	No	2	1																					Livery-Manhattan Surcharge	133009063
2504293	345	552165430	Leg	Ingrid		Rastogi	QY13671Z	F	6464189657	02/26/1983	Queens Hospital	000	1801803903	Clean Air Car Svc & Parking (NYC)	Livery/QN-Med Appt out CMMA	A0100	TN	01/09/2018	01/09/2018	No	2	1		-	6464189657	21.6	01/09/2018	0815	8534 148th St	 	Jamaica	NY	11435	01/09/2018	0930	151 Maujer St	  	Brooklyn	NY	11206	10.8			No	133034383
2504293	346	552165430	Leg	Ingrid		Rastogi	QY13671Z	F	6464189657	02/26/1983	Queens Hospital	000	1801803903	Clean Air Car Svc & Parking (NYC)	Livery/QN-Med Appt out CMMA	A0100	TN	01/09/2018	01/09/2018	No	2	1		-	6464189657	21.6	01/09/2018	CALL	151 Maujer St	 	Brooklyn	NY	11206	01/09/2018	CALL	8534 148th St	  	Jamaica	NY	11435	10.8			No	133034385
2504293	347	552165430	Service	Ingrid		Rastogi	QY13671Z	F	6464189657	02/26/1983	Queens Hospital	000	1801803903	Clean Air Car Svc & Parking (NYC)	Tolls-Universal	A0170	CG	01/09/2018	01/09/2018	No	2	1																					Tolls-Universal	133034383
2504293	348	552165430	Service	Ingrid		Rastogi	QY13671Z	F	6464189657	02/26/1983	Queens Hospital	000	1801803903	Clean Air Car Svc & Parking (NYC)	Mileage-Livery in NYC	S0215		01/09/2018	01/09/2018	No	2	1																					Mileage-Livery in NYC	133034383
2504293	349	552165430	Service	Ingrid		Rastogi	QY13671Z	F	6464189657	02/26/1983	Queens Hospital	000	1801803903	Clean Air Car Svc & Parking (NYC)	Mileage-Livery in NYC	S0215		01/09/2018	01/09/2018	No	2	1																					Mileage-Livery in NYC	133034385
2504293	350	552184710	Leg	Zhenhua		Yu	NQ17938R	M	(646) 961-6897	06/18/1940	WEI, LIHONG		1861574576	Clean Air Car Svc & Parking (NYC)	Livery/QN-Med Appt in CMMA	A0100		01/03/2018	01/03/2018	No	2	1		s	(646) 961-6897	2.0	01/03/2018	0830	4344 Kissena Blvd	 	Flushing	NY	11355	01/03/2018	0900	13620 38th Ave	Suite 51 	Flushing	NY	11354	1.0	Additional Rider		No	133040727
2504293	351	552184710	Leg	Zhenhua		Yu	NQ17938R	M	(646) 961-6897	06/18/1940	WEI, LIHONG		1861574576	Clean Air Car Svc & Parking (NYC)	Livery/QN-Med Appt in CMMA	A0100		01/03/2018	01/03/2018	No	2	1		s	(646) 961-6897	2.0	01/03/2018	Call	13620 38th Ave	Suite 51 	Flushing	NY	11354	01/03/2018	Call	4344 Kissena Blvd	  	Flushing	NY	11355	1.0			No	133040728
2504293	352	552197180	Leg	Zhenhua		Yu	NQ17938R	M	(646) 961-6897	06/18/1940	WEI, LIHONG		1861574576	Clean Air Car Svc & Parking (NYC)	Livery/QN-Med Appt in CMMA	A0100		01/10/2018	01/10/2018	No	2	1		s	(646) 961-6897	2.0	01/10/2018	1400	4344 Kissena Blvd	 	Flushing	NY	11355	01/10/2018	1430	13620 38th Ave	Suite 51 	Flushing	NY	11354	1.0	Additional Rider		No	133041489
2504293	353	552197180	Leg	Zhenhua		Yu	NQ17938R	M	(646) 961-6897	06/18/1940	WEI, LIHONG		1861574576	Clean Air Car Svc & Parking (NYC)	Livery/QN-Med Appt in CMMA	A0100		01/10/2018	01/10/2018	No	2	1		s	(646) 961-6897	2.0	01/10/2018	Call	13620 38th Ave	Suite 51 	Flushing	NY	11354	01/10/2018	Call	4344 Kissena Blvd	  	Flushing	NY	11355	1.0			No	133041490
2504293	354	552433190	Leg	Lady	J	Uzuriaga	PD06322U	F	(516) 784-3372	12/08/1988	Sclafani Lisa		1902881584	Clean Air Car Svc & Parking (NYC)	Livery/QN-Med Appt out CMMA	A0100	TN	01/02/2018	01/02/2018	No	2	1		self same	(516) 784-3372	27.4	01/02/2018	0700	13541 Lefferts Blvd	# 1 	South Ozone Park	NY	11420	01/02/2018	0800	53 W 23rd St	  	New York	NY	10010	13.7	Additional Rider		No	133103478
2504293	355	552433190	Leg	Lady	J	Uzuriaga	PD06322U	F	(516) 784-3372	12/08/1988	Sclafani Lisa		1902881584	Clean Air Car Svc & Parking (NYC)	Livery/QN-Med Appt out CMMA	A0100	TN	01/02/2018	01/02/2018	No	2	1		self same	(516) 784-3372	27.4	01/02/2018	Call	53 W 23rd St	 	New York	NY	10010	01/02/2018	Call	13541 Lefferts Blvd	# 1 	South Ozone Park	NY	11420	13.7			No	133103479
2504293	356	552433190	Service	Lady	J	Uzuriaga	PD06322U	F	(516) 784-3372	12/08/1988	Sclafani Lisa		1902881584	Clean Air Car Svc & Parking (NYC)	Tolls-Universal	A0170	CG	01/02/2018	01/02/2018	No	2	1																					Tolls-Universal	133103478
2504293	357	552433190	Service	Lady	J	Uzuriaga	PD06322U	F	(516) 784-3372	12/08/1988	Sclafani Lisa		1902881584	Clean Air Car Svc & Parking (NYC)	Livery-Manhattan Surcharge	A0100	SC	01/02/2018	01/02/2018	No	2	1																					Livery-Manhattan Surcharge	133103478
2504293	358	552433190	Service	Lady	J	Uzuriaga	PD06322U	F	(516) 784-3372	12/08/1988	Sclafani Lisa		1902881584	Clean Air Car Svc & Parking (NYC)	Livery-Manhattan Surcharge	A0100	SC	01/02/2018	01/02/2018	No	2	1																					Livery-Manhattan Surcharge	133103479
2504293	359	552433190	Service	Lady	J	Uzuriaga	PD06322U	F	(516) 784-3372	12/08/1988	Sclafani Lisa		1902881584	Clean Air Car Svc & Parking (NYC)	Mileage-Livery in NYC	S0215		01/02/2018	01/02/2018	No	2	1																					Mileage-Livery in NYC	133103478
2504293	360	552433190	Service	Lady	J	Uzuriaga	PD06322U	F	(516) 784-3372	12/08/1988	Sclafani Lisa		1902881584	Clean Air Car Svc & Parking (NYC)	Mileage-Livery in NYC	S0215		01/02/2018	01/02/2018	No	2	1																					Mileage-Livery in NYC	133103479
2504293	361	552754950	Leg	Yedlina	A	Lawrence	PS29073Q	F	(347) 239-6588	09/25/1960	Restaino,Susan		1083791727	Clean Air Car Svc & Parking (NYC)	Livery/QN-Med Appt in CMMA	A0100		01/09/2018	01/09/2018	No	2	1		self	(347) 239-6588	6.6	01/09/2018	1400	11427 Inwood St	 home	Jamaica	NY	11436	01/09/2018	1500	18005 Hillside Ave	  main	Jamaica	NY	11432	3.3			No	133168800
2504293	362	552754950	Leg	Yedlina	A	Lawrence	PS29073Q	F	(347) 239-6588	09/25/1960	Restaino,Susan		1083791727	Clean Air Car Svc & Parking (NYC)	Livery/QN-Med Appt in CMMA	A0100		01/09/2018	01/09/2018	No	2	1		self	(347) 239-6588	6.6	01/09/2018	Call	18005 Hillside Ave	 main	Jamaica	NY	11432	01/09/2018	Call	11427 Inwood St	  home	Jamaica	NY	11436	3.3			No	133168801
2504293	363	552949480	Leg	Nydia		Vasquez	ZR93788C	F	3476311085	08/09/1953	Staten Island Drug Rehab		1407877137	Clean Air Car Svc & Parking (NYC)	Livery/BK-Med Appt out CMMA	A0100	TN	01/03/2018	01/03/2018	No	2	1		self	3476311085	19.0	01/03/2018	0600	463 Avenue Y	 	Brooklyn	NY	11223	01/03/2018	0700	567 E 105th St	  	Brooklyn	NY	11236	9.5			No	133184089
2504293	364	552949480	Leg	Nydia		Vasquez	ZR93788C	F	3476311085	08/09/1953	Staten Island Drug Rehab		1407877137	Clean Air Car Svc & Parking (NYC)	Livery/BK-Med Appt out CMMA	A0100	TN	01/03/2018	01/03/2018	No	2	1		self	3476311085	19.0	01/03/2018	CALL	567 E 105th St	 	Brooklyn	NY	11236	01/03/2018	CALL	463 Avenue Y	  	Brooklyn	NY	11223	9.5			No	133184090
2504293	365	552949480	Service	Nydia		Vasquez	ZR93788C	F	3476311085	08/09/1953	Staten Island Drug Rehab		1407877137	Clean Air Car Svc & Parking (NYC)	Mileage-Livery in NYC	S0215		01/03/2018	01/03/2018	No	2	1																					Mileage-Livery in NYC	133184089
2504293	366	552949480	Service	Nydia		Vasquez	ZR93788C	F	3476311085	08/09/1953	Staten Island Drug Rehab		1407877137	Clean Air Car Svc & Parking (NYC)	Mileage-Livery in NYC	S0215		01/03/2018	01/03/2018	No	2	1																					Mileage-Livery in NYC	133184090
2504293	367	552956790	Leg	Obdulia		Batista	ZG92504N	F	7188486535	12/03/1972	Goldberg Alla		1467698480	Clean Air Car Svc & Parking (NYC)	Livery/BK-Med Appt out CMMA	A0100	TN	01/03/2018	01/03/2018	No	2	1		self	7188486535	15.8	01/03/2018	1415	98-23    Horace Harding Expy  17-o	 	Qns	NY	11368	01/03/2018	1515	5645 Main St	  	Flushing	NY	11355	7.9	1 Additional rider(s). 1		No	133186480
2504293	368	552956790	Leg	Obdulia		Batista	ZG92504N	F	7188486535	12/03/1972	Goldberg Alla		1467698480	Clean Air Car Svc & Parking (NYC)	Livery/BK-Med Appt out CMMA	A0100	TN	01/03/2018	01/03/2018	No	2	1		self	7188486535	15.8	01/03/2018	Call	5645 Main St	 	Flushing	NY	11355	01/03/2018	Call	98-23    Horace Harding Expy  17-o	  	Qns	NY	11368	7.9	1 Additional rider(s). 1		No	133186481
2504293	369	553097520	Leg	Teri	L	Miller	ZW58156B	F	(732) 749-0644	08/15/1959	INSTITUTE FOR FAMILY HEALTH		1972877017	Clean Air Car Svc & Parking (NYC)	Livery/QN-Med Appt out CMMA	A0100	TN	01/02/2018	01/02/2018	No	2	1		self	(732) 749-0644	15.8	01/02/2018	1015	3505 94th St	Apt 3A 	Jackson Heights	NY	11372	01/02/2018	1115	15 W 136th St	  5th ave side	New York	NY	10037	7.9			No	133226474
2504293	370	553097520	Leg	Teri	L	Miller	ZW58156B	F	(732) 749-0644	08/15/1959	INSTITUTE FOR FAMILY HEALTH		1972877017	Clean Air Car Svc & Parking (NYC)	Livery/QN-Med Appt out CMMA	A0100	TN	01/02/2018	01/02/2018	No	2	1		self	(732) 749-0644	15.8	01/02/2018	Call	15 W 136th St	 5th ave side	New York	NY	10037	01/02/2018	Call	3505 94th St	Apt 3A 	Jackson Heights	NY	11372	7.9			No	133226487
2504293	371	553097520	Service	Teri	L	Miller	ZW58156B	F	(732) 749-0644	08/15/1959	INSTITUTE FOR FAMILY HEALTH		1972877017	Clean Air Car Svc & Parking (NYC)	Tolls-Universal	A0170	CG	01/02/2018	01/02/2018	No	2	1																					Tolls-Universal	133226474
2504293	372	553103280	Leg	Teri	L	Miller	ZW58156B	F	(732) 749-0644	08/15/1959	INSTITUTE FOR FAMILY HEALTH		1972877017	Clean Air Car Svc & Parking (NYC)	Livery/QN-Med Appt out CMMA	A0100	TN	01/03/2018	01/03/2018	No	2	1		self	(732) 749-0644	15.8	01/03/2018	0650	3505 94th St	Apt 3A 	Jackson Heights	NY	11372	01/03/2018	0750	15 W 136th St	  main	New York	NY	10037	7.9			No	133227199
2504293	373	553103280	Leg	Teri	L	Miller	ZW58156B	F	(732) 749-0644	08/15/1959	INSTITUTE FOR FAMILY HEALTH		1972877017	Clean Air Car Svc & Parking (NYC)	Livery/QN-Med Appt out CMMA	A0100	TN	01/03/2018	01/03/2018	No	2	1		self	(732) 749-0644	15.8	01/03/2018	Call	15 W 136th St	 main	New York	NY	10037	01/03/2018	Call	3505 94th St	Apt 3A 	Jackson Heights	NY	11372	7.9			No	133227200
2504293	374	553103280	Service	Teri	L	Miller	ZW58156B	F	(732) 749-0644	08/15/1959	INSTITUTE FOR FAMILY HEALTH		1972877017	Clean Air Car Svc & Parking (NYC)	Tolls-Universal	A0170	CG	01/03/2018	01/03/2018	No	2	1																					Tolls-Universal	133227199
2504293	375	553161620	Leg	Obdulia		Batista	ZG92504N	F	7188486535	12/03/1972	Goldberg Alla		1467698480	Clean Air Car Svc & Parking (NYC)	Livery/BK-Med Appt out CMMA	A0100	TN	01/02/2018	01/02/2018	No	2	1		Self	7188486535	18.8	01/02/2018	1230	98-23    Horace Harding Expy  17-o	 	Qns	NY	11368	01/02/2018	1400	17411 Horace Harding Expy	  	Fresh Meadows	NY	11365	9.4	additional rider 1		No	133240418
2504293	376	553161620	Leg	Obdulia		Batista	ZG92504N	F	7188486535	12/03/1972	Goldberg Alla		1467698480	Clean Air Car Svc & Parking (NYC)	Livery/BK-Med Appt out CMMA	A0100	TN	01/02/2018	01/02/2018	No	2	1		Self	7188486535	18.8	01/02/2018	CALL	17411 Horace Harding Expy	 	Fresh Meadows	NY	11365	01/02/2018	CALL	98-23    Horace Harding Expy  17-o	  	Qns	NY	11368	9.4			No	133240419
2504293	377	553161620	Service	Obdulia		Batista	ZG92504N	F	7188486535	12/03/1972	Goldberg Alla		1467698480	Clean Air Car Svc & Parking (NYC)	Mileage-Livery out of NYC	S0215	TN	01/02/2018	01/02/2018	No	2	1																					Mileage-Livery out of NYC	133240418
2504293	378	553161620	Service	Obdulia		Batista	ZG92504N	F	7188486535	12/03/1972	Goldberg Alla		1467698480	Clean Air Car Svc & Parking (NYC)	Mileage-Livery out of NYC	S0215	TN	01/02/2018	01/02/2018	No	2	1																					Mileage-Livery out of NYC	133240419
2504293	379	553554220	Leg	Yedlina	A	Lawrence	PS29073Q	F	(347) 239-6588	09/25/1960	Restaino,Susan		1083791727	Clean Air Car Svc & Parking (NYC)	Livery/QN-Med Appt out CMMA	A0100	TN	01/08/2018	01/08/2018	No	2	1		self	(347) 239-6588	11.2	01/08/2018	1330	11427 Inwood St	 home	Jamaica	NY	11436	01/08/2018	1430	9520 63rd Rd	  main entrance	Rego Park	NY	11374	5.6			No	133354377
2504293	380	553554220	Leg	Yedlina	A	Lawrence	PS29073Q	F	(347) 239-6588	09/25/1960	Restaino,Susan		1083791727	Clean Air Car Svc & Parking (NYC)	Livery/QN-Med Appt out CMMA	A0100	TN	01/08/2018	01/08/2018	No	2	1		self	(347) 239-6588	11.2	01/08/2018	Call	9520 63rd Rd	 main entrance	Rego Park	NY	11374	01/08/2018	Call	11427 Inwood St	  home	Jamaica	NY	11436	5.6			No	133354384
2504293	381	554030900	Leg	Linda	L	Hagins	ZV28817E	F	9292876303	07/31/1954	Bronx Lebanon Hospital	000	1538230073	Clean Air Car Svc & Parking (NYC)	Livery/BX-Med Appt in CMMA	A0100		01/03/2018	01/03/2018	No	2	1		self	9292876303	8.2	01/03/2018	0930	1805 Clinton Ave	 	Bronx	NY	10457	01/03/2018	1030	1865 Amsterdam Ave	  	New York	NY	10031	4.1	has a cane		No	133470825
2504293	382	554030900	Leg	Linda	L	Hagins	ZV28817E	F	9292876303	07/31/1954	Bronx Lebanon Hospital	000	1538230073	Clean Air Car Svc & Parking (NYC)	Livery/BX-Med Appt in CMMA	A0100		01/03/2018	01/03/2018	No	2	1		self	9292876303	8.2	01/03/2018	CALL	1865 Amsterdam Ave	 	New York	NY	10031	01/03/2018	CALL	1805 Clinton Ave	  	Bronx	NY	10457	4.1			No	133470826
2504293	383	554601350	Leg	Christina		Traboulsy	ZA17590R	F	(347) 312-6824	08/16/1960	Brooklyn Hospital Center	000	1326046467	Clean Air Car Svc & Parking (NYC)	Livery/BK-Med Appt in CMMA	A0100		01/05/2018	01/05/2018	No	2	1		self	(347) 312-6824	4.8	01/05/2018	1010	1728 W 11th St	 Home	Brooklyn	NY	11223	01/05/2018	1110	1250 57th St	  Main	Brooklyn	NY	11219	2.4	1 Additional rider(s).		No	133606324
2504293	384	554601350	Leg	Christina		Traboulsy	ZA17590R	F	(347) 312-6824	08/16/1960	Brooklyn Hospital Center	000	1326046467	Clean Air Car Svc & Parking (NYC)	Livery/BK-Med Appt in CMMA	A0100		01/05/2018	01/05/2018	No	2	1		self	(347) 312-6824	4.8	01/05/2018	Call	1250 57th St	 Main	Brooklyn	NY	11219	01/05/2018	Call	1728 W 11th St	  Home	Brooklyn	NY	11223	2.4	1 Additional rider(s).		No	133606325
2504293	385	555002760	Leg	Hongyi		Cai	PN23626K	M	(917) 655-1992	02/27/2000	Aygun Banu	000	1235218991	Clean Air Car Svc & Parking (NYC)	Livery/QN-Med Appt out CMMA	A0100	TN	01/05/2018	01/05/2018	No	2	1		Hongyi Cai (Recipient-NYC)	(917) 655-1992	15.2	01/05/2018	0700	146-42 59th Ave	2Fl 	Flushing	NY	11355	01/05/2018	0800	26901 76th Ave	  	New Hyde Park	NY	11040	7.6			No	133697838
2504293	386	555002760	Leg	Hongyi		Cai	PN23626K	M	(917) 655-1992	02/27/2000	Aygun Banu	000	1235218991	Clean Air Car Svc & Parking (NYC)	Livery/QN-Med Appt out CMMA	A0100	TN	01/05/2018	01/05/2018	No	2	1		Hongyi Cai (Recipient-NYC)	(917) 655-1992	15.2	01/05/2018	CALL	26901 76th Ave	 	New Hyde Park	NY	11040	01/05/2018	CALL	146-42 59th Ave	2Fl 	Flushing	NY	11355	7.6			No	133697839
2504293	387	555017290	Leg	Sharon		Caffey	XQ37608H	F	(718) 301-3775	09/04/1964	Bradnock Howard		1225002751	Clean Air Car Svc & Parking (NYC)	Livery/QN-Med Appt out CMMA	A0100	TN	01/02/2018	01/02/2018	No	4	1		Self	(718) 301-3775	53.0	01/02/2018	0730	3441 Linden Pl	Apt 2B 	Flushing	NY	11354	01/02/2018	0830	150 55th st	  Main	Brooklyn	NY	11207	17.1			No	133701034
2504293	388	555017290	Leg	Sharon		Caffey	XQ37608H	F	(718) 301-3775	09/04/1964	Bradnock Howard		1225002751	Clean Air Car Svc & Parking (NYC)	Livery/QN-Med Appt out CMMA	A0100	TN	01/02/2018	01/02/2018	No	4	1		Self	(718) 301-3775	53.0	01/02/2018	Call	150 55th st	 Main	Brooklyn	NY	11207	01/02/2018	Call	3441 Linden Pl	Apt 2B 	Flushing	NY	11354	17.1			No	133701035
2504293	389	555017290	Leg	Sharon		Caffey	XQ37608H	F	(718) 301-3775	09/04/1964	Bradnock Howard		1225002751	Clean Air Car Svc & Parking (NYC)	Livery/QN-Med Appt out CMMA	A0100	TN	01/02/2018	01/02/2018	No	4	1		Self	(718) 301-3775	53.0	01/02/2018	1430	3441 Linden Pl	Apt 2B 	Flushing	NY	11354	01/02/2018	1530	1305 York Ave	  Main	New York	NY	10021	9.4			No	133701322
2504293	390	555017290	Leg	Sharon		Caffey	XQ37608H	F	(718) 301-3775	09/04/1964	Bradnock Howard		1225002751	Clean Air Car Svc & Parking (NYC)	Livery/QN-Med Appt out CMMA	A0100	TN	01/02/2018	01/02/2018	No	4	1		Self	(718) 301-3775	53.0	01/02/2018	Call	1305 York Ave	 Main	New York	NY	10021	01/02/2018	Call	3441 Linden Pl	Apt 2B 	Flushing	NY	11354	9.4			No	133701323
2504293	391	555017290	Service	Sharon		Caffey	XQ37608H	F	(718) 301-3775	09/04/1964	Bradnock Howard		1225002751	Clean Air Car Svc & Parking (NYC)	Tolls-Universal	A0170	CG	01/02/2018	01/02/2018	No	4	1																					Tolls-Universal	133701034
2504293	392	555017290	Service	Sharon		Caffey	XQ37608H	F	(718) 301-3775	09/04/1964	Bradnock Howard		1225002751	Clean Air Car Svc & Parking (NYC)	Mileage-Livery in NYC	S0215		01/02/2018	01/02/2018	No	4	1																					Mileage-Livery in NYC	133701034
2504293	393	555017290	Service	Sharon		Caffey	XQ37608H	F	(718) 301-3775	09/04/1964	Bradnock Howard		1225002751	Clean Air Car Svc & Parking (NYC)	Mileage-Livery in NYC	S0215		01/02/2018	01/02/2018	No	4	1																					Mileage-Livery in NYC	133701035
2504293	394	555017290	Service	Sharon		Caffey	XQ37608H	F	(718) 301-3775	09/04/1964	Bradnock Howard		1225002751	Clean Air Car Svc & Parking (NYC)	Mileage-Livery in NYC	S0215		01/02/2018	01/02/2018	No	4	1																					Mileage-Livery in NYC	133701322
2504293	395	555017290	Service	Sharon		Caffey	XQ37608H	F	(718) 301-3775	09/04/1964	Bradnock Howard		1225002751	Clean Air Car Svc & Parking (NYC)	Mileage-Livery in NYC	S0215		01/02/2018	01/02/2018	No	4	1																					Mileage-Livery in NYC	133701323
2504293	396	555017290	Service	Sharon		Caffey	XQ37608H	F	(718) 301-3775	09/04/1964	Bradnock Howard		1225002751	Clean Air Car Svc & Parking (NYC)	Livery-Manhattan Surcharge	A0100	SC	01/02/2018	01/02/2018	No	4	1																					Livery-Manhattan Surcharge	133701322
2504293	397	555017290	Service	Sharon		Caffey	XQ37608H	F	(718) 301-3775	09/04/1964	Bradnock Howard		1225002751	Clean Air Car Svc & Parking (NYC)	Livery-Manhattan Surcharge	A0100	SC	01/02/2018	01/02/2018	No	4	1																					Livery-Manhattan Surcharge	133701323
2504293	398	555019220	Leg	Sharon		Caffey	XQ37608H	F	(718) 301-3775	09/04/1964	Bradnock Howard		1225002751	Clean Air Car Svc & Parking (NYC)	Livery/QN-Med Appt out CMMA	A0100	TN	01/03/2018	01/03/2018	No	4	1		Self	(718) 301-3775	56.8	01/03/2018	0800	3441 Linden Pl	Apt 2B 	Flushing	NY	11354	01/03/2018	0900	8714 5th Ave	  Main	Brooklyn	NY	11209	19.0			No	133701324
2504293	399	555019220	Leg	Sharon		Caffey	XQ37608H	F	(718) 301-3775	09/04/1964	Bradnock Howard		1225002751	Clean Air Car Svc & Parking (NYC)	Livery/QN-Med Appt out CMMA	A0100	TN	01/03/2018	01/03/2018	No	4	1		Self	(718) 301-3775	56.8	01/03/2018	Call	8714 5th Ave	 Main	Brooklyn	NY	11209	01/03/2018	Call	3441 Linden Pl	Apt 2B 	Flushing	NY	11354	19.0			No	133701325
2504293	400	555019220	Leg	Sharon		Caffey	XQ37608H	F	(718) 301-3775	09/04/1964	Bradnock Howard		1225002751	Clean Air Car Svc & Parking (NYC)	Livery/QN-Med Appt out CMMA	A0100	TN	01/03/2018	01/03/2018	No	4	1		Self	(718) 301-3775	56.8	01/03/2018	1415	3441 Linden Pl	Apt 2B 	Flushing	NY	11354	01/03/2018	1515	525 E 68th St	  Main	New York	NY	10065	9.4			No	133701484
2504293	401	555019220	Leg	Sharon		Caffey	XQ37608H	F	(718) 301-3775	09/04/1964	Bradnock Howard		1225002751	Clean Air Car Svc & Parking (NYC)	Livery/QN-Med Appt out CMMA	A0100	TN	01/03/2018	01/03/2018	No	4	1		Self	(718) 301-3775	56.8	01/03/2018	Call	525 E 68th St	 Main	New York	NY	10065	01/03/2018	Call	3441 Linden Pl	Apt 2B 	Flushing	NY	11354	9.4			No	133701485
2504293	402	555019220	Service	Sharon		Caffey	XQ37608H	F	(718) 301-3775	09/04/1964	Bradnock Howard		1225002751	Clean Air Car Svc & Parking (NYC)	Tolls-Universal	A0170	CG	01/03/2018	01/03/2018	No	4	1																					Tolls-Universal	133701324
2504293	403	555019220	Service	Sharon		Caffey	XQ37608H	F	(718) 301-3775	09/04/1964	Bradnock Howard		1225002751	Clean Air Car Svc & Parking (NYC)	Mileage-Livery in NYC	S0215		01/03/2018	01/03/2018	No	4	1																					Mileage-Livery in NYC	133701324
2504293	404	555019220	Service	Sharon		Caffey	XQ37608H	F	(718) 301-3775	09/04/1964	Bradnock Howard		1225002751	Clean Air Car Svc & Parking (NYC)	Mileage-Livery in NYC	S0215		01/03/2018	01/03/2018	No	4	1																					Mileage-Livery in NYC	133701325
2504293	405	555019220	Service	Sharon		Caffey	XQ37608H	F	(718) 301-3775	09/04/1964	Bradnock Howard		1225002751	Clean Air Car Svc & Parking (NYC)	Mileage-Livery in NYC	S0215		01/03/2018	01/03/2018	No	4	1																					Mileage-Livery in NYC	133701484
2504293	406	555019220	Service	Sharon		Caffey	XQ37608H	F	(718) 301-3775	09/04/1964	Bradnock Howard		1225002751	Clean Air Car Svc & Parking (NYC)	Mileage-Livery in NYC	S0215		01/03/2018	01/03/2018	No	4	1																					Mileage-Livery in NYC	133701485
2504293	407	555019220	Service	Sharon		Caffey	XQ37608H	F	(718) 301-3775	09/04/1964	Bradnock Howard		1225002751	Clean Air Car Svc & Parking (NYC)	Livery-Manhattan Surcharge	A0100	SC	01/03/2018	01/03/2018	No	4	1																					Livery-Manhattan Surcharge	133701484
2504293	408	555019220	Service	Sharon		Caffey	XQ37608H	F	(718) 301-3775	09/04/1964	Bradnock Howard		1225002751	Clean Air Car Svc & Parking (NYC)	Livery-Manhattan Surcharge	A0100	SC	01/03/2018	01/03/2018	No	4	1																					Livery-Manhattan Surcharge	133701485
2504293	409	555167850	Leg	Vera	A	Beliavsky	YA32283W	F	(718) 606-5468	05/04/1955	Mt Sinai of Queens	00243509	1245248939	Clean Air Car Svc & Parking (NYC)	Livery/QN-Med Appt in CMMA	A0100		01/03/2018	01/03/2018	No	2	1		self	(718) 606-5468	2.8	01/03/2018	1430	3503 12th St	Apt 2H 	Long Island City	NY	11106	01/03/2018	1530	3114 30th Ave	  main	Astoria	NY	11102	1.4			No	133735876
2504293	410	555167850	Leg	Vera	A	Beliavsky	YA32283W	F	(718) 606-5468	05/04/1955	Mt Sinai of Queens	00243509	1245248939	Clean Air Car Svc & Parking (NYC)	Livery/QN-Med Appt in CMMA	A0100		01/03/2018	01/03/2018	No	2	1		self	(718) 606-5468	2.8	01/03/2018	Call	3114 30th Ave	 main	Astoria	NY	11102	01/03/2018	Call	3503 12th St	Apt 2H 	Long Island City	NY	11106	1.4			No	133735877
2504293	411	555186000	Leg	Reshma		Maharaj	KD54352J	F	(347) 500-4614	11/06/1980	Mcdonald Annmarie		1003976341	Clean Air Car Svc & Parking (NYC)	Livery/QN-Med Appt out CMMA	A0100	TN	01/03/2018	01/03/2018	No	2	1		self	(347) 500-4614	35.2	01/03/2018	1500	10459 121st St	 -	South Richmond Hill	NY	11419	01/03/2018	1600	622 W 168th St	  -	New York	NY	10032	17.6	s/o tues thurs and sat		No	133739569
2504293	412	555186000	Leg	Reshma		Maharaj	KD54352J	F	(347) 500-4614	11/06/1980	Mcdonald Annmarie		1003976341	Clean Air Car Svc & Parking (NYC)	Livery/QN-Med Appt out CMMA	A0100	TN	01/03/2018	01/03/2018	No	2	1		self	(347) 500-4614	35.2	01/03/2018	Call	622 W 168th St	 -	New York	NY	10032	01/03/2018	Call	10459 121st St	  -	South Richmond Hill	NY	11419	17.6	s/o tues thurs and sat		No	133739570
2504293	413	555186000	Service	Reshma		Maharaj	KD54352J	F	(347) 500-4614	11/06/1980	Mcdonald Annmarie		1003976341	Clean Air Car Svc & Parking (NYC)	Mileage-Livery in NYC	S0215		01/03/2018	01/03/2018	No	2	1																					Mileage-Livery in NYC	133739569
2504293	414	555186000	Service	Reshma		Maharaj	KD54352J	F	(347) 500-4614	11/06/1980	Mcdonald Annmarie		1003976341	Clean Air Car Svc & Parking (NYC)	Mileage-Livery in NYC	S0215		01/03/2018	01/03/2018	No	2	1																					Mileage-Livery in NYC	133739570
2504293	415	555186000	Service	Reshma		Maharaj	KD54352J	F	(347) 500-4614	11/06/1980	Mcdonald Annmarie		1003976341	Clean Air Car Svc & Parking (NYC)	Tolls-Universal	A0170	CG	01/03/2018	01/03/2018	No	2	1																					Tolls-Universal	133739569
2504293	416	555187430	Leg	Reshma		Maharaj	KD54352J	F	(347) 500-4614	11/06/1980	Mcdonald Annmarie		1003976341	Clean Air Car Svc & Parking (NYC)	Livery/QN-Med Appt out CMMA	A0100	TN	01/07/2018	01/07/2018	No	2	1		self	(347) 500-4614	35.2	01/07/2018	1400	10459 121st St	 -	South Richmond Hill	NY	11419	01/07/2018	1500	622 W 168th St	  -	New York	NY	10032	17.6	s/o tues thurs and sat		No	133740317
2504293	417	555187430	Leg	Reshma		Maharaj	KD54352J	F	(347) 500-4614	11/06/1980	Mcdonald Annmarie		1003976341	Clean Air Car Svc & Parking (NYC)	Livery/QN-Med Appt out CMMA	A0100	TN	01/07/2018	01/07/2018	No	2	1		self	(347) 500-4614	35.2	01/07/2018	Call	622 W 168th St	 -	New York	NY	10032	01/07/2018	Call	10459 121st St	  -	South Richmond Hill	NY	11419	17.6	s/o tues thurs and sat		No	133740318
2504293	418	555187430	Leg	Reshma		Maharaj	KD54352J	F	(347) 500-4614	11/06/1980	Mcdonald Annmarie		1003976341	Clean Air Car Svc & Parking (NYC)	Livery/QN-Med Appt out CMMA	A0100	TN	01/07/2018	01/07/2018	No	2	1		self	(347) 500-4614	35.2	01/07/2018	0800	10459 121st St	 	South Richmond Hill	NY	11419	01/07/2018	0900	177 Fort Washington Ave	  	New York	NY	10032	18.1			No	138738291
2504293	419	555187430	Leg	Reshma		Maharaj	KD54352J	F	(347) 500-4614	11/06/1980	Mcdonald Annmarie		1003976341	Clean Air Car Svc & Parking (NYC)	Livery/QN-Med Appt out CMMA	A0100	TN	01/07/2018	01/07/2018	No	2	1		self	(347) 500-4614	35.2	01/07/2018	Call	177 Fort Washington Ave	 	New York	NY	10032	01/07/2018	Call	10459 121st St	  	South Richmond Hill	NY	11419	18.1			No	138738292
2504293	420	555187430	Service	Reshma		Maharaj	KD54352J	F	(347) 500-4614	11/06/1980	Mcdonald Annmarie		1003976341	Clean Air Car Svc & Parking (NYC)	Mileage-Livery in NYC	S0215		01/07/2018	01/07/2018	No	2	1																					Mileage-Livery in NYC	133740317
2504293	421	555187430	Service	Reshma		Maharaj	KD54352J	F	(347) 500-4614	11/06/1980	Mcdonald Annmarie		1003976341	Clean Air Car Svc & Parking (NYC)	Mileage-Livery in NYC	S0215		01/07/2018	01/07/2018	No	2	1																					Mileage-Livery in NYC	133740318
2504293	422	555187430	Service	Reshma		Maharaj	KD54352J	F	(347) 500-4614	11/06/1980	Mcdonald Annmarie		1003976341	Clean Air Car Svc & Parking (NYC)	Tolls-Universal	A0170	CG	01/07/2018	01/07/2018	No	2	1																					Tolls-Universal	133740317
2504293	423	555187430	Service	Reshma		Maharaj	KD54352J	F	(347) 500-4614	11/06/1980	Mcdonald Annmarie		1003976341	Clean Air Car Svc & Parking (NYC)	Mileage-Livery in NYC	S0215		01/07/2018	01/07/2018	No	2	1																					Mileage-Livery in NYC	138738291
2504293	424	555187430	Service	Reshma		Maharaj	KD54352J	F	(347) 500-4614	11/06/1980	Mcdonald Annmarie		1003976341	Clean Air Car Svc & Parking (NYC)	Mileage-Livery in NYC	S0215		01/07/2018	01/07/2018	No	2	1																					Mileage-Livery in NYC	138738292
2504293	425	555188120	Leg	Reshma		Maharaj	KD54352J	F	(347) 500-4614	11/06/1980	Mcdonald Annmarie		1003976341	Clean Air Car Svc & Parking (NYC)	Livery/QN-Med Appt out CMMA	A0100	TN	01/08/2018	01/08/2018	No	2	1		self	(347) 500-4614	35.2	01/08/2018	0600	10459 121st St	 -	South Richmond Hill	NY	11419	01/08/2018	0700	622 W 168th St	  -	New York	NY	10032	17.6	s/o tues thurs and sat		No	133740347
2504293	426	555188120	Leg	Reshma		Maharaj	KD54352J	F	(347) 500-4614	11/06/1980	Mcdonald Annmarie		1003976341	Clean Air Car Svc & Parking (NYC)	Livery/QN-Med Appt out CMMA	A0100	TN	01/08/2018	01/08/2018	No	2	1		self	(347) 500-4614	35.2	01/08/2018	Call	622 W 168th St	 -	New York	NY	10032	01/08/2018	Call	10459 121st St	  -	South Richmond Hill	NY	11419	17.6	s/o tues thurs and sat		No	133740348
2504293	427	555188120	Service	Reshma		Maharaj	KD54352J	F	(347) 500-4614	11/06/1980	Mcdonald Annmarie		1003976341	Clean Air Car Svc & Parking (NYC)	Mileage-Livery in NYC	S0215		01/08/2018	01/08/2018	No	2	1																					Mileage-Livery in NYC	133740347
2504293	428	555188120	Service	Reshma		Maharaj	KD54352J	F	(347) 500-4614	11/06/1980	Mcdonald Annmarie		1003976341	Clean Air Car Svc & Parking (NYC)	Mileage-Livery in NYC	S0215		01/08/2018	01/08/2018	No	2	1																					Mileage-Livery in NYC	133740348
2504293	429	555188120	Service	Reshma		Maharaj	KD54352J	F	(347) 500-4614	11/06/1980	Mcdonald Annmarie		1003976341	Clean Air Car Svc & Parking (NYC)	Tolls-Universal	A0170	CG	01/08/2018	01/08/2018	No	2	1																					Tolls-Universal	133740347
2504293	430	555190000	Leg	Reshma		Maharaj	KD54352J	F	3475004614	11/06/1980	Mcdonald Annmarie		1003976341	Clean Air Car Svc & Parking (NYC)	Livery/QN-Med Appt out CMMA	A0100	TN	01/10/2018	01/10/2018	No	2	1		self	3475004614	22.6	01/10/2018	0700	10459 121st St	 	South Richmond Hill	NY	11419	01/10/2018	0800	185 Canal St	  	New York	NY	10013	11.3			No	133741278
2504293	431	555190000	Leg	Reshma		Maharaj	KD54352J	F	3475004614	11/06/1980	Mcdonald Annmarie		1003976341	Clean Air Car Svc & Parking (NYC)	Livery/QN-Med Appt out CMMA	A0100	TN	01/10/2018	01/10/2018	No	2	1		self	3475004614	22.6	01/10/2018	0900	185 Canal St	 	New York	NY	10013	01/10/2018	CALL	10459 121st St	  	South Richmond Hill	NY	11419	11.3			No	133741279
2504293	432	555190000	Service	Reshma		Maharaj	KD54352J	F	3475004614	11/06/1980	Mcdonald Annmarie		1003976341	Clean Air Car Svc & Parking (NYC)	Tolls-Universal	A0170	CG	01/10/2018	01/10/2018	No	2	1																					Tolls-Universal	133741278
2504293	433	555190000	Service	Reshma		Maharaj	KD54352J	F	3475004614	11/06/1980	Mcdonald Annmarie		1003976341	Clean Air Car Svc & Parking (NYC)	Livery-Manhattan Surcharge	A0100	SC	01/10/2018	01/10/2018	No	2	1																					Livery-Manhattan Surcharge	133741278
2504293	434	555190000	Service	Reshma		Maharaj	KD54352J	F	3475004614	11/06/1980	Mcdonald Annmarie		1003976341	Clean Air Car Svc & Parking (NYC)	Livery-Manhattan Surcharge	A0100	SC	01/10/2018	01/10/2018	No	2	1																					Livery-Manhattan Surcharge	133741279
2504293	435	555190000	Service	Reshma		Maharaj	KD54352J	F	3475004614	11/06/1980	Mcdonald Annmarie		1003976341	Clean Air Car Svc & Parking (NYC)	Mileage-Livery in NYC	S0215		01/10/2018	01/10/2018	No	2	1																					Mileage-Livery in NYC	133741278
2504293	436	555190000	Service	Reshma		Maharaj	KD54352J	F	3475004614	11/06/1980	Mcdonald Annmarie		1003976341	Clean Air Car Svc & Parking (NYC)	Mileage-Livery in NYC	S0215		01/10/2018	01/10/2018	No	2	1																					Mileage-Livery in NYC	133741279
2504293	437	555192080	Leg	Reshma		Maharaj	KD54352J	F	3475004614	11/06/1980	Mcdonald Annmarie		1003976341	Clean Air Car Svc & Parking (NYC)	Livery/QN-Med Appt out CMMA	A0100	TN	01/12/2018	01/12/2018	No	2	1		self	3475004614	22.6	01/12/2018	0700	10459 121st St	 	South Richmond Hill	NY	11419	01/12/2018	0800	185 Canal St	  	New York	NY	10013	11.3			No	133741453
2504293	438	555192080	Leg	Reshma		Maharaj	KD54352J	F	3475004614	11/06/1980	Mcdonald Annmarie		1003976341	Clean Air Car Svc & Parking (NYC)	Livery/QN-Med Appt out CMMA	A0100	TN	01/12/2018	01/12/2018	No	2	1		self	3475004614	22.6	01/12/2018	0900	185 Canal St	 	New York	NY	10013	01/12/2018	CALL	10459 121st St	  	South Richmond Hill	NY	11419	11.3			No	133741454
2504293	439	555192080	Service	Reshma		Maharaj	KD54352J	F	3475004614	11/06/1980	Mcdonald Annmarie		1003976341	Clean Air Car Svc & Parking (NYC)	Tolls-Universal	A0170	CG	01/12/2018	01/12/2018	No	2	1																					Tolls-Universal	133741453
2504293	440	555192080	Service	Reshma		Maharaj	KD54352J	F	3475004614	11/06/1980	Mcdonald Annmarie		1003976341	Clean Air Car Svc & Parking (NYC)	Livery-Manhattan Surcharge	A0100	SC	01/12/2018	01/12/2018	No	2	1																					Livery-Manhattan Surcharge	133741453
2504293	441	555192080	Service	Reshma		Maharaj	KD54352J	F	3475004614	11/06/1980	Mcdonald Annmarie		1003976341	Clean Air Car Svc & Parking (NYC)	Livery-Manhattan Surcharge	A0100	SC	01/12/2018	01/12/2018	No	2	1																					Livery-Manhattan Surcharge	133741454
2504293	442	555192080	Service	Reshma		Maharaj	KD54352J	F	3475004614	11/06/1980	Mcdonald Annmarie		1003976341	Clean Air Car Svc & Parking (NYC)	Mileage-Livery in NYC	S0215		01/12/2018	01/12/2018	No	2	1																					Mileage-Livery in NYC	133741453
2504293	443	555192080	Service	Reshma		Maharaj	KD54352J	F	3475004614	11/06/1980	Mcdonald Annmarie		1003976341	Clean Air Car Svc & Parking (NYC)	Mileage-Livery in NYC	S0215		01/12/2018	01/12/2018	No	2	1																					Mileage-Livery in NYC	133741454
2504293	444	555269320	Leg	Anita		Narine	NC09839N	F	(347) 595-1081	05/24/1966	Pham,Shirley		1245559889	Clean Air Car Svc & Parking (NYC)	Livery/QN-Med Appt in CMMA	A0100		01/02/2018	01/02/2018	No	2	1		self	(347) 595-1081		01/02/2018	0730	11017 101st Ave	 home	South Richmond Hill	NY	11419	01/02/2018	0830	9610 Metropolitan Ave	8626088 	Forest Hills	NY	11375	3.4	requesting driver Gabriel or Andy		No	133761880
2504293	445	555269320	Leg	Anita		Narine	NC09839N	F	(347) 595-1081	05/24/1966	Pham,Shirley		1245559889	Clean Air Car Svc & Parking (NYC)	Livery/QN-Med Appt in CMMA	A0100		01/02/2018	01/02/2018	No	2	1		self	(347) 595-1081		01/02/2018	Call	9610 Metropolitan Ave	8626088 	Forest Hills	NY	11375	01/02/2018	Call	11017 101st Ave	  home	South Richmond Hill	NY	11419	3.4			No	133761881
2504293	446	555343080	Leg	Cicely	I	Mclean	PF74602D	F	(202) 701-9441	09/05/1945	NY Presbyterian Hospital		1952332801	Clean Air Car Svc & Parking (NYC)	Livery/BK-Med Appt out CMMA	A0100	TN	01/03/2018	01/03/2018	No	2	1		self	(202) 701-9441	38.8	01/03/2018	1100	558 shepard ave	home 	Brooklyn	NY	11208	01/03/2018	1200	901 Stewart Ave	  main	Garden City	NY	11530	19.4			No	133781114
2504293	447	555343080	Leg	Cicely	I	Mclean	PF74602D	F	(202) 701-9441	09/05/1945	NY Presbyterian Hospital		1952332801	Clean Air Car Svc & Parking (NYC)	Livery/BK-Med Appt out CMMA	A0100	TN	01/03/2018	01/03/2018	No	2	1		self	(202) 701-9441	38.8	01/03/2018	Call	901 Stewart Ave	 main	Garden City	NY	11530	01/03/2018	Call	558 shepard ave	home 	Brooklyn	NY	11208	19.4			No	133781115
2504293	448	555343080	Service	Cicely	I	Mclean	PF74602D	F	(202) 701-9441	09/05/1945	NY Presbyterian Hospital		1952332801	Clean Air Car Svc & Parking (NYC)	Tolls-Universal	A0170	CG	01/03/2018	01/03/2018	No	2	1																					Tolls-Universal	133781114
2504293	449	555343080	Service	Cicely	I	Mclean	PF74602D	F	(202) 701-9441	09/05/1945	NY Presbyterian Hospital		1952332801	Clean Air Car Svc & Parking (NYC)	Mileage-Livery out of NYC	S0215	TN	01/03/2018	01/03/2018	No	2	1																					Mileage-Livery out of NYC	133781114
2504293	450	555343080	Service	Cicely	I	Mclean	PF74602D	F	(202) 701-9441	09/05/1945	NY Presbyterian Hospital		1952332801	Clean Air Car Svc & Parking (NYC)	Mileage-Livery out of NYC	S0215	TN	01/03/2018	01/03/2018	No	2	1																					Mileage-Livery out of NYC	133781115
2504293	451	555403780	Leg	Elizabeth		Mejia	WA51950F	F	3476709092	02/03/1985	CATHOLIC CHARITIES BEHAVIORAL HEALT		1699771477	Clean Air Car Svc & Parking (NYC)	Livery/QN-Med Appt in CMMA	A0100		01/29/2018	01/29/2018	No	4	1		self	3476709092	13.6	01/29/2018	0630	90-36 144th Pl                A1 Ca	 	Jamaica	NY	11435	01/29/2018	0730	7010 Austin St	  	Forest Hills	NY	11375	3.8	1 added rider		No	133797813
2504293	452	555403780	Leg	Elizabeth		Mejia	WA51950F	F	3476709092	02/03/1985	CATHOLIC CHARITIES BEHAVIORAL HEALT		1699771477	Clean Air Car Svc & Parking (NYC)	Livery/QN-Med Appt in CMMA	A0100		01/29/2018	01/29/2018	No	4	1		self	3476709092	13.6	01/29/2018	CALL	7010 Austin St	 	Forest Hills	NY	11375	01/29/2018	0730	90-36 144th Pl                A1 Ca	  	Jamaica	NY	11435	3.8			No	133797814
2504293	453	555403780	Leg	Elizabeth		Mejia	WA51950F	F	3476709092	02/03/1985	CATHOLIC CHARITIES BEHAVIORAL HEALT		1699771477	Clean Air Car Svc & Parking (NYC)	Livery/QN-Med Appt in CMMA	A0100		01/29/2018	01/29/2018	No	4	1		self	3476709092	13.6	01/29/2018	1330	90-36 144th Pl                A1 Ca	 	Jamaica	NY	11435	01/29/2018	1430	6939 Yellowstone Blvd	This trip contains a 	Forest Hills	NY	11375	3.0	Additional Rider		No	137598865
2504293	454	555403780	Leg	Elizabeth		Mejia	WA51950F	F	3476709092	02/03/1985	CATHOLIC CHARITIES BEHAVIORAL HEALT		1699771477	Clean Air Car Svc & Parking (NYC)	Livery/QN-Med Appt in CMMA	A0100		01/29/2018	01/29/2018	No	4	1		self	3476709092	13.6	01/29/2018	Call	6939 Yellowstone Blvd	This trip contains a 	Forest Hills	NY	11375	01/29/2018	Call	90-36 144th Pl                A1 Ca	  	Jamaica	NY	11435	3.0			No	137598866
2504293	455	555500900	Leg	Petronila		Mejia	WA51990P	F	(347) 670-9092	09/24/1950	Queens Hospital	000	1801803903	Clean Air Car Svc & Parking (NYC)	Livery/QN-Med Appt in CMMA	A0100		01/02/2018	01/02/2018	No	2	1		elisabeth/daughter	(347) 670-9092	4.0	01/02/2018	0800	10712 166th St	 	Jamaica	NY	11433	01/02/2018	0900	13303 Jamaica Ave	  main	Richmond Hill	NY	11418	2.0	Additional Rider		No	133819138
2504293	456	555500900	Leg	Petronila		Mejia	WA51990P	F	(347) 670-9092	09/24/1950	Queens Hospital	000	1801803903	Clean Air Car Svc & Parking (NYC)	Livery/QN-Med Appt in CMMA	A0100		01/02/2018	01/02/2018	No	2	1		elisabeth/daughter	(347) 670-9092	4.0	01/02/2018	Call	13303 Jamaica Ave	 main	Richmond Hill	NY	11418	01/02/2018	Call	10712 166th St	  	Jamaica	NY	11433	2.0			No	133819139
2504293	457	555501030	Leg	Patricia		Dern	XE54056B	F	7187994051	03/30/1956	FLUSHING HOSPITAL MENTAL HEALTH		1811199342	Clean Air Car Svc & Parking (NYC)	Livery/QN-Med Appt in CMMA	A0100		01/04/2018	01/04/2018	No	2	1		self	7187994051	5.6	01/04/2018	1000	1527 Murray St	 	Whitestone	NY	11357	01/04/2018	1100	14601 45th Ave	  	Flushing	NY	11355	2.8			No	133819314
2504293	458	555501030	Leg	Patricia		Dern	XE54056B	F	7187994051	03/30/1956	FLUSHING HOSPITAL MENTAL HEALTH		1811199342	Clean Air Car Svc & Parking (NYC)	Livery/QN-Med Appt in CMMA	A0100		01/04/2018	01/04/2018	No	2	1		self	7187994051	5.6	01/04/2018	CALL	14601 45th Ave	 	Flushing	NY	11355	01/04/2018	1100	1527 Murray St	  	Whitestone	NY	11357	2.8			No	133819315
2504293	459	555583600	Leg	Maylene	A	Hawkinslingo	PT03668K	F	(631) 336-4112	09/14/2009	Queens Hospital	000	1801803903	Clean Air Car Svc & Parking (NYC)	Livery/MN-Med Appt out CMMA	A0100	TN	01/02/2018	01/02/2018	No	2	1		Unique/Mother	(631) 336-4112	41.0	01/02/2018	1300	25 Pine St	 	New York	NY	10005	01/02/2018	1400	1983 Marcus Ave	  	New Hyde Park	NY	11042	20.5	1 Additional rider(s). Additional Rider		No	133843866
2504293	460	555583600	Leg	Maylene	A	Hawkinslingo	PT03668K	F	(631) 336-4112	09/14/2009	Queens Hospital	000	1801803903	Clean Air Car Svc & Parking (NYC)	Livery/MN-Med Appt out CMMA	A0100	TN	01/02/2018	01/02/2018	No	2	1		Unique/Mother	(631) 336-4112	41.0	01/02/2018	Call	1983 Marcus Ave	 	New Hyde Park	NY	11042	01/02/2018	Call	25 Pine St	  	New York	NY	10005	20.5	1 Additional rider(s). Additional Rider		No	133843867
2504293	461	555583600	Service	Maylene	A	Hawkinslingo	PT03668K	F	(631) 336-4112	09/14/2009	Queens Hospital	000	1801803903	Clean Air Car Svc & Parking (NYC)	Tolls-Universal	A0170	CG	01/02/2018	01/02/2018	No	2	1																					Tolls-Universal	133843866
2504293	462	555583600	Service	Maylene	A	Hawkinslingo	PT03668K	F	(631) 336-4112	09/14/2009	Queens Hospital	000	1801803903	Clean Air Car Svc & Parking (NYC)	Livery-Manhattan Surcharge	A0100	SC	01/02/2018	01/02/2018	No	2	1																					Livery-Manhattan Surcharge	133843866
2504293	463	555583600	Service	Maylene	A	Hawkinslingo	PT03668K	F	(631) 336-4112	09/14/2009	Queens Hospital	000	1801803903	Clean Air Car Svc & Parking (NYC)	Livery-Manhattan Surcharge	A0100	SC	01/02/2018	01/02/2018	No	2	1																					Livery-Manhattan Surcharge	133843867
2504293	464	555583600	Service	Maylene	A	Hawkinslingo	PT03668K	F	(631) 336-4112	09/14/2009	Queens Hospital	000	1801803903	Clean Air Car Svc & Parking (NYC)	Mileage-Livery out of NYC	S0215	TN	01/02/2018	01/02/2018	No	2	1																					Mileage-Livery out of NYC	133843866
2504293	465	555583600	Service	Maylene	A	Hawkinslingo	PT03668K	F	(631) 336-4112	09/14/2009	Queens Hospital	000	1801803903	Clean Air Car Svc & Parking (NYC)	Mileage-Livery out of NYC	S0215	TN	01/02/2018	01/02/2018	No	2	1																					Mileage-Livery out of NYC	133843867
2504293	466	555602780	Leg	John	F	Harmon	ST38406Z	M	(347) 848-5261	01/19/1961	NEWTOWN DIALYSIS CENTER		1013915222	Clean Air Car Svc & Parking (NYC)	Livery/QN-Med Appt in CMMA	A0100		01/03/2018	01/03/2018	No	2	1		self	(347) 848-5261	7.4	01/03/2018	0700	4112 10th St	Apt 2F 	Long Island City	NY	11101	01/03/2018	0800	560 1st Ave	  	New York	NY	10016	3.7	1 Additional rider(s). 1 Additional rider(s). Additional Rider		No	133848098
2504293	467	555602780	Leg	John	F	Harmon	ST38406Z	M	(347) 848-5261	01/19/1961	NEWTOWN DIALYSIS CENTER		1013915222	Clean Air Car Svc & Parking (NYC)	Livery/QN-Med Appt in CMMA	A0100		01/03/2018	01/03/2018	No	2	1		self	(347) 848-5261	7.4	01/03/2018	Call	560 1st Ave	 	New York	NY	10016	01/03/2018	Call	4112 10th St	Apt 2F 	Long Island City	NY	11101	3.7	1 Additional rider(s). 1 Additional rider(s). Additional Rider		No	133848102
2504293	468	555602780	Service	John	F	Harmon	ST38406Z	M	(347) 848-5261	01/19/1961	NEWTOWN DIALYSIS CENTER		1013915222	Clean Air Car Svc & Parking (NYC)	Tolls-Universal	A0170	CG	01/03/2018	01/03/2018	No	2	1																					Tolls-Universal	133848098
2504293	469	555602780	Service	John	F	Harmon	ST38406Z	M	(347) 848-5261	01/19/1961	NEWTOWN DIALYSIS CENTER		1013915222	Clean Air Car Svc & Parking (NYC)	Livery-Manhattan Surcharge	A0100	SC	01/03/2018	01/03/2018	No	2	1																					Livery-Manhattan Surcharge	133848098
2504293	470	555602780	Service	John	F	Harmon	ST38406Z	M	(347) 848-5261	01/19/1961	NEWTOWN DIALYSIS CENTER		1013915222	Clean Air Car Svc & Parking (NYC)	Livery-Manhattan Surcharge	A0100	SC	01/03/2018	01/03/2018	No	2	1																					Livery-Manhattan Surcharge	133848102
2504293	471	555626120	Leg	Fungsin		Chiu	NA77401H	F	(646) 705-5501	07/12/1944	Hon, King-Chen		1447281738	Clean Air Car Svc & Parking (NYC)	Livery/QN-Med Appt in CMMA	A0100		01/02/2018	01/02/2018	No	2	1		grandson	(646) 705-5501	3.4	01/02/2018	1030	18819 Underhill Ave	 -	Fresh Meadows	NY	11365	01/02/2018	1130	16303 Horace Harding Expy	  	Fresh Meadows	NY	11365	1.7	1 Additional rider(s). s/o thur fri, Additional Rider		No	133853692
2504293	472	555626120	Leg	Fungsin		Chiu	NA77401H	F	(646) 705-5501	07/12/1944	Hon, King-Chen		1447281738	Clean Air Car Svc & Parking (NYC)	Livery/QN-Med Appt in CMMA	A0100		01/02/2018	01/02/2018	No	2	1		grandson	(646) 705-5501	3.4	01/02/2018	Call	16303 Horace Harding Expy	 	Fresh Meadows	NY	11365	01/02/2018	Call	18819 Underhill Ave	  -	Fresh Meadows	NY	11365	1.7	1 Additional rider(s). s/o thur fri, Additional Rider		No	133853694
2504293	473	556081320	Leg	Frances	E	Batista	ZN65296Z	F	(718) 678-7588	02/22/1962	DELIA, JOANNA		1821245689	Clean Air Car Svc & Parking (NYC)	Livery/QN-Med Appt out CMMA	A0100	TN	01/02/2018	01/02/2018	No	2	1		self	(718) 678-7588	38.6	01/02/2018	1030	25964 149th Ave	# 2 	Rosedale	NY	11422	01/02/2018	1130	475 E 72nd St	  	New York	NY	10021	19.3	Additional Rider		No	133961576
2504293	474	556081320	Leg	Frances	E	Batista	ZN65296Z	F	(718) 678-7588	02/22/1962	DELIA, JOANNA		1821245689	Clean Air Car Svc & Parking (NYC)	Livery/QN-Med Appt out CMMA	A0100	TN	01/02/2018	01/02/2018	No	2	1		self	(718) 678-7588	38.6	01/02/2018	Call	475 E 72nd St	 	New York	NY	10021	01/02/2018	Call	25964 149th Ave	# 2 	Rosedale	NY	11422	19.3			No	133961577
2504293	475	556081320	Service	Frances	E	Batista	ZN65296Z	F	(718) 678-7588	02/22/1962	DELIA, JOANNA		1821245689	Clean Air Car Svc & Parking (NYC)	Mileage-Livery in NYC	S0215		01/02/2018	01/02/2018	No	2	1																					Mileage-Livery in NYC	133961576
2504293	476	556081320	Service	Frances	E	Batista	ZN65296Z	F	(718) 678-7588	02/22/1962	DELIA, JOANNA		1821245689	Clean Air Car Svc & Parking (NYC)	Mileage-Livery in NYC	S0215		01/02/2018	01/02/2018	No	2	1																					Mileage-Livery in NYC	133961577
2504293	477	556081320	Service	Frances	E	Batista	ZN65296Z	F	(718) 678-7588	02/22/1962	DELIA, JOANNA		1821245689	Clean Air Car Svc & Parking (NYC)	Tolls-Universal	A0170	CG	01/02/2018	01/02/2018	No	2	1																					Tolls-Universal	133961576
2504293	478	556081320	Service	Frances	E	Batista	ZN65296Z	F	(718) 678-7588	02/22/1962	DELIA, JOANNA		1821245689	Clean Air Car Svc & Parking (NYC)	Livery-Manhattan Surcharge	A0100	SC	01/02/2018	01/02/2018	No	2	1																					Livery-Manhattan Surcharge	133961576
2504293	479	556081320	Service	Frances	E	Batista	ZN65296Z	F	(718) 678-7588	02/22/1962	DELIA, JOANNA		1821245689	Clean Air Car Svc & Parking (NYC)	Livery-Manhattan Surcharge	A0100	SC	01/02/2018	01/02/2018	No	2	1																					Livery-Manhattan Surcharge	133961577
2504293	480	556418080	Leg	Leonora		Pena	XF63816N	F	(212) 928-9024	07/30/1928	NY Presbyterian Hospital	0000000	1952332801	Clean Air Car Svc & Parking (NYC)	Livery/MN-Med Appt out CMMA	A0100	TN	01/02/2018	01/02/2018	No	2	1		Alejandrina - Daughter	(212) 928-9024	19.2	01/02/2018	1300	524 W 184th St	Apt # 1A 	New York	NY	10033	01/02/2018	1400	200 Avenue C	  -	New York	NY	10009	9.6	+1, Additional Rider		No	134047042
2504293	481	556418080	Leg	Leonora		Pena	XF63816N	F	(212) 928-9024	07/30/1928	NY Presbyterian Hospital	0000000	1952332801	Clean Air Car Svc & Parking (NYC)	Livery/MN-Med Appt out CMMA	A0100	TN	01/02/2018	01/02/2018	No	2	1		Alejandrina - Daughter	(212) 928-9024	19.2	01/02/2018	Call	200 Avenue C	 -	New York	NY	10009	01/02/2018	Call	524 W 184th St	Apt # 1A 	New York	NY	10033	9.6			No	134047043
2504293	482	556418080	Service	Leonora		Pena	XF63816N	F	(212) 928-9024	07/30/1928	NY Presbyterian Hospital	0000000	1952332801	Clean Air Car Svc & Parking (NYC)	Livery-Manhattan Surcharge	A0100	SC	01/02/2018	01/02/2018	No	2	1																					Livery-Manhattan Surcharge	134047042
2504293	483	556418080	Service	Leonora		Pena	XF63816N	F	(212) 928-9024	07/30/1928	NY Presbyterian Hospital	0000000	1952332801	Clean Air Car Svc & Parking (NYC)	Livery-Manhattan Surcharge	A0100	SC	01/02/2018	01/02/2018	No	2	1																					Livery-Manhattan Surcharge	134047043
2504293	484	556418080	Service	Leonora		Pena	XF63816N	F	(212) 928-9024	07/30/1928	NY Presbyterian Hospital	0000000	1952332801	Clean Air Car Svc & Parking (NYC)	Mileage-Livery in NYC	S0215		01/02/2018	01/02/2018	No	2	1																					Mileage-Livery in NYC	134047042
2504293	485	556418080	Service	Leonora		Pena	XF63816N	F	(212) 928-9024	07/30/1928	NY Presbyterian Hospital	0000000	1952332801	Clean Air Car Svc & Parking (NYC)	Mileage-Livery in NYC	S0215		01/02/2018	01/02/2018	No	2	1																					Mileage-Livery in NYC	134047043
2504293	486	556609350	Leg	Lady	J	Uzuriaga	PD06322U	F	(516) 784-3372	12/08/1988	Sclafani Lisa		1902881584	Clean Air Car Svc & Parking (NYC)	Livery/QN-Med Appt out CMMA	A0100	TN	01/03/2018	01/03/2018	No	2	1		self	(516) 784-3372	26.0	01/03/2018	0700	13541 Lefferts Blvd	# 1 	South Ozone Park	NY	11420	01/03/2018	0845	425 E 61st St	  mani	New York	NY	10065	13.0			No	134095874
2504293	487	556609350	Leg	Lady	J	Uzuriaga	PD06322U	F	(516) 784-3372	12/08/1988	Sclafani Lisa		1902881584	Clean Air Car Svc & Parking (NYC)	Livery/QN-Med Appt out CMMA	A0100	TN	01/03/2018	01/03/2018	No	2	1		self	(516) 784-3372	26.0	01/03/2018	call	425 E 61st St	 	New York	NY	10065	01/03/2018	Call	13541 Lefferts Blvd	# 1 	South Ozone Park	NY	11420	13.0			No	134096745
2504293	488	556609350	Service	Lady	J	Uzuriaga	PD06322U	F	(516) 784-3372	12/08/1988	Sclafani Lisa		1902881584	Clean Air Car Svc & Parking (NYC)	Mileage-Livery in NYC	S0215		01/03/2018	01/03/2018	No	2	1																					Mileage-Livery in NYC	134095874
2504293	489	556609350	Service	Lady	J	Uzuriaga	PD06322U	F	(516) 784-3372	12/08/1988	Sclafani Lisa		1902881584	Clean Air Car Svc & Parking (NYC)	Mileage-Livery in NYC	S0215		01/03/2018	01/03/2018	No	2	1																					Mileage-Livery in NYC	134096745
2504293	490	556609350	Service	Lady	J	Uzuriaga	PD06322U	F	(516) 784-3372	12/08/1988	Sclafani Lisa		1902881584	Clean Air Car Svc & Parking (NYC)	Tolls-Universal	A0170	CG	01/03/2018	01/03/2018	No	2	1																					Tolls-Universal	134095874
2504293	491	556609350	Service	Lady	J	Uzuriaga	PD06322U	F	(516) 784-3372	12/08/1988	Sclafani Lisa		1902881584	Clean Air Car Svc & Parking (NYC)	Livery-Manhattan Surcharge	A0100	SC	01/03/2018	01/03/2018	No	2	1																					Livery-Manhattan Surcharge	134095874
2504293	492	556609350	Service	Lady	J	Uzuriaga	PD06322U	F	(516) 784-3372	12/08/1988	Sclafani Lisa		1902881584	Clean Air Car Svc & Parking (NYC)	Livery-Manhattan Surcharge	A0100	SC	01/03/2018	01/03/2018	No	2	1																					Livery-Manhattan Surcharge	134096745
2504293	493	556702030	Leg	Eileen	B	Cullen	UA80585H	F	7182055562	02/17/1957	Bronx Lebanon Hospital	000	1538230073	Clean Air Car Svc & Parking (NYC)	Livery/QN-Med Appt out CMMA	A0100	TN	01/11/2018	01/11/2018	No	2	1		aide	7182055562	17.6	01/11/2018	1000	3737 88th St	 	Jackson Heights	NY	11372	01/11/2018	1100	1420 Ferris Pl	  	Bronx	NY	10461	8.8	add1		No	134117005
2504293	494	556702030	Leg	Eileen	B	Cullen	UA80585H	F	7182055562	02/17/1957	Bronx Lebanon Hospital	000	1538230073	Clean Air Car Svc & Parking (NYC)	Livery/QN-Med Appt out CMMA	A0100	TN	01/11/2018	01/11/2018	No	2	1		aide	7182055562	17.6	01/11/2018	CALL	1420 Ferris Pl	 	Bronx	NY	10461	01/11/2018	CALL	3737 88th St	  	Jackson Heights	NY	11372	8.8			No	134117006
2504293	495	556702030	Service	Eileen	B	Cullen	UA80585H	F	7182055562	02/17/1957	Bronx Lebanon Hospital	000	1538230073	Clean Air Car Svc & Parking (NYC)	Tolls-Universal	A0170	CG	01/11/2018	01/11/2018	No	2	1																					Tolls-Universal	134117005
2504293	496	556702030	Service	Eileen	B	Cullen	UA80585H	F	7182055562	02/17/1957	Bronx Lebanon Hospital	000	1538230073	Clean Air Car Svc & Parking (NYC)	Mileage-Livery in NYC	S0215		01/11/2018	01/11/2018	No	2	1																					Mileage-Livery in NYC	134117005
2504293	497	556702030	Service	Eileen	B	Cullen	UA80585H	F	7182055562	02/17/1957	Bronx Lebanon Hospital	000	1538230073	Clean Air Car Svc & Parking (NYC)	Mileage-Livery in NYC	S0215		01/11/2018	01/11/2018	No	2	1																					Mileage-Livery in NYC	134117006
2504293	498	556706380	Leg	Eileen	B	Cullen	UA80585H	F	7182055562	02/17/1957	Bronx Lebanon Hospital	000	1538230073	Clean Air Car Svc & Parking (NYC)	Livery/QN-Med Appt out CMMA	A0100	TN	01/12/2018	01/12/2018	No	2	1		aide	7182055562	17.6	01/12/2018	1000	3737 88th St	 	Jackson Heights	NY	11372	01/12/2018	1100	1420 Ferris Pl	  	Bronx	NY	10461	8.8	add1		No	134118103
2504293	499	556706380	Leg	Eileen	B	Cullen	UA80585H	F	7182055562	02/17/1957	Bronx Lebanon Hospital	000	1538230073	Clean Air Car Svc & Parking (NYC)	Livery/QN-Med Appt out CMMA	A0100	TN	01/12/2018	01/12/2018	No	2	1		aide	7182055562	17.6	01/12/2018	CALL	1420 Ferris Pl	 	Bronx	NY	10461	01/12/2018	CALL	3737 88th St	  	Jackson Heights	NY	11372	8.8			No	134118104
2504293	500	556706380	Service	Eileen	B	Cullen	UA80585H	F	7182055562	02/17/1957	Bronx Lebanon Hospital	000	1538230073	Clean Air Car Svc & Parking (NYC)	Tolls-Universal	A0170	CG	01/12/2018	01/12/2018	No	2	1																					Tolls-Universal	134118103
2504293	501	556706380	Service	Eileen	B	Cullen	UA80585H	F	7182055562	02/17/1957	Bronx Lebanon Hospital	000	1538230073	Clean Air Car Svc & Parking (NYC)	Mileage-Livery in NYC	S0215		01/12/2018	01/12/2018	No	2	1																					Mileage-Livery in NYC	134118103
2504293	502	556706380	Service	Eileen	B	Cullen	UA80585H	F	7182055562	02/17/1957	Bronx Lebanon Hospital	000	1538230073	Clean Air Car Svc & Parking (NYC)	Mileage-Livery in NYC	S0215		01/12/2018	01/12/2018	No	2	1																					Mileage-Livery in NYC	134118104
2504293	503	556711920	Leg	Eileen	B	Cullen	UA80585H	F	7182055562	02/17/1957	Bronx Lebanon Hospital	000	1538230073	Clean Air Car Svc & Parking (NYC)	Livery/QN-Med Appt out CMMA	A0100	TN	01/26/2018	01/26/2018	No	2	1		aide	7182055562	17.6	01/26/2018	1000	3737 88th St	 	Jackson Heights	NY	11372	01/26/2018	1100	1420 Ferris Pl	  	Bronx	NY	10461	8.8	add1		No	134119588
2504293	504	556711920	Leg	Eileen	B	Cullen	UA80585H	F	7182055562	02/17/1957	Bronx Lebanon Hospital	000	1538230073	Clean Air Car Svc & Parking (NYC)	Livery/QN-Med Appt out CMMA	A0100	TN	01/26/2018	01/26/2018	No	2	1		aide	7182055562	17.6	01/26/2018	CALL	1420 Ferris Pl	 	Bronx	NY	10461	01/26/2018	CALL	3737 88th St	  	Jackson Heights	NY	11372	8.8			No	134119590
2504293	505	556711920	Service	Eileen	B	Cullen	UA80585H	F	7182055562	02/17/1957	Bronx Lebanon Hospital	000	1538230073	Clean Air Car Svc & Parking (NYC)	Tolls-Universal	A0170	CG	01/26/2018	01/26/2018	No	2	1																					Tolls-Universal	134119588
2504293	506	556711920	Service	Eileen	B	Cullen	UA80585H	F	7182055562	02/17/1957	Bronx Lebanon Hospital	000	1538230073	Clean Air Car Svc & Parking (NYC)	Mileage-Livery in NYC	S0215		01/26/2018	01/26/2018	No	2	1																					Mileage-Livery in NYC	134119588
2504293	507	556711920	Service	Eileen	B	Cullen	UA80585H	F	7182055562	02/17/1957	Bronx Lebanon Hospital	000	1538230073	Clean Air Car Svc & Parking (NYC)	Mileage-Livery in NYC	S0215		01/26/2018	01/26/2018	No	2	1																					Mileage-Livery in NYC	134119590
2504293	508	556732470	Leg	Linda	L	Hagins	ZV28817E	F	(929) 287-6303	07/31/1954	Bronx Lebanon Hospital	000	1538230073	Clean Air Car Svc & Parking (NYC)	Livery/BX-Med Appt out CMMA	A0100	TN	01/24/2018	01/24/2018	No	2	1		-	(929) 287-6303	15.0	01/24/2018	1300	1805 Clinton Ave	Apt 1B 	Bronx	NY	10457	01/24/2018	1400	17 E 102nd St	  -	New York	NY	10029	7.5			No	134125690
2504293	509	556732470	Leg	Linda	L	Hagins	ZV28817E	F	(929) 287-6303	07/31/1954	Bronx Lebanon Hospital	000	1538230073	Clean Air Car Svc & Parking (NYC)	Livery/BX-Med Appt out CMMA	A0100	TN	01/24/2018	01/24/2018	No	2	1		-	(929) 287-6303	15.0	01/24/2018	Call	17 E 102nd St	 -	New York	NY	10029	01/24/2018	Call	1805 Clinton Ave	Apt 1B 	Bronx	NY	10457	7.5			No	134125691
2504293	510	556732470	Service	Linda	L	Hagins	ZV28817E	F	(929) 287-6303	07/31/1954	Bronx Lebanon Hospital	000	1538230073	Clean Air Car Svc & Parking (NYC)	Tolls-Universal	A0170	CG	01/24/2018	01/24/2018	No	2	1																					Tolls-Universal	134125690
2504293	511	556732470	Service	Linda	L	Hagins	ZV28817E	F	(929) 287-6303	07/31/1954	Bronx Lebanon Hospital	000	1538230073	Clean Air Car Svc & Parking (NYC)	Livery-Manhattan Surcharge	A0100	SC	01/24/2018	01/24/2018	No	2	1																					Livery-Manhattan Surcharge	134125690
2504293	512	556732470	Service	Linda	L	Hagins	ZV28817E	F	(929) 287-6303	07/31/1954	Bronx Lebanon Hospital	000	1538230073	Clean Air Car Svc & Parking (NYC)	Livery-Manhattan Surcharge	A0100	SC	01/24/2018	01/24/2018	No	2	1																					Livery-Manhattan Surcharge	134125691
2504293	513	556895730	Leg	Rosa	M	Santiago	SK42824S	F	(347) 529-4306	11/18/1953	Habal Rania		1407904741	Clean Air Car Svc & Parking (NYC)	Livery/QN-Med Appt out CMMA	A0100	TN	01/05/2018	01/05/2018	No	2	1		same	(347) 529-4306	12.0	01/05/2018	1000	1683 Gates Ave	# 1B 	Ridgewood	NY	11385	01/05/2018	1100	11602 Queens Blvd	  	Forest Hills	NY	11375	6.0	Additional Rider		No	134170775
2504293	514	556895730	Leg	Rosa	M	Santiago	SK42824S	F	(347) 529-4306	11/18/1953	Habal Rania		1407904741	Clean Air Car Svc & Parking (NYC)	Livery/QN-Med Appt out CMMA	A0100	TN	01/05/2018	01/05/2018	No	2	1		same	(347) 529-4306	12.0	01/05/2018	Call	11602 Queens Blvd	 	Forest Hills	NY	11375	01/05/2018	Call	1683 Gates Ave	# 1B 	Ridgewood	NY	11385	6.0			No	134170776
2504293	515	557243650	Leg	Debjani		Dutta  Gupta	NT50720D	F	(718) 591-6410	02/17/1937	TLC Clove Lake Physical Therapy		1659549715	Clean Air Car Svc & Parking (NYC)	Livery/QN-Med Appt out CMMA	A0100	TN	01/24/2018	01/24/2018	No	2	1		shamita	(718) 591-6410	10.8	01/24/2018	1000	18215 69th Ave	 home	Fresh Meadows	NY	11365	01/24/2018	1100	8720 Queens Blvd	  main	Elmhurst	NY	11373	5.4	1 Additional rider(s). one, Additional Rider		No	134256467
2504293	516	557243650	Leg	Debjani		Dutta  Gupta	NT50720D	F	(718) 591-6410	02/17/1937	TLC Clove Lake Physical Therapy		1659549715	Clean Air Car Svc & Parking (NYC)	Livery/QN-Med Appt out CMMA	A0100	TN	01/24/2018	01/24/2018	No	2	1		shamita	(718) 591-6410	10.8	01/24/2018	Call	8720 Queens Blvd	 main	Elmhurst	NY	11373	01/24/2018	Call	18215 69th Ave	  home	Fresh Meadows	NY	11365	5.4	1 Additional rider(s). one, Additional Rider		No	134256481
2504293	517	557369220	Leg	Frances	E	Batista	ZN65296Z	F	(718) 678-7588	02/22/1962	DELIA, JOANNA		1821245689	Clean Air Car Svc & Parking (NYC)	Livery/QN-Med Appt out CMMA	A0100	TN	01/04/2018	01/04/2018	No	2	1		self	(718) 678-7588	22.4	01/04/2018	1110	25964 149th Ave	# 2 	Rosedale	NY	11422	01/04/2018	1210	9131 Queens Blvd	  fr	Elmhurst	NY	11373	11.2	Additional Rider		No	134293709
2504293	518	557369220	Leg	Frances	E	Batista	ZN65296Z	F	(718) 678-7588	02/22/1962	DELIA, JOANNA		1821245689	Clean Air Car Svc & Parking (NYC)	Livery/QN-Med Appt out CMMA	A0100	TN	01/04/2018	01/04/2018	No	2	1		self	(718) 678-7588	22.4	01/04/2018	Call	9131 Queens Blvd	 fr	Elmhurst	NY	11373	01/04/2018	Call	25964 149th Ave	# 2 	Rosedale	NY	11422	11.2			No	134293710
2504293	519	557369220	Service	Frances	E	Batista	ZN65296Z	F	(718) 678-7588	02/22/1962	DELIA, JOANNA		1821245689	Clean Air Car Svc & Parking (NYC)	Mileage-Livery in NYC	S0215		01/04/2018	01/04/2018	No	2	1																					Mileage-Livery in NYC	134293709
2504293	520	557369220	Service	Frances	E	Batista	ZN65296Z	F	(718) 678-7588	02/22/1962	DELIA, JOANNA		1821245689	Clean Air Car Svc & Parking (NYC)	Mileage-Livery in NYC	S0215		01/04/2018	01/04/2018	No	2	1																					Mileage-Livery in NYC	134293710
2504293	521	557435780	Leg	Frances	E	Batista	ZN65296Z	F	(718) 678-7588	02/22/1962	DELIA, JOANNA		1821245689	Clean Air Car Svc & Parking (NYC)	Livery/QN-Med Appt out CMMA	A0100	TN	01/03/2018	01/03/2018	Yes	2	1		self	(718) 678-7588	33.6	01/03/2018	1000	25964 149th Ave	# 2 	Rosedale	NY	11422	01/03/2018	1100	2753 Coney Island Ave	  main	Brooklyn	NY	11235	16.8			No	134311451
2504293	522	557435780	Leg	Frances	E	Batista	ZN65296Z	F	(718) 678-7588	02/22/1962	DELIA, JOANNA		1821245689	Clean Air Car Svc & Parking (NYC)	Livery/QN-Med Appt out CMMA	A0100	TN	01/03/2018	01/03/2018	Yes	2	1		self	(718) 678-7588	33.6	01/03/2018	Call	2753 Coney Island Ave	 main	Brooklyn	NY	11235	01/03/2018	Call	25964 149th Ave	# 2 	Rosedale	NY	11422	16.8			No	134311452
2504293	523	557435780	Service	Frances	E	Batista	ZN65296Z	F	(718) 678-7588	02/22/1962	DELIA, JOANNA		1821245689	Clean Air Car Svc & Parking (NYC)	Mileage-Livery in NYC	S0215		01/03/2018	01/03/2018	Yes	2	1																					Mileage-Livery in NYC	134311451
2504293	524	557435780	Service	Frances	E	Batista	ZN65296Z	F	(718) 678-7588	02/22/1962	DELIA, JOANNA		1821245689	Clean Air Car Svc & Parking (NYC)	Mileage-Livery in NYC	S0215		01/03/2018	01/03/2018	Yes	2	1																					Mileage-Livery in NYC	134311452
2504293	525	557435780	Service	Frances	E	Batista	ZN65296Z	F	(718) 678-7588	02/22/1962	DELIA, JOANNA		1821245689	Clean Air Car Svc & Parking (NYC)	Tolls-Universal	A0170	CG	01/03/2018	01/03/2018	Yes	2	1																					Tolls-Universal	134311451
2504293	526	557453180	Leg	Frances	E	Batista	ZN65296Z	F	(718) 678-7588	02/22/1962	DELIA, JOANNA		1821245689	Clean Air Car Svc & Parking (NYC)	Livery/QN-Med Appt out CMMA	A0100	TN	01/11/2018	01/11/2018	No	2	1		self	(718) 678-7588	22.4	01/11/2018	1110	25964 149th Ave	# 2 	Rosedale	NY	11422	01/11/2018	1210	9131 Queens Blvd	  fr	Elmhurst	NY	11373	11.2	Additional Rider		No	134317582
2504293	527	557453180	Leg	Frances	E	Batista	ZN65296Z	F	(718) 678-7588	02/22/1962	DELIA, JOANNA		1821245689	Clean Air Car Svc & Parking (NYC)	Livery/QN-Med Appt out CMMA	A0100	TN	01/11/2018	01/11/2018	No	2	1		self	(718) 678-7588	22.4	01/11/2018	Call	9131 Queens Blvd	 fr	Elmhurst	NY	11373	01/11/2018	Call	25964 149th Ave	# 2 	Rosedale	NY	11422	11.2			No	134317583
2504293	528	557453180	Service	Frances	E	Batista	ZN65296Z	F	(718) 678-7588	02/22/1962	DELIA, JOANNA		1821245689	Clean Air Car Svc & Parking (NYC)	Mileage-Livery in NYC	S0215		01/11/2018	01/11/2018	No	2	1																					Mileage-Livery in NYC	134317582
2504293	529	557453180	Service	Frances	E	Batista	ZN65296Z	F	(718) 678-7588	02/22/1962	DELIA, JOANNA		1821245689	Clean Air Car Svc & Parking (NYC)	Mileage-Livery in NYC	S0215		01/11/2018	01/11/2018	No	2	1																					Mileage-Livery in NYC	134317583
2504293	530	557485460	Leg	Frances	E	Batista	ZN65296Z	F	(718) 678-7588	02/22/1962	DELIA, JOANNA		1821245689	Clean Air Car Svc & Parking (NYC)	Livery/QN-Med Appt out CMMA	A0100	TN	01/18/2018	01/18/2018	Yes	2	1		self	(718) 678-7588	22.4	01/18/2018	1110	25964 149th Ave	# 2 	Rosedale	NY	11422	01/18/2018	1210	9131 Queens Blvd	  fr	Elmhurst	NY	11373	11.2	s/o thur, Additional Rider		No	134327773
2504293	531	557485460	Leg	Frances	E	Batista	ZN65296Z	F	(718) 678-7588	02/22/1962	DELIA, JOANNA		1821245689	Clean Air Car Svc & Parking (NYC)	Livery/QN-Med Appt out CMMA	A0100	TN	01/18/2018	01/18/2018	Yes	2	1		self	(718) 678-7588	22.4	01/18/2018	Call	9131 Queens Blvd	 fr	Elmhurst	NY	11373	01/18/2018	Call	25964 149th Ave	# 2 	Rosedale	NY	11422	11.2			No	134327775
2504293	532	557485460	Service	Frances	E	Batista	ZN65296Z	F	(718) 678-7588	02/22/1962	DELIA, JOANNA		1821245689	Clean Air Car Svc & Parking (NYC)	Mileage-Livery in NYC	S0215		01/18/2018	01/18/2018	Yes	2	1																					Mileage-Livery in NYC	134327773
2504293	533	557485460	Service	Frances	E	Batista	ZN65296Z	F	(718) 678-7588	02/22/1962	DELIA, JOANNA		1821245689	Clean Air Car Svc & Parking (NYC)	Mileage-Livery in NYC	S0215		01/18/2018	01/18/2018	Yes	2	1																					Mileage-Livery in NYC	134327775
2504293	534	557488250	Leg	Frances	E	Batista	ZN65296Z	F	(718) 678-7588	02/22/1962	DELIA, JOANNA		1821245689	Clean Air Car Svc & Parking (NYC)	Livery/QN-Med Appt out CMMA	A0100	TN	01/25/2018	01/25/2018	Yes	2	1		self	(718) 678-7588	22.4	01/25/2018	1110	25964 149th Ave	# 2 	Rosedale	NY	11422	01/25/2018	1210	9131 Queens Blvd	  fr	Elmhurst	NY	11373	11.2	s/o thur, Additional Rider		No	134327780
2504293	535	557488250	Leg	Frances	E	Batista	ZN65296Z	F	(718) 678-7588	02/22/1962	DELIA, JOANNA		1821245689	Clean Air Car Svc & Parking (NYC)	Livery/QN-Med Appt out CMMA	A0100	TN	01/25/2018	01/25/2018	Yes	2	1		self	(718) 678-7588	22.4	01/25/2018	Call	9131 Queens Blvd	 fr	Elmhurst	NY	11373	01/25/2018	Call	25964 149th Ave	# 2 	Rosedale	NY	11422	11.2			No	134327781
2504293	536	557488250	Service	Frances	E	Batista	ZN65296Z	F	(718) 678-7588	02/22/1962	DELIA, JOANNA		1821245689	Clean Air Car Svc & Parking (NYC)	Mileage-Livery in NYC	S0215		01/25/2018	01/25/2018	Yes	2	1																					Mileage-Livery in NYC	134327780
2504293	537	557488250	Service	Frances	E	Batista	ZN65296Z	F	(718) 678-7588	02/22/1962	DELIA, JOANNA		1821245689	Clean Air Car Svc & Parking (NYC)	Mileage-Livery in NYC	S0215		01/25/2018	01/25/2018	Yes	2	1																					Mileage-Livery in NYC	134327781
2504293	538	557506530	Leg	Frances	E	Batista	ZN65296Z	F	(718) 678-7588	02/22/1962	DELIA, JOANNA		1821245689	Clean Air Car Svc & Parking (NYC)	Livery/QN-Med Appt out CMMA	A0100	TN	01/06/2018	01/06/2018	Yes	2	1		self	(718) 678-7588	33.6	01/06/2018	1000	25964 149th Ave	# 2 	Rosedale	NY	11422	01/06/2018	1100	2753 Coney Island Ave	  main	Brooklyn	NY	11235	16.8			No	134311453
2504293	539	557506530	Leg	Frances	E	Batista	ZN65296Z	F	(718) 678-7588	02/22/1962	DELIA, JOANNA		1821245689	Clean Air Car Svc & Parking (NYC)	Livery/QN-Med Appt out CMMA	A0100	TN	01/06/2018	01/06/2018	Yes	2	1		self	(718) 678-7588	33.6	01/06/2018	Call	2753 Coney Island Ave	 main	Brooklyn	NY	11235	01/06/2018	Call	25964 149th Ave	# 2 	Rosedale	NY	11422	16.8			No	134311454
2504293	540	557506530	Service	Frances	E	Batista	ZN65296Z	F	(718) 678-7588	02/22/1962	DELIA, JOANNA		1821245689	Clean Air Car Svc & Parking (NYC)	Mileage-Livery in NYC	S0215		01/06/2018	01/06/2018	Yes	2	1																					Mileage-Livery in NYC	134311453
2504293	541	557506530	Service	Frances	E	Batista	ZN65296Z	F	(718) 678-7588	02/22/1962	DELIA, JOANNA		1821245689	Clean Air Car Svc & Parking (NYC)	Mileage-Livery in NYC	S0215		01/06/2018	01/06/2018	Yes	2	1																					Mileage-Livery in NYC	134311454
2504293	542	557506530	Service	Frances	E	Batista	ZN65296Z	F	(718) 678-7588	02/22/1962	DELIA, JOANNA		1821245689	Clean Air Car Svc & Parking (NYC)	Tolls-Universal	A0170	CG	01/06/2018	01/06/2018	Yes	2	1																					Tolls-Universal	134311453
2504293	543	557506560	Leg	Frances	E	Batista	ZN65296Z	F	(718) 678-7588	02/22/1962	DELIA, JOANNA		1821245689	Clean Air Car Svc & Parking (NYC)	Livery/QN-Med Appt out CMMA	A0100	TN	01/08/2018	01/08/2018	Yes	4	1		self	(718) 678-7588	60.4	01/08/2018	1000	25964 149th Ave	# 2 	Rosedale	NY	11422	01/08/2018	1100	2753 Coney Island Ave	  main	Brooklyn	NY	11235	16.8			No	134311455
2504293	544	557506560	Leg	Frances	E	Batista	ZN65296Z	F	(718) 678-7588	02/22/1962	DELIA, JOANNA		1821245689	Clean Air Car Svc & Parking (NYC)	Livery/QN-Med Appt out CMMA	A0100	TN	01/08/2018	01/08/2018	Yes	4	1		self	(718) 678-7588	60.4	01/08/2018	Call	2753 Coney Island Ave	 main	Brooklyn	NY	11235	01/08/2018	Call	25964 149th Ave	# 2 	Rosedale	NY	11422	16.8			No	134311456
2504293	545	557506560	Leg	Frances	E	Batista	ZN65296Z	F	(718) 678-7588	02/22/1962	DELIA, JOANNA		1821245689	Clean Air Car Svc & Parking (NYC)	Livery/QN-Med Appt out CMMA	A0100	TN	01/08/2018	01/08/2018	Yes	4	1		self	(718) 678-7588	60.4	01/08/2018	1400	25964 149th Ave	# 2 	Rosedale	NY	11422	01/08/2018	1500	5123 A Queens Blvd	  	Woodside	NY	11377	13.4			No	135723743
2504293	546	557506560	Leg	Frances	E	Batista	ZN65296Z	F	(718) 678-7588	02/22/1962	DELIA, JOANNA		1821245689	Clean Air Car Svc & Parking (NYC)	Livery/QN-Med Appt out CMMA	A0100	TN	01/08/2018	01/08/2018	Yes	4	1		self	(718) 678-7588	60.4	01/08/2018	Call	5123 A Queens Blvd	 front	Woodside	NY	11377	01/08/2018	Call	25964 149th Ave	# 2 	Rosedale	NY	11422	13.4			No	135723744
2504293	547	557506560	Service	Frances	E	Batista	ZN65296Z	F	(718) 678-7588	02/22/1962	DELIA, JOANNA		1821245689	Clean Air Car Svc & Parking (NYC)	Mileage-Livery in NYC	S0215		01/08/2018	01/08/2018	Yes	4	1																					Mileage-Livery in NYC	134311455
2504293	548	557506560	Service	Frances	E	Batista	ZN65296Z	F	(718) 678-7588	02/22/1962	DELIA, JOANNA		1821245689	Clean Air Car Svc & Parking (NYC)	Mileage-Livery in NYC	S0215		01/08/2018	01/08/2018	Yes	4	1																					Mileage-Livery in NYC	134311456
2504293	549	557506560	Service	Frances	E	Batista	ZN65296Z	F	(718) 678-7588	02/22/1962	DELIA, JOANNA		1821245689	Clean Air Car Svc & Parking (NYC)	Tolls-Universal	A0170	CG	01/08/2018	01/08/2018	Yes	4	1																					Tolls-Universal	134311455
2504293	550	557506560	Service	Frances	E	Batista	ZN65296Z	F	(718) 678-7588	02/22/1962	DELIA, JOANNA		1821245689	Clean Air Car Svc & Parking (NYC)	Mileage-Livery out of NYC	S0215	TN	01/08/2018	01/08/2018	Yes	4	1																					Mileage-Livery out of NYC	135723743
2504293	551	557506560	Service	Frances	E	Batista	ZN65296Z	F	(718) 678-7588	02/22/1962	DELIA, JOANNA		1821245689	Clean Air Car Svc & Parking (NYC)	Mileage-Livery out of NYC	S0215	TN	01/08/2018	01/08/2018	Yes	4	1																					Mileage-Livery out of NYC	135723744
2504293	552	557506570	Leg	Frances	E	Batista	ZN65296Z	F	(718) 678-7588	02/22/1962	DELIA, JOANNA		1821245689	Clean Air Car Svc & Parking (NYC)	Livery/QN-Med Appt out CMMA	A0100	TN	01/10/2018	01/10/2018	Yes	2	1		self	(718) 678-7588	33.6	01/10/2018	1000	25964 149th Ave	# 2 	Rosedale	NY	11422	01/10/2018	1100	2753 Coney Island Ave	  main	Brooklyn	NY	11235	16.8			No	134311457
2504293	553	557506570	Leg	Frances	E	Batista	ZN65296Z	F	(718) 678-7588	02/22/1962	DELIA, JOANNA		1821245689	Clean Air Car Svc & Parking (NYC)	Livery/QN-Med Appt out CMMA	A0100	TN	01/10/2018	01/10/2018	Yes	2	1		self	(718) 678-7588	33.6	01/10/2018	Call	2753 Coney Island Ave	 main	Brooklyn	NY	11235	01/10/2018	Call	25964 149th Ave	# 2 	Rosedale	NY	11422	16.8			No	134311458
2504293	554	557506570	Service	Frances	E	Batista	ZN65296Z	F	(718) 678-7588	02/22/1962	DELIA, JOANNA		1821245689	Clean Air Car Svc & Parking (NYC)	Mileage-Livery in NYC	S0215		01/10/2018	01/10/2018	Yes	2	1																					Mileage-Livery in NYC	134311457
2504293	555	557506570	Service	Frances	E	Batista	ZN65296Z	F	(718) 678-7588	02/22/1962	DELIA, JOANNA		1821245689	Clean Air Car Svc & Parking (NYC)	Mileage-Livery in NYC	S0215		01/10/2018	01/10/2018	Yes	2	1																					Mileage-Livery in NYC	134311458
2504293	556	557506570	Service	Frances	E	Batista	ZN65296Z	F	(718) 678-7588	02/22/1962	DELIA, JOANNA		1821245689	Clean Air Car Svc & Parking (NYC)	Tolls-Universal	A0170	CG	01/10/2018	01/10/2018	Yes	2	1																					Tolls-Universal	134311457
2504293	557	557506580	Leg	Frances	E	Batista	ZN65296Z	F	(718) 678-7588	02/22/1962	DELIA, JOANNA		1821245689	Clean Air Car Svc & Parking (NYC)	Livery/QN-Med Appt out CMMA	A0100	TN	01/13/2018	01/13/2018	Yes	2	1		self	(718) 678-7588	33.6	01/13/2018	1000	25964 149th Ave	# 2 	Rosedale	NY	11422	01/13/2018	1100	2753 Coney Island Ave	  main	Brooklyn	NY	11235	16.8			No	134311459
2504293	558	557506580	Leg	Frances	E	Batista	ZN65296Z	F	(718) 678-7588	02/22/1962	DELIA, JOANNA		1821245689	Clean Air Car Svc & Parking (NYC)	Livery/QN-Med Appt out CMMA	A0100	TN	01/13/2018	01/13/2018	Yes	2	1		self	(718) 678-7588	33.6	01/13/2018	Call	2753 Coney Island Ave	 main	Brooklyn	NY	11235	01/13/2018	Call	25964 149th Ave	# 2 	Rosedale	NY	11422	16.8			No	134311460
2504293	559	557506580	Service	Frances	E	Batista	ZN65296Z	F	(718) 678-7588	02/22/1962	DELIA, JOANNA		1821245689	Clean Air Car Svc & Parking (NYC)	Mileage-Livery in NYC	S0215		01/13/2018	01/13/2018	Yes	2	1																					Mileage-Livery in NYC	134311459
2504293	560	557506580	Service	Frances	E	Batista	ZN65296Z	F	(718) 678-7588	02/22/1962	DELIA, JOANNA		1821245689	Clean Air Car Svc & Parking (NYC)	Mileage-Livery in NYC	S0215		01/13/2018	01/13/2018	Yes	2	1																					Mileage-Livery in NYC	134311460
2504293	561	557506580	Service	Frances	E	Batista	ZN65296Z	F	(718) 678-7588	02/22/1962	DELIA, JOANNA		1821245689	Clean Air Car Svc & Parking (NYC)	Tolls-Universal	A0170	CG	01/13/2018	01/13/2018	Yes	2	1																					Tolls-Universal	134311459
2504293	562	557506590	Leg	Frances	E	Batista	ZN65296Z	F	(718) 678-7588	02/22/1962	DELIA, JOANNA		1821245689	Clean Air Car Svc & Parking (NYC)	Livery/QN-Med Appt out CMMA	A0100	TN	01/15/2018	01/15/2018	Yes	2	1		self	(718) 678-7588	33.6	01/15/2018	1000	25964 149th Ave	# 2 	Rosedale	NY	11422	01/15/2018	1100	2753 Coney Island Ave	  main	Brooklyn	NY	11235	16.8			No	134311461
2504293	563	557506590	Leg	Frances	E	Batista	ZN65296Z	F	(718) 678-7588	02/22/1962	DELIA, JOANNA		1821245689	Clean Air Car Svc & Parking (NYC)	Livery/QN-Med Appt out CMMA	A0100	TN	01/15/2018	01/15/2018	Yes	2	1		self	(718) 678-7588	33.6	01/15/2018	Call	2753 Coney Island Ave	 main	Brooklyn	NY	11235	01/15/2018	Call	25964 149th Ave	# 2 	Rosedale	NY	11422	16.8			No	134311462
2504293	564	557506590	Service	Frances	E	Batista	ZN65296Z	F	(718) 678-7588	02/22/1962	DELIA, JOANNA		1821245689	Clean Air Car Svc & Parking (NYC)	Mileage-Livery in NYC	S0215		01/15/2018	01/15/2018	Yes	2	1																					Mileage-Livery in NYC	134311461
2504293	565	557506590	Service	Frances	E	Batista	ZN65296Z	F	(718) 678-7588	02/22/1962	DELIA, JOANNA		1821245689	Clean Air Car Svc & Parking (NYC)	Mileage-Livery in NYC	S0215		01/15/2018	01/15/2018	Yes	2	1																					Mileage-Livery in NYC	134311462
2504293	566	557506590	Service	Frances	E	Batista	ZN65296Z	F	(718) 678-7588	02/22/1962	DELIA, JOANNA		1821245689	Clean Air Car Svc & Parking (NYC)	Tolls-Universal	A0170	CG	01/15/2018	01/15/2018	Yes	2	1																					Tolls-Universal	134311461
2504293	567	557506600	Leg	Frances	E	Batista	ZN65296Z	F	(718) 678-7588	02/22/1962	DELIA, JOANNA		1821245689	Clean Air Car Svc & Parking (NYC)	Livery/QN-Med Appt out CMMA	A0100	TN	01/17/2018	01/17/2018	Yes	2	1		self	(718) 678-7588	33.6	01/17/2018	1000	25964 149th Ave	# 2 	Rosedale	NY	11422	01/17/2018	1100	2753 Coney Island Ave	  main	Brooklyn	NY	11235	16.8			No	134311463
2504293	568	557506600	Leg	Frances	E	Batista	ZN65296Z	F	(718) 678-7588	02/22/1962	DELIA, JOANNA		1821245689	Clean Air Car Svc & Parking (NYC)	Livery/QN-Med Appt out CMMA	A0100	TN	01/17/2018	01/17/2018	Yes	2	1		self	(718) 678-7588	33.6	01/17/2018	Call	2753 Coney Island Ave	 main	Brooklyn	NY	11235	01/17/2018	Call	25964 149th Ave	# 2 	Rosedale	NY	11422	16.8			No	134311464
2504293	569	557506600	Service	Frances	E	Batista	ZN65296Z	F	(718) 678-7588	02/22/1962	DELIA, JOANNA		1821245689	Clean Air Car Svc & Parking (NYC)	Mileage-Livery in NYC	S0215		01/17/2018	01/17/2018	Yes	2	1																					Mileage-Livery in NYC	134311463
2504293	570	557506600	Service	Frances	E	Batista	ZN65296Z	F	(718) 678-7588	02/22/1962	DELIA, JOANNA		1821245689	Clean Air Car Svc & Parking (NYC)	Mileage-Livery in NYC	S0215		01/17/2018	01/17/2018	Yes	2	1																					Mileage-Livery in NYC	134311464
2504293	571	557506600	Service	Frances	E	Batista	ZN65296Z	F	(718) 678-7588	02/22/1962	DELIA, JOANNA		1821245689	Clean Air Car Svc & Parking (NYC)	Tolls-Universal	A0170	CG	01/17/2018	01/17/2018	Yes	2	1																					Tolls-Universal	134311463
2504293	572	557506620	Leg	Frances	E	Batista	ZN65296Z	F	(718) 678-7588	02/22/1962	DELIA, JOANNA		1821245689	Clean Air Car Svc & Parking (NYC)	Livery/QN-Med Appt out CMMA	A0100	TN	01/20/2018	01/20/2018	Yes	2	1		self	(718) 678-7588	33.6	01/20/2018	1000	25964 149th Ave	# 2 	Rosedale	NY	11422	01/20/2018	1100	2753 Coney Island Ave	  main	Brooklyn	NY	11235	16.8			No	134311465
2504293	573	557506620	Leg	Frances	E	Batista	ZN65296Z	F	(718) 678-7588	02/22/1962	DELIA, JOANNA		1821245689	Clean Air Car Svc & Parking (NYC)	Livery/QN-Med Appt out CMMA	A0100	TN	01/20/2018	01/20/2018	Yes	2	1		self	(718) 678-7588	33.6	01/20/2018	Call	2753 Coney Island Ave	 main	Brooklyn	NY	11235	01/20/2018	Call	25964 149th Ave	# 2 	Rosedale	NY	11422	16.8			No	134311466
2504293	574	557506620	Service	Frances	E	Batista	ZN65296Z	F	(718) 678-7588	02/22/1962	DELIA, JOANNA		1821245689	Clean Air Car Svc & Parking (NYC)	Mileage-Livery in NYC	S0215		01/20/2018	01/20/2018	Yes	2	1																					Mileage-Livery in NYC	134311465
2504293	575	557506620	Service	Frances	E	Batista	ZN65296Z	F	(718) 678-7588	02/22/1962	DELIA, JOANNA		1821245689	Clean Air Car Svc & Parking (NYC)	Mileage-Livery in NYC	S0215		01/20/2018	01/20/2018	Yes	2	1																					Mileage-Livery in NYC	134311466
2504293	576	557506620	Service	Frances	E	Batista	ZN65296Z	F	(718) 678-7588	02/22/1962	DELIA, JOANNA		1821245689	Clean Air Car Svc & Parking (NYC)	Tolls-Universal	A0170	CG	01/20/2018	01/20/2018	Yes	2	1																					Tolls-Universal	134311465
2504293	577	557506640	Leg	Frances	E	Batista	ZN65296Z	F	(718) 678-7588	02/22/1962	DELIA, JOANNA		1821245689	Clean Air Car Svc & Parking (NYC)	Livery/QN-Med Appt out CMMA	A0100	TN	01/22/2018	01/22/2018	Yes	2	1		self	(718) 678-7588	33.6	01/22/2018	1000	25964 149th Ave	# 2 	Rosedale	NY	11422	01/22/2018	1100	2753 Coney Island Ave	  main	Brooklyn	NY	11235	16.8			No	134311467
2504293	578	557506640	Leg	Frances	E	Batista	ZN65296Z	F	(718) 678-7588	02/22/1962	DELIA, JOANNA		1821245689	Clean Air Car Svc & Parking (NYC)	Livery/QN-Med Appt out CMMA	A0100	TN	01/22/2018	01/22/2018	Yes	2	1		self	(718) 678-7588	33.6	01/22/2018	Call	2753 Coney Island Ave	 main	Brooklyn	NY	11235	01/22/2018	Call	25964 149th Ave	# 2 	Rosedale	NY	11422	16.8			No	134311468
2504293	579	557506640	Service	Frances	E	Batista	ZN65296Z	F	(718) 678-7588	02/22/1962	DELIA, JOANNA		1821245689	Clean Air Car Svc & Parking (NYC)	Mileage-Livery in NYC	S0215		01/22/2018	01/22/2018	Yes	2	1																					Mileage-Livery in NYC	134311467
2504293	580	557506640	Service	Frances	E	Batista	ZN65296Z	F	(718) 678-7588	02/22/1962	DELIA, JOANNA		1821245689	Clean Air Car Svc & Parking (NYC)	Mileage-Livery in NYC	S0215		01/22/2018	01/22/2018	Yes	2	1																					Mileage-Livery in NYC	134311468
2504293	581	557506640	Service	Frances	E	Batista	ZN65296Z	F	(718) 678-7588	02/22/1962	DELIA, JOANNA		1821245689	Clean Air Car Svc & Parking (NYC)	Tolls-Universal	A0170	CG	01/22/2018	01/22/2018	Yes	2	1																					Tolls-Universal	134311467
2504293	582	557506660	Leg	Frances	E	Batista	ZN65296Z	F	(718) 678-7588	02/22/1962	DELIA, JOANNA		1821245689	Clean Air Car Svc & Parking (NYC)	Livery/QN-Med Appt out CMMA	A0100	TN	01/24/2018	01/24/2018	Yes	2	1		self	(718) 678-7588	33.6	01/24/2018	1000	25964 149th Ave	# 2 	Rosedale	NY	11422	01/24/2018	1100	2753 Coney Island Ave	  main	Brooklyn	NY	11235	16.8			No	134311469
2504293	583	557506660	Leg	Frances	E	Batista	ZN65296Z	F	(718) 678-7588	02/22/1962	DELIA, JOANNA		1821245689	Clean Air Car Svc & Parking (NYC)	Livery/QN-Med Appt out CMMA	A0100	TN	01/24/2018	01/24/2018	Yes	2	1		self	(718) 678-7588	33.6	01/24/2018	Call	2753 Coney Island Ave	 main	Brooklyn	NY	11235	01/24/2018	Call	25964 149th Ave	# 2 	Rosedale	NY	11422	16.8			No	134311470
2504293	584	557506660	Service	Frances	E	Batista	ZN65296Z	F	(718) 678-7588	02/22/1962	DELIA, JOANNA		1821245689	Clean Air Car Svc & Parking (NYC)	Mileage-Livery in NYC	S0215		01/24/2018	01/24/2018	Yes	2	1																					Mileage-Livery in NYC	134311469
2504293	585	557506660	Service	Frances	E	Batista	ZN65296Z	F	(718) 678-7588	02/22/1962	DELIA, JOANNA		1821245689	Clean Air Car Svc & Parking (NYC)	Mileage-Livery in NYC	S0215		01/24/2018	01/24/2018	Yes	2	1																					Mileage-Livery in NYC	134311470
2504293	586	557506660	Service	Frances	E	Batista	ZN65296Z	F	(718) 678-7588	02/22/1962	DELIA, JOANNA		1821245689	Clean Air Car Svc & Parking (NYC)	Tolls-Universal	A0170	CG	01/24/2018	01/24/2018	Yes	2	1																					Tolls-Universal	134311469
2504293	587	557506670	Leg	Frances	E	Batista	ZN65296Z	F	(718) 678-7588	02/22/1962	DELIA, JOANNA		1821245689	Clean Air Car Svc & Parking (NYC)	Livery/QN-Med Appt out CMMA	A0100	TN	01/27/2018	01/27/2018	Yes	3	1		self	(718) 678-7588	50.2	01/27/2018	1000	25964 149th Ave	# 2 	Rosedale	NY	11422	01/27/2018	1100	2753 Coney Island Ave	  main	Brooklyn	NY	11235	16.8	Additional Rider		No	134311471
2504293	588	557506670	Leg	Frances	E	Batista	ZN65296Z	F	(718) 678-7588	02/22/1962	DELIA, JOANNA		1821245689	Clean Air Car Svc & Parking (NYC)	Livery/QN-Med Appt out CMMA	A0100	TN	01/27/2018	01/27/2018	Yes	3	1		self	(718) 678-7588	50.2	01/27/2018	Call	2753 Coney Island Ave	 main	Brooklyn	NY	11235	01/27/2018	1300	13915 34th Ave	  Main Ent.	Flushing	NY	11354	20.7			No	134311472
2504293	589	557506670	Leg	Frances	E	Batista	ZN65296Z	F	(718) 678-7588	02/22/1962	DELIA, JOANNA		1821245689	Clean Air Car Svc & Parking (NYC)	Livery/QN-Med Appt out CMMA	A0100	TN	01/27/2018	01/27/2018	Yes	3	1		self	(718) 678-7588	50.2	01/27/2018	Call	13915 34th Ave	 Main Ent.	Flushing	NY	11354	01/27/2018	Call	25964 149th Ave	# 2 	Rosedale	NY	11422	12.7			No	138603544
2504293	590	557506670	Service	Frances	E	Batista	ZN65296Z	F	(718) 678-7588	02/22/1962	DELIA, JOANNA		1821245689	Clean Air Car Svc & Parking (NYC)	Mileage-Livery in NYC	S0215		01/27/2018	01/27/2018	Yes	3	1																					Mileage-Livery in NYC	134311471
2504293	591	557506670	Service	Frances	E	Batista	ZN65296Z	F	(718) 678-7588	02/22/1962	DELIA, JOANNA		1821245689	Clean Air Car Svc & Parking (NYC)	Mileage-Livery in NYC	S0215		01/27/2018	01/27/2018	Yes	3	1																					Mileage-Livery in NYC	134311472
2504293	592	557506670	Service	Frances	E	Batista	ZN65296Z	F	(718) 678-7588	02/22/1962	DELIA, JOANNA		1821245689	Clean Air Car Svc & Parking (NYC)	Tolls-Universal	A0170	CG	01/27/2018	01/27/2018	Yes	3	1																					Tolls-Universal	134311471
2504293	593	557506670	Service	Frances	E	Batista	ZN65296Z	F	(718) 678-7588	02/22/1962	DELIA, JOANNA		1821245689	Clean Air Car Svc & Parking (NYC)	Mileage-Livery in NYC	S0215		01/27/2018	01/27/2018	Yes	3	1																					Mileage-Livery in NYC	138603544
2504293	594	557506680	Leg	Frances	E	Batista	ZN65296Z	F	(718) 678-7588	02/22/1962	DELIA, JOANNA		1821245689	Clean Air Car Svc & Parking (NYC)	Livery/QN-Med Appt out CMMA	A0100	TN	01/29/2018	01/29/2018	Yes	2	1		self	(718) 678-7588	33.6	01/29/2018	1000	25964 149th Ave	# 2 	Rosedale	NY	11422	01/29/2018	1100	2753 Coney Island Ave	  main	Brooklyn	NY	11235	16.8			No	134311473
2504293	595	557506680	Leg	Frances	E	Batista	ZN65296Z	F	(718) 678-7588	02/22/1962	DELIA, JOANNA		1821245689	Clean Air Car Svc & Parking (NYC)	Livery/QN-Med Appt out CMMA	A0100	TN	01/29/2018	01/29/2018	Yes	2	1		self	(718) 678-7588	33.6	01/29/2018	Call	2753 Coney Island Ave	 main	Brooklyn	NY	11235	01/29/2018	Call	25964 149th Ave	# 2 	Rosedale	NY	11422	16.8			No	134311474
2504293	596	557506680	Service	Frances	E	Batista	ZN65296Z	F	(718) 678-7588	02/22/1962	DELIA, JOANNA		1821245689	Clean Air Car Svc & Parking (NYC)	Mileage-Livery in NYC	S0215		01/29/2018	01/29/2018	Yes	2	1																					Mileage-Livery in NYC	134311473
2504293	597	557506680	Service	Frances	E	Batista	ZN65296Z	F	(718) 678-7588	02/22/1962	DELIA, JOANNA		1821245689	Clean Air Car Svc & Parking (NYC)	Mileage-Livery in NYC	S0215		01/29/2018	01/29/2018	Yes	2	1																					Mileage-Livery in NYC	134311474
2504293	598	557506680	Service	Frances	E	Batista	ZN65296Z	F	(718) 678-7588	02/22/1962	DELIA, JOANNA		1821245689	Clean Air Car Svc & Parking (NYC)	Tolls-Universal	A0170	CG	01/29/2018	01/29/2018	Yes	2	1																					Tolls-Universal	134311473
2504293	599	557506700	Leg	Frances	E	Batista	ZN65296Z	F	(718) 678-7588	02/22/1962	DELIA, JOANNA		1821245689	Clean Air Car Svc & Parking (NYC)	Livery/QN-Med Appt out CMMA	A0100	TN	01/31/2018	01/31/2018	Yes	2	1		self	(718) 678-7588	33.6	01/31/2018	1000	25964 149th Ave	# 2 	Rosedale	NY	11422	01/31/2018	1100	2753 Coney Island Ave	  main	Brooklyn	NY	11235	16.8			No	134311475
2504293	600	557506700	Leg	Frances	E	Batista	ZN65296Z	F	(718) 678-7588	02/22/1962	DELIA, JOANNA		1821245689	Clean Air Car Svc & Parking (NYC)	Livery/QN-Med Appt out CMMA	A0100	TN	01/31/2018	01/31/2018	Yes	2	1		self	(718) 678-7588	33.6	01/31/2018	Call	2753 Coney Island Ave	 main	Brooklyn	NY	11235	01/31/2018	Call	25964 149th Ave	# 2 	Rosedale	NY	11422	16.8			No	134311476
2504293	601	557506700	Service	Frances	E	Batista	ZN65296Z	F	(718) 678-7588	02/22/1962	DELIA, JOANNA		1821245689	Clean Air Car Svc & Parking (NYC)	Mileage-Livery in NYC	S0215		01/31/2018	01/31/2018	Yes	2	1																					Mileage-Livery in NYC	134311475
2504293	602	557506700	Service	Frances	E	Batista	ZN65296Z	F	(718) 678-7588	02/22/1962	DELIA, JOANNA		1821245689	Clean Air Car Svc & Parking (NYC)	Mileage-Livery in NYC	S0215		01/31/2018	01/31/2018	Yes	2	1																					Mileage-Livery in NYC	134311476
2504293	603	557506700	Service	Frances	E	Batista	ZN65296Z	F	(718) 678-7588	02/22/1962	DELIA, JOANNA		1821245689	Clean Air Car Svc & Parking (NYC)	Tolls-Universal	A0170	CG	01/31/2018	01/31/2018	Yes	2	1																					Tolls-Universal	134311475
2504293	604	557654140	Leg	Maylene	A	Hawkinslingo	PT03668K	F	(631) 336-4112	09/14/2009	Queens Hospital	000	1801803903	Clean Air Car Svc & Parking (NYC)	Livery/QN-Med Appt out CMMA	A0100	TN	01/03/2018	01/03/2018	No	2	1		Unique/Mother	(631) 336-4112	41.8	01/03/2018	0940	25 Pine St	other 	New York	NY	10005	01/03/2018	1040	430 Lakeville Rd	8816474 	New Hyde Park	NY	11042	20.9	1 Additional rider(s). Additional Rider		No	134367829
2504293	605	557654140	Leg	Maylene	A	Hawkinslingo	PT03668K	F	(631) 336-4112	09/14/2009	Queens Hospital	000	1801803903	Clean Air Car Svc & Parking (NYC)	Livery/QN-Med Appt out CMMA	A0100	TN	01/03/2018	01/03/2018	No	2	1		Unique/Mother	(631) 336-4112	41.8	01/03/2018	Call	430 Lakeville Rd	8816474 	New Hyde Park	NY	11042	01/03/2018	Call	25 Pine St	other 	New York	NY	10005	20.9	1 Additional rider(s). Additional Rider		No	134367836
2504293	606	557654140	Service	Maylene	A	Hawkinslingo	PT03668K	F	(631) 336-4112	09/14/2009	Queens Hospital	000	1801803903	Clean Air Car Svc & Parking (NYC)	Tolls-Universal	A0170	CG	01/03/2018	01/03/2018	No	2	1																					Tolls-Universal	134367829
2504293	607	557654140	Service	Maylene	A	Hawkinslingo	PT03668K	F	(631) 336-4112	09/14/2009	Queens Hospital	000	1801803903	Clean Air Car Svc & Parking (NYC)	Livery-Manhattan Surcharge	A0100	SC	01/03/2018	01/03/2018	No	2	1																					Livery-Manhattan Surcharge	134367829
2504293	608	557654140	Service	Maylene	A	Hawkinslingo	PT03668K	F	(631) 336-4112	09/14/2009	Queens Hospital	000	1801803903	Clean Air Car Svc & Parking (NYC)	Livery-Manhattan Surcharge	A0100	SC	01/03/2018	01/03/2018	No	2	1																					Livery-Manhattan Surcharge	134367836
2504293	609	557654140	Service	Maylene	A	Hawkinslingo	PT03668K	F	(631) 336-4112	09/14/2009	Queens Hospital	000	1801803903	Clean Air Car Svc & Parking (NYC)	Mileage-Livery out of NYC	S0215	TN	01/03/2018	01/03/2018	No	2	1																					Mileage-Livery out of NYC	134367829
2504293	610	557654140	Service	Maylene	A	Hawkinslingo	PT03668K	F	(631) 336-4112	09/14/2009	Queens Hospital	000	1801803903	Clean Air Car Svc & Parking (NYC)	Mileage-Livery out of NYC	S0215	TN	01/03/2018	01/03/2018	No	2	1																					Mileage-Livery out of NYC	134367836
2504293	611	557800220	Leg	Ingrid		Rastogi	QY13671Z	F	(646) 418-9657	02/26/1983	Queens Hospital	000	1801803903	Clean Air Car Svc & Parking (NYC)	Livery/QN-Med Appt in CMMA	A0100		01/03/2018	01/03/2018	No	2	1		self	(646) 418-9657	1.2	01/03/2018	0830	8534 148th St	 home	Jamaica	NY	11435	01/03/2018	0930	9027 Sutphin Blvd	  main	Jamaica	NY	11435	.6	s/o tue,wed, thur		No	134406358
2504293	612	557800220	Leg	Ingrid		Rastogi	QY13671Z	F	(646) 418-9657	02/26/1983	Queens Hospital	000	1801803903	Clean Air Car Svc & Parking (NYC)	Livery/QN-Med Appt in CMMA	A0100		01/03/2018	01/03/2018	No	2	1		self	(646) 418-9657	1.2	01/03/2018	Call	9027 Sutphin Blvd	 main	Jamaica	NY	11435	01/03/2018	Call	8534 148th St	  home	Jamaica	NY	11435	.6	s/o tue,wed, thur		No	134406359
2504293	613	557812390	Leg	Li		Shu	RH99515C	M	(718) 357-7440	07/15/1935	Wu, Qiong		1992763916	Clean Air Car Svc & Parking (NYC)	Livery/QN-Med Appt in CMMA	A0100		01/04/2018	01/04/2018	No	2	1		self	(718) 357-7440	6.8	01/04/2018	0745	11455 Dalian Ct	# 1FL 	College Point	NY	11356	01/04/2018	0815	13443 Maple Ave	8632804 	Flushing	NY	11355	3.4	Additional rider		No	134410731
2504293	614	557812390	Leg	Li		Shu	RH99515C	M	(718) 357-7440	07/15/1935	Wu, Qiong		1992763916	Clean Air Car Svc & Parking (NYC)	Livery/QN-Med Appt in CMMA	A0100		01/04/2018	01/04/2018	No	2	1		self	(718) 357-7440	6.8	01/04/2018	Call	13443 Maple Ave	8632804 	Flushing	NY	11355	01/04/2018	Call	11455 Dalian Ct	# 1FL 	College Point	NY	11356	3.4			No	134410732
2504293	615	557960880	Leg	Edward		Mattocks	XM70326W	M	347-334-1422	01/28/1967	Mt Sinai of Queens	00243509	1245248939	Clean Air Car Svc & Parking (NYC)	Livery/QN-Med Appt in CMMA	A0100		01/08/2018	01/08/2018	No	2	1		self	3473341422	2.8	01/08/2018	1345	4114 10th St	 	Long Island City	NY	11101	01/08/2018	1445	31-60 21st	  	Long Island City	NY	11106	1.4	follow up		No	134441606
2504293	616	557960880	Leg	Edward		Mattocks	XM70326W	M	347-334-1422	01/28/1967	Mt Sinai of Queens	00243509	1245248939	Clean Air Car Svc & Parking (NYC)	Livery/QN-Med Appt in CMMA	A0100		01/08/2018	01/08/2018	No	2	1		self	3473341422	2.8	01/08/2018	Call	31-60 21st	 	Long Island City	NY	11106	01/08/2018	Call	4114 10th St	  	Long Island City	NY	11101	1.4	follow up		No	134441611
2504293	617	557971980	Leg	Priscilla	E	Moran	YV70188N	F	(718) 699-1251	08/15/1955	Kolanuvada Bangaruarju	00228890	1689648545	Clean Air Car Svc & Parking (NYC)	Livery/QN-Med Appt in CMMA	A0100		01/05/2018	01/05/2018	No	2	1			(718) 699-1251	4.8	01/05/2018	1200	10815 Corona Ave	Fl 2 	Corona	NY	11368	01/05/2018	1300	7901 Broadway	bldg H 145 	Elmhurst	NY	11373	2.4	1 Additional rider(s).		No	134444155
2504293	618	557971980	Leg	Priscilla	E	Moran	YV70188N	F	(718) 699-1251	08/15/1955	Kolanuvada Bangaruarju	00228890	1689648545	Clean Air Car Svc & Parking (NYC)	Livery/QN-Med Appt in CMMA	A0100		01/05/2018	01/05/2018	No	2	1			(718) 699-1251	4.8	01/05/2018	Call	7901 Broadway	bldg H 145 	Elmhurst	NY	11373	01/05/2018	Call	10815 Corona Ave	Fl 2 	Corona	NY	11368	2.4	1 Additional rider(s).		No	134444156
2504293	619	558286440	Leg	Robert		Bosworth	TY52121A	M	(347) 945-8258	11/25/1952	NY Presbyterian Hospital	0000000	1952332801	Clean Air Car Svc & Parking (NYC)	Livery/BX-Med Appt out CMMA	A0100	TN	01/12/2018	01/12/2018	No	2	1		Self	(347) 945-8258	18.2	01/12/2018	0600	2420 Prospect Ave	3A 	Bronx	NY	10458	01/12/2018	0800	503 E 70th St	  Main	New York	NY	10021	9.1	S/O Tues, Thurs, Fri		No	134522109
2504293	620	558286440	Leg	Robert		Bosworth	TY52121A	M	(347) 945-8258	11/25/1952	NY Presbyterian Hospital	0000000	1952332801	Clean Air Car Svc & Parking (NYC)	Livery/BX-Med Appt out CMMA	A0100	TN	01/12/2018	01/12/2018	No	2	1		Self	(347) 945-8258	18.2	01/12/2018	Call	503 E 70th St	 Main	New York	NY	10021	01/12/2018		2420 Prospect Ave	3A 	Bronx	NY	10458	9.1			No	134522110
2504293	621	558286440	Service	Robert		Bosworth	TY52121A	M	(347) 945-8258	11/25/1952	NY Presbyterian Hospital	0000000	1952332801	Clean Air Car Svc & Parking (NYC)	Mileage-Livery in NYC	S0215		01/12/2018	01/12/2018	No	2	1																					Mileage-Livery in NYC	134522109
2504293	622	558286440	Service	Robert		Bosworth	TY52121A	M	(347) 945-8258	11/25/1952	NY Presbyterian Hospital	0000000	1952332801	Clean Air Car Svc & Parking (NYC)	Mileage-Livery in NYC	S0215		01/12/2018	01/12/2018	No	2	1																					Mileage-Livery in NYC	134522110
2504293	623	558286440	Service	Robert		Bosworth	TY52121A	M	(347) 945-8258	11/25/1952	NY Presbyterian Hospital	0000000	1952332801	Clean Air Car Svc & Parking (NYC)	Tolls-Universal	A0170	CG	01/12/2018	01/12/2018	No	2	1																					Tolls-Universal	134522109
2504293	624	558286440	Service	Robert		Bosworth	TY52121A	M	(347) 945-8258	11/25/1952	NY Presbyterian Hospital	0000000	1952332801	Clean Air Car Svc & Parking (NYC)	Livery-Manhattan Surcharge	A0100	SC	01/12/2018	01/12/2018	No	2	1																					Livery-Manhattan Surcharge	134522109
2504293	625	558286440	Service	Robert		Bosworth	TY52121A	M	(347) 945-8258	11/25/1952	NY Presbyterian Hospital	0000000	1952332801	Clean Air Car Svc & Parking (NYC)	Livery-Manhattan Surcharge	A0100	SC	01/12/2018	01/12/2018	No	2	1																					Livery-Manhattan Surcharge	134522110
2504293	626	558496900	Leg	Cynthia		Durham	ZB21969Z	F	(718) 565-7004	05/23/1960	Huang,Hua		1578509774	Clean Air Car Svc & Parking (NYC)	Livery/QN-Med Appt in CMMA	A0100		01/08/2018	01/08/2018	No	2	1		self	(718) 565-7004	4.6	01/08/2018	0840	3245 108th St	 	East Elmhurst	NY	11369	01/08/2018	0940	7901 Broadway	8632820 	Elmhurst	NY	11373	2.3			No	134576593
2504293	627	558496900	Leg	Cynthia		Durham	ZB21969Z	F	(718) 565-7004	05/23/1960	Huang,Hua		1578509774	Clean Air Car Svc & Parking (NYC)	Livery/QN-Med Appt in CMMA	A0100		01/08/2018	01/08/2018	No	2	1		self	(718) 565-7004	4.6	01/08/2018	Call	7901 Broadway	8632820 	Elmhurst	NY	11373	01/08/2018	Call	3245 108th St	  	East Elmhurst	NY	11369	2.3			No	134576596
2504293	628	558507640	Leg	Cynthia		Durham	ZB21969Z	F	(718) 565-7004	05/23/1960	Huang,Hua		1578509774	Clean Air Car Svc & Parking (NYC)	Livery/QN-Med Appt in CMMA	A0100		01/09/2018	01/09/2018	No	2	1		self	(718) 565-7004	6.4	01/09/2018	0930	3245 108th St	 home	East Elmhurst	NY	11369	01/09/2018	1000	9229 Queens Blvd              12 E	  main	Rego Park	NY	11374	3.2			No	134578777
2504293	629	558507640	Leg	Cynthia		Durham	ZB21969Z	F	(718) 565-7004	05/23/1960	Huang,Hua		1578509774	Clean Air Car Svc & Parking (NYC)	Livery/QN-Med Appt in CMMA	A0100		01/09/2018	01/09/2018	No	2	1		self	(718) 565-7004	6.4	01/09/2018	Call	9229 Queens Blvd              12 E	 main	Rego Park	NY	11374	01/09/2018	Call	3245 108th St	  home	East Elmhurst	NY	11369	3.2			No	134578779
2504293	630	558517430	Leg	Cynthia		Durham	ZB21969Z	F	(718) 565-7004	05/23/1960	Huang,Hua		1578509774	Clean Air Car Svc & Parking (NYC)	Livery/QN-Med Appt in CMMA	A0100		01/24/2018	01/24/2018	No	2	1		self	(718) 565-7004	4.6	01/24/2018	0740	3245 108th St	 home	East Elmhurst	NY	11369	01/24/2018	0840	7901 Broadway	8632820 	Elmhurst	NY	11373	2.3			No	134580993
2504293	631	558517430	Leg	Cynthia		Durham	ZB21969Z	F	(718) 565-7004	05/23/1960	Huang,Hua		1578509774	Clean Air Car Svc & Parking (NYC)	Livery/QN-Med Appt in CMMA	A0100		01/24/2018	01/24/2018	No	2	1		self	(718) 565-7004	4.6	01/24/2018	Call	7901 Broadway	8632820 	Elmhurst	NY	11373	01/24/2018	Call	3245 108th St	  home	East Elmhurst	NY	11369	2.3			No	134580994
2504293	632	558966150	Leg	Robert		Turner	XB09081V	M	(718) 678-7588	12/05/1962	Queens Hospital	000	1801803903	Clean Air Car Svc & Parking (NYC)	Livery/QN-Med Appt out CMMA	A0100	TN	01/03/2018	01/03/2018	Yes	2	1		self	(718) 678-7588	25.4	01/03/2018	1300	25964 149th Ave	 house	Rosedale	NY	11422	01/03/2018	1400	13915 34th Ave	  main ent	Flushing	NY	11354	12.7	S/O every Mon Wed and Fri from 8/21/2017 until end of year ....jls		No	134694171
2504293	633	558966150	Leg	Robert		Turner	XB09081V	M	(718) 678-7588	12/05/1962	Queens Hospital	000	1801803903	Clean Air Car Svc & Parking (NYC)	Livery/QN-Med Appt out CMMA	A0100	TN	01/03/2018	01/03/2018	Yes	2	1		self	(718) 678-7588	25.4	01/03/2018	Call	13915 34th Ave	 main ent	Flushing	NY	11354	01/03/2018		25964 149th Ave	  house	Rosedale	NY	11422	12.7			No	134694172
2504293	634	558966150	Service	Robert		Turner	XB09081V	M	(718) 678-7588	12/05/1962	Queens Hospital	000	1801803903	Clean Air Car Svc & Parking (NYC)	Mileage-Livery in NYC	S0215		01/03/2018	01/03/2018	Yes	2	1																					Mileage-Livery in NYC	134694171
2504293	635	558966150	Service	Robert		Turner	XB09081V	M	(718) 678-7588	12/05/1962	Queens Hospital	000	1801803903	Clean Air Car Svc & Parking (NYC)	Mileage-Livery in NYC	S0215		01/03/2018	01/03/2018	Yes	2	1																					Mileage-Livery in NYC	134694172
2504293	636	558975190	Leg	Robert		Turner	XB09081V	M	(718) 678-7588	12/05/1962	Queens Hospital	000	1801803903	Clean Air Car Svc & Parking (NYC)	Livery/QN-Med Appt out CMMA	A0100	TN	01/04/2018	01/04/2018	Yes	2	1		self	(718) 678-7588	25.4	01/04/2018	1300	25964 149th Ave	 house	Rosedale	NY	11422	01/04/2018	1400	13915 34th Ave	  main ent	Flushing	NY	11354	12.7	S/O every Mon Wed and Fri from 8/21/2017 until end of year ....jls		No	134694173
2504293	637	558975190	Leg	Robert		Turner	XB09081V	M	(718) 678-7588	12/05/1962	Queens Hospital	000	1801803903	Clean Air Car Svc & Parking (NYC)	Livery/QN-Med Appt out CMMA	A0100	TN	01/04/2018	01/04/2018	Yes	2	1		self	(718) 678-7588	25.4	01/04/2018	Call	13915 34th Ave	 main ent	Flushing	NY	11354	01/04/2018		25964 149th Ave	  house	Rosedale	NY	11422	12.7			No	134694174
2504293	638	558975190	Service	Robert		Turner	XB09081V	M	(718) 678-7588	12/05/1962	Queens Hospital	000	1801803903	Clean Air Car Svc & Parking (NYC)	Mileage-Livery in NYC	S0215		01/04/2018	01/04/2018	Yes	2	1																					Mileage-Livery in NYC	134694173
2504293	639	558975190	Service	Robert		Turner	XB09081V	M	(718) 678-7588	12/05/1962	Queens Hospital	000	1801803903	Clean Air Car Svc & Parking (NYC)	Mileage-Livery in NYC	S0215		01/04/2018	01/04/2018	Yes	2	1																					Mileage-Livery in NYC	134694174
2504293	640	558975270	Leg	Robert		Turner	XB09081V	M	(718) 678-7588	12/05/1962	Queens Hospital	000	1801803903	Clean Air Car Svc & Parking (NYC)	Livery/QN-Med Appt out CMMA	A0100	TN	01/08/2018	01/08/2018	Yes	2	1		self	(718) 678-7588	25.4	01/08/2018	1300	25964 149th Ave	 house	Rosedale	NY	11422	01/08/2018	1400	13915 34th Ave	  main ent	Flushing	NY	11354	12.7	S/O every Mon Wed and Fri from 8/21/2017 until end of year ....jls		No	134694175
2504293	641	558975270	Leg	Robert		Turner	XB09081V	M	(718) 678-7588	12/05/1962	Queens Hospital	000	1801803903	Clean Air Car Svc & Parking (NYC)	Livery/QN-Med Appt out CMMA	A0100	TN	01/08/2018	01/08/2018	Yes	2	1		self	(718) 678-7588	25.4	01/08/2018	Call	13915 34th Ave	 main ent	Flushing	NY	11354	01/08/2018		25964 149th Ave	  house	Rosedale	NY	11422	12.7			No	134694176
2504293	642	558975270	Service	Robert		Turner	XB09081V	M	(718) 678-7588	12/05/1962	Queens Hospital	000	1801803903	Clean Air Car Svc & Parking (NYC)	Mileage-Livery in NYC	S0215		01/08/2018	01/08/2018	Yes	2	1																					Mileage-Livery in NYC	134694175
2504293	643	558975270	Service	Robert		Turner	XB09081V	M	(718) 678-7588	12/05/1962	Queens Hospital	000	1801803903	Clean Air Car Svc & Parking (NYC)	Mileage-Livery in NYC	S0215		01/08/2018	01/08/2018	Yes	2	1																					Mileage-Livery in NYC	134694176
2504293	644	558975350	Leg	Robert		Turner	XB09081V	M	(718) 678-7588	12/05/1962	Queens Hospital	000	1801803903	Clean Air Car Svc & Parking (NYC)	Livery/QN-Med Appt out CMMA	A0100	TN	01/09/2018	01/09/2018	Yes	4	1		self	(718) 678-7588	51.6	01/09/2018	1300	25964 149th Ave	 house	Rosedale	NY	11422	01/09/2018	1400	13915 34th Ave	  main ent	Flushing	NY	11354	12.7	S/O every Mon Wed and Fri from 8/21/2017 until end of year ....jls		No	134694177
2504293	645	558975350	Leg	Robert		Turner	XB09081V	M	(718) 678-7588	12/05/1962	Queens Hospital	000	1801803903	Clean Air Car Svc & Parking (NYC)	Livery/QN-Med Appt out CMMA	A0100	TN	01/09/2018	01/09/2018	Yes	4	1		self	(718) 678-7588	51.6	01/09/2018	Call	13915 34th Ave	 main ent	Flushing	NY	11354	01/09/2018		25964 149th Ave	  house	Rosedale	NY	11422	12.7			No	134694178
2504293	646	558975350	Leg	Robert		Turner	XB09081V	M	(718) 678-7588	12/05/1962	Queens Hospital	000	1801803903	Clean Air Car Svc & Parking (NYC)	Livery/QN-Med Appt out CMMA	A0100	TN	01/09/2018	01/09/2018	Yes	4	1		self	(718) 678-7588	51.6	01/09/2018	0915	25964 149th Ave	 	Rosedale	NY	11422	01/09/2018	1000	1402 150th St	  MAIN	Whitestone	NY	11357	13.1			No	136027258
2504293	647	558975350	Leg	Robert		Turner	XB09081V	M	(718) 678-7588	12/05/1962	Queens Hospital	000	1801803903	Clean Air Car Svc & Parking (NYC)	Livery/QN-Med Appt out CMMA	A0100	TN	01/09/2018	01/09/2018	Yes	4	1		self	(718) 678-7588	51.6	01/09/2018	Call	1402 150th St	 MAIN	Whitestone	NY	11357	01/09/2018	Call	25964 149th Ave	  	Rosedale	NY	11422	13.1			No	136027259
2504293	648	558975350	Service	Robert		Turner	XB09081V	M	(718) 678-7588	12/05/1962	Queens Hospital	000	1801803903	Clean Air Car Svc & Parking (NYC)	Mileage-Livery in NYC	S0215		01/09/2018	01/09/2018	Yes	4	1																					Mileage-Livery in NYC	134694177
2504293	649	558975350	Service	Robert		Turner	XB09081V	M	(718) 678-7588	12/05/1962	Queens Hospital	000	1801803903	Clean Air Car Svc & Parking (NYC)	Mileage-Livery in NYC	S0215		01/09/2018	01/09/2018	Yes	4	1																					Mileage-Livery in NYC	134694178
2504293	650	558975350	Service	Robert		Turner	XB09081V	M	(718) 678-7588	12/05/1962	Queens Hospital	000	1801803903	Clean Air Car Svc & Parking (NYC)	Mileage-Livery in NYC	S0215		01/09/2018	01/09/2018	Yes	4	1																					Mileage-Livery in NYC	136027258
2504293	651	558975350	Service	Robert		Turner	XB09081V	M	(718) 678-7588	12/05/1962	Queens Hospital	000	1801803903	Clean Air Car Svc & Parking (NYC)	Mileage-Livery in NYC	S0215		01/09/2018	01/09/2018	Yes	4	1																					Mileage-Livery in NYC	136027259
2504293	652	558975440	Leg	Robert		Turner	XB09081V	M	(718) 678-7588	12/05/1962	Queens Hospital	000	1801803903	Clean Air Car Svc & Parking (NYC)	Livery/QN-Med Appt out CMMA	A0100	TN	01/10/2018	01/10/2018	Yes	2	1		self	(718) 678-7588	25.4	01/10/2018	1300	25964 149th Ave	 house	Rosedale	NY	11422	01/10/2018	1400	13915 34th Ave	  main ent	Flushing	NY	11354	12.7	S/O every Mon Wed and Fri from 8/21/2017 until end of year ....jls		No	134694179
2504293	653	558975440	Leg	Robert		Turner	XB09081V	M	(718) 678-7588	12/05/1962	Queens Hospital	000	1801803903	Clean Air Car Svc & Parking (NYC)	Livery/QN-Med Appt out CMMA	A0100	TN	01/10/2018	01/10/2018	Yes	2	1		self	(718) 678-7588	25.4	01/10/2018	Call	13915 34th Ave	 main ent	Flushing	NY	11354	01/10/2018		25964 149th Ave	  house	Rosedale	NY	11422	12.7			No	134694180
2504293	654	558975440	Service	Robert		Turner	XB09081V	M	(718) 678-7588	12/05/1962	Queens Hospital	000	1801803903	Clean Air Car Svc & Parking (NYC)	Mileage-Livery in NYC	S0215		01/10/2018	01/10/2018	Yes	2	1																					Mileage-Livery in NYC	134694179
2504293	655	558975440	Service	Robert		Turner	XB09081V	M	(718) 678-7588	12/05/1962	Queens Hospital	000	1801803903	Clean Air Car Svc & Parking (NYC)	Mileage-Livery in NYC	S0215		01/10/2018	01/10/2018	Yes	2	1																					Mileage-Livery in NYC	134694180
2504293	656	558975500	Leg	Robert		Turner	XB09081V	M	(718) 678-7588	12/05/1962	Queens Hospital	000	1801803903	Clean Air Car Svc & Parking (NYC)	Livery/QN-Med Appt out CMMA	A0100	TN	01/11/2018	01/11/2018	Yes	2	1		self	(718) 678-7588	25.4	01/11/2018	1300	25964 149th Ave	 house	Rosedale	NY	11422	01/11/2018	1400	13915 34th Ave	  main ent	Flushing	NY	11354	12.7	S/O every Mon Wed and Fri from 8/21/2017 until end of year ....jls		No	134694181
2504293	657	558975500	Leg	Robert		Turner	XB09081V	M	(718) 678-7588	12/05/1962	Queens Hospital	000	1801803903	Clean Air Car Svc & Parking (NYC)	Livery/QN-Med Appt out CMMA	A0100	TN	01/11/2018	01/11/2018	Yes	2	1		self	(718) 678-7588	25.4	01/11/2018	Call	13915 34th Ave	 main ent	Flushing	NY	11354	01/11/2018		25964 149th Ave	  house	Rosedale	NY	11422	12.7			No	134694182
2504293	658	558975500	Service	Robert		Turner	XB09081V	M	(718) 678-7588	12/05/1962	Queens Hospital	000	1801803903	Clean Air Car Svc & Parking (NYC)	Mileage-Livery in NYC	S0215		01/11/2018	01/11/2018	Yes	2	1																					Mileage-Livery in NYC	134694181
2504293	659	558975500	Service	Robert		Turner	XB09081V	M	(718) 678-7588	12/05/1962	Queens Hospital	000	1801803903	Clean Air Car Svc & Parking (NYC)	Mileage-Livery in NYC	S0215		01/11/2018	01/11/2018	Yes	2	1																					Mileage-Livery in NYC	134694182
2504293	660	558975560	Leg	Robert		Turner	XB09081V	M	(718) 678-7588	12/05/1962	Queens Hospital	000	1801803903	Clean Air Car Svc & Parking (NYC)	Livery/QN-Med Appt out CMMA	A0100	TN	01/15/2018	01/15/2018	Yes	2	1		self	(718) 678-7588	25.4	01/15/2018	1300	25964 149th Ave	 house	Rosedale	NY	11422	01/15/2018	1400	13915 34th Ave	  main ent	Flushing	NY	11354	12.7	S/O every Mon Wed and Fri from 8/21/2017 until end of year ....jls		No	134694183
2504293	661	558975560	Leg	Robert		Turner	XB09081V	M	(718) 678-7588	12/05/1962	Queens Hospital	000	1801803903	Clean Air Car Svc & Parking (NYC)	Livery/QN-Med Appt out CMMA	A0100	TN	01/15/2018	01/15/2018	Yes	2	1		self	(718) 678-7588	25.4	01/15/2018	Call	13915 34th Ave	 main ent	Flushing	NY	11354	01/15/2018		25964 149th Ave	  house	Rosedale	NY	11422	12.7			No	134694184
2504293	662	558975560	Service	Robert		Turner	XB09081V	M	(718) 678-7588	12/05/1962	Queens Hospital	000	1801803903	Clean Air Car Svc & Parking (NYC)	Mileage-Livery in NYC	S0215		01/15/2018	01/15/2018	Yes	2	1																					Mileage-Livery in NYC	134694183
2504293	663	558975560	Service	Robert		Turner	XB09081V	M	(718) 678-7588	12/05/1962	Queens Hospital	000	1801803903	Clean Air Car Svc & Parking (NYC)	Mileage-Livery in NYC	S0215		01/15/2018	01/15/2018	Yes	2	1																					Mileage-Livery in NYC	134694184
2504293	664	558975590	Leg	Robert		Turner	XB09081V	M	(718) 678-7588	12/05/1962	Queens Hospital	000	1801803903	Clean Air Car Svc & Parking (NYC)	Livery/QN-Med Appt out CMMA	A0100	TN	01/16/2018	01/16/2018	Yes	2	1		self	(718) 678-7588	25.4	01/16/2018	1300	25964 149th Ave	 house	Rosedale	NY	11422	01/16/2018	1400	13915 34th Ave	  main ent	Flushing	NY	11354	12.7	S/O every Mon Wed and Fri from 8/21/2017 until end of year ....jls		No	134694185
2504293	665	558975590	Leg	Robert		Turner	XB09081V	M	(718) 678-7588	12/05/1962	Queens Hospital	000	1801803903	Clean Air Car Svc & Parking (NYC)	Livery/QN-Med Appt out CMMA	A0100	TN	01/16/2018	01/16/2018	Yes	2	1		self	(718) 678-7588	25.4	01/16/2018	Call	13915 34th Ave	 main ent	Flushing	NY	11354	01/16/2018		25964 149th Ave	  house	Rosedale	NY	11422	12.7			No	134694186
2504293	666	558975590	Service	Robert		Turner	XB09081V	M	(718) 678-7588	12/05/1962	Queens Hospital	000	1801803903	Clean Air Car Svc & Parking (NYC)	Mileage-Livery in NYC	S0215		01/16/2018	01/16/2018	Yes	2	1																					Mileage-Livery in NYC	134694185
2504293	667	558975590	Service	Robert		Turner	XB09081V	M	(718) 678-7588	12/05/1962	Queens Hospital	000	1801803903	Clean Air Car Svc & Parking (NYC)	Mileage-Livery in NYC	S0215		01/16/2018	01/16/2018	Yes	2	1																					Mileage-Livery in NYC	134694186
2504293	668	558975640	Leg	Robert		Turner	XB09081V	M	(718) 678-7588	12/05/1962	Queens Hospital	000	1801803903	Clean Air Car Svc & Parking (NYC)	Livery/QN-Med Appt out CMMA	A0100	TN	01/17/2018	01/17/2018	Yes	2	1		self	(718) 678-7588	25.4	01/17/2018	1300	25964 149th Ave	 house	Rosedale	NY	11422	01/17/2018	1400	13915 34th Ave	  main ent	Flushing	NY	11354	12.7	S/O every Mon Wed and Fri from 8/21/2017 until end of year ....jls		No	134694187
2504293	669	558975640	Leg	Robert		Turner	XB09081V	M	(718) 678-7588	12/05/1962	Queens Hospital	000	1801803903	Clean Air Car Svc & Parking (NYC)	Livery/QN-Med Appt out CMMA	A0100	TN	01/17/2018	01/17/2018	Yes	2	1		self	(718) 678-7588	25.4	01/17/2018	Call	13915 34th Ave	 main ent	Flushing	NY	11354	01/17/2018		25964 149th Ave	  house	Rosedale	NY	11422	12.7			No	134694189
2504293	670	558975640	Service	Robert		Turner	XB09081V	M	(718) 678-7588	12/05/1962	Queens Hospital	000	1801803903	Clean Air Car Svc & Parking (NYC)	Mileage-Livery in NYC	S0215		01/17/2018	01/17/2018	Yes	2	1																					Mileage-Livery in NYC	134694187
2504293	671	558975640	Service	Robert		Turner	XB09081V	M	(718) 678-7588	12/05/1962	Queens Hospital	000	1801803903	Clean Air Car Svc & Parking (NYC)	Mileage-Livery in NYC	S0215		01/17/2018	01/17/2018	Yes	2	1																					Mileage-Livery in NYC	134694189
2504293	672	558975660	Leg	Robert		Turner	XB09081V	M	(718) 678-7588	12/05/1962	Queens Hospital	000	1801803903	Clean Air Car Svc & Parking (NYC)	Livery/QN-Med Appt out CMMA	A0100	TN	01/18/2018	01/18/2018	Yes	2	1		self	(718) 678-7588	25.4	01/18/2018	1300	25964 149th Ave	 house	Rosedale	NY	11422	01/18/2018	1400	13915 34th Ave	  main ent	Flushing	NY	11354	12.7	S/O every Mon Wed and Fri from 8/21/2017 until end of year ....jls		No	134694190
2504293	673	558975660	Leg	Robert		Turner	XB09081V	M	(718) 678-7588	12/05/1962	Queens Hospital	000	1801803903	Clean Air Car Svc & Parking (NYC)	Livery/QN-Med Appt out CMMA	A0100	TN	01/18/2018	01/18/2018	Yes	2	1		self	(718) 678-7588	25.4	01/18/2018	Call	13915 34th Ave	 main ent	Flushing	NY	11354	01/18/2018		25964 149th Ave	  house	Rosedale	NY	11422	12.7			No	134694191
2504293	674	558975660	Service	Robert		Turner	XB09081V	M	(718) 678-7588	12/05/1962	Queens Hospital	000	1801803903	Clean Air Car Svc & Parking (NYC)	Mileage-Livery in NYC	S0215		01/18/2018	01/18/2018	Yes	2	1																					Mileage-Livery in NYC	134694190
2504293	675	558975660	Service	Robert		Turner	XB09081V	M	(718) 678-7588	12/05/1962	Queens Hospital	000	1801803903	Clean Air Car Svc & Parking (NYC)	Mileage-Livery in NYC	S0215		01/18/2018	01/18/2018	Yes	2	1																					Mileage-Livery in NYC	134694191
2504293	676	558975710	Leg	Robert		Turner	XB09081V	M	(718) 678-7588	12/05/1962	Queens Hospital	000	1801803903	Clean Air Car Svc & Parking (NYC)	Livery/QN-Med Appt out CMMA	A0100	TN	01/22/2018	01/22/2018	Yes	2	1		self	(718) 678-7588	25.4	01/22/2018	1300	25964 149th Ave	 house	Rosedale	NY	11422	01/22/2018	1400	13915 34th Ave	  main ent	Flushing	NY	11354	12.7	S/O every Mon Wed and Fri from 8/21/2017 until end of year ....jls		No	134694192
2504293	677	558975710	Leg	Robert		Turner	XB09081V	M	(718) 678-7588	12/05/1962	Queens Hospital	000	1801803903	Clean Air Car Svc & Parking (NYC)	Livery/QN-Med Appt out CMMA	A0100	TN	01/22/2018	01/22/2018	Yes	2	1		self	(718) 678-7588	25.4	01/22/2018	Call	13915 34th Ave	 main ent	Flushing	NY	11354	01/22/2018		25964 149th Ave	  house	Rosedale	NY	11422	12.7			No	134694193
2504293	678	558975710	Service	Robert		Turner	XB09081V	M	(718) 678-7588	12/05/1962	Queens Hospital	000	1801803903	Clean Air Car Svc & Parking (NYC)	Mileage-Livery in NYC	S0215		01/22/2018	01/22/2018	Yes	2	1																					Mileage-Livery in NYC	134694192
2504293	679	558975710	Service	Robert		Turner	XB09081V	M	(718) 678-7588	12/05/1962	Queens Hospital	000	1801803903	Clean Air Car Svc & Parking (NYC)	Mileage-Livery in NYC	S0215		01/22/2018	01/22/2018	Yes	2	1																					Mileage-Livery in NYC	134694193
2504293	680	558975830	Leg	Robert		Turner	XB09081V	M	(718) 678-7588	12/05/1962	Queens Hospital	000	1801803903	Clean Air Car Svc & Parking (NYC)	Livery/QN-Med Appt out CMMA	A0100	TN	01/23/2018	01/23/2018	Yes	2	1		self	(718) 678-7588	25.4	01/23/2018	1300	25964 149th Ave	 house	Rosedale	NY	11422	01/23/2018	1400	13915 34th Ave	  main ent	Flushing	NY	11354	12.7	S/O every Mon Wed and Fri from 8/21/2017 until end of year ....jls		No	134694194
2504293	681	558975830	Leg	Robert		Turner	XB09081V	M	(718) 678-7588	12/05/1962	Queens Hospital	000	1801803903	Clean Air Car Svc & Parking (NYC)	Livery/QN-Med Appt out CMMA	A0100	TN	01/23/2018	01/23/2018	Yes	2	1		self	(718) 678-7588	25.4	01/23/2018	Call	13915 34th Ave	 main ent	Flushing	NY	11354	01/23/2018		25964 149th Ave	  house	Rosedale	NY	11422	12.7			No	134694195
2504293	682	558975830	Service	Robert		Turner	XB09081V	M	(718) 678-7588	12/05/1962	Queens Hospital	000	1801803903	Clean Air Car Svc & Parking (NYC)	Mileage-Livery in NYC	S0215		01/23/2018	01/23/2018	Yes	2	1																					Mileage-Livery in NYC	134694194
2504293	683	558975830	Service	Robert		Turner	XB09081V	M	(718) 678-7588	12/05/1962	Queens Hospital	000	1801803903	Clean Air Car Svc & Parking (NYC)	Mileage-Livery in NYC	S0215		01/23/2018	01/23/2018	Yes	2	1																					Mileage-Livery in NYC	134694195
2504293	684	558975910	Leg	Robert		Turner	XB09081V	M	(917) 500-4380	12/05/1962	Queens Hospital	000	1801803903	Clean Air Car Svc & Parking (NYC)	Livery/QN-Med Appt out CMMA	A0100	TN	01/24/2018	01/24/2018	Yes	2	1		self	(917) 500-4380	25.4	01/24/2018	1300	25964 149th Ave	 house	Rosedale	NY	11422	01/24/2018	1400	13915 34th Ave	  main ent	Flushing	NY	11354	12.7	S/O every Mon Wed and Fri from 8/21/2017 until end of year ....jls		No	134694196
2504293	685	558975910	Leg	Robert		Turner	XB09081V	M	(917) 500-4380	12/05/1962	Queens Hospital	000	1801803903	Clean Air Car Svc & Parking (NYC)	Livery/QN-Med Appt out CMMA	A0100	TN	01/24/2018	01/24/2018	Yes	2	1		self	(917) 500-4380	25.4	01/24/2018	Call	13915 34th Ave	 main ent	Flushing	NY	11354	01/24/2018		25964 149th Ave	  house	Rosedale	NY	11422	12.7			No	134694197
2504293	686	558975910	Service	Robert		Turner	XB09081V	M	(917) 500-4380	12/05/1962	Queens Hospital	000	1801803903	Clean Air Car Svc & Parking (NYC)	Mileage-Livery in NYC	S0215		01/24/2018	01/24/2018	Yes	2	1																					Mileage-Livery in NYC	134694196
2504293	687	558975910	Service	Robert		Turner	XB09081V	M	(917) 500-4380	12/05/1962	Queens Hospital	000	1801803903	Clean Air Car Svc & Parking (NYC)	Mileage-Livery in NYC	S0215		01/24/2018	01/24/2018	Yes	2	1																					Mileage-Livery in NYC	134694197
2504293	688	558976100	Leg	Robert		Turner	XB09081V	M	(917) 500-4380	12/05/1962	Queens Hospital	000	1801803903	Clean Air Car Svc & Parking (NYC)	Livery/QN-Med Appt out CMMA	A0100	TN	01/25/2018	01/25/2018	Yes	4	1		self	(917) 500-4380	64.0	01/25/2018	1300	25964 149th Ave	 house	Rosedale	NY	11422	01/25/2018	1400	13915 34th Ave	  main ent	Flushing	NY	11354	12.7	S/O every Mon Wed and Fri from 8/21/2017 until end of year ....jls		No	134694198
2504293	689	558976100	Leg	Robert		Turner	XB09081V	M	(917) 500-4380	12/05/1962	Queens Hospital	000	1801803903	Clean Air Car Svc & Parking (NYC)	Livery/QN-Med Appt out CMMA	A0100	TN	01/25/2018	01/25/2018	Yes	4	1		self	(917) 500-4380	64.0	01/25/2018	Call	13915 34th Ave	 main ent	Flushing	NY	11354	01/25/2018		25964 149th Ave	  house	Rosedale	NY	11422	12.7			No	134694199
2504293	690	558976100	Leg	Robert		Turner	XB09081V	M	(917) 500-4380	12/05/1962	Queens Hospital	000	1801803903	Clean Air Car Svc & Parking (NYC)	Livery/QN-Med Appt out CMMA	A0100	TN	01/25/2018	01/25/2018	Yes	4	1		self	(917) 500-4380	64.0	01/25/2018	0800	25964 149th Ave	 	Rosedale	NY	11422	01/25/2018	0900	475 E 72nd St	  	New York	NY	10021	19.3	Additional Rider		No	138336886
2504293	691	558976100	Leg	Robert		Turner	XB09081V	M	(917) 500-4380	12/05/1962	Queens Hospital	000	1801803903	Clean Air Car Svc & Parking (NYC)	Livery/QN-Med Appt out CMMA	A0100	TN	01/25/2018	01/25/2018	Yes	4	1		self	(917) 500-4380	64.0	01/25/2018	Call	475 E 72nd St	 	New York	NY	10021	01/25/2018	Call	25964 149th Ave	  	Rosedale	NY	11422	19.3			No	138336887
2504293	692	558976100	Service	Robert		Turner	XB09081V	M	(917) 500-4380	12/05/1962	Queens Hospital	000	1801803903	Clean Air Car Svc & Parking (NYC)	Mileage-Livery in NYC	S0215		01/25/2018	01/25/2018	Yes	4	1																					Mileage-Livery in NYC	134694198
2504293	693	558976100	Service	Robert		Turner	XB09081V	M	(917) 500-4380	12/05/1962	Queens Hospital	000	1801803903	Clean Air Car Svc & Parking (NYC)	Mileage-Livery in NYC	S0215		01/25/2018	01/25/2018	Yes	4	1																					Mileage-Livery in NYC	134694199
2504293	694	558976100	Service	Robert		Turner	XB09081V	M	(917) 500-4380	12/05/1962	Queens Hospital	000	1801803903	Clean Air Car Svc & Parking (NYC)	Mileage-Livery in NYC	S0215		01/25/2018	01/25/2018	Yes	4	1																					Mileage-Livery in NYC	138336886
2504293	695	558976100	Service	Robert		Turner	XB09081V	M	(917) 500-4380	12/05/1962	Queens Hospital	000	1801803903	Clean Air Car Svc & Parking (NYC)	Mileage-Livery in NYC	S0215		01/25/2018	01/25/2018	Yes	4	1																					Mileage-Livery in NYC	138336887
2504293	696	558976100	Service	Robert		Turner	XB09081V	M	(917) 500-4380	12/05/1962	Queens Hospital	000	1801803903	Clean Air Car Svc & Parking (NYC)	Tolls-Universal	A0170	CG	01/25/2018	01/25/2018	Yes	4	1																					Tolls-Universal	138336886
2504293	697	558976100	Service	Robert		Turner	XB09081V	M	(917) 500-4380	12/05/1962	Queens Hospital	000	1801803903	Clean Air Car Svc & Parking (NYC)	Livery-Manhattan Surcharge	A0100	SC	01/25/2018	01/25/2018	Yes	4	1																					Livery-Manhattan Surcharge	138336886
2504293	698	558976100	Service	Robert		Turner	XB09081V	M	(917) 500-4380	12/05/1962	Queens Hospital	000	1801803903	Clean Air Car Svc & Parking (NYC)	Livery-Manhattan Surcharge	A0100	SC	01/25/2018	01/25/2018	Yes	4	1																					Livery-Manhattan Surcharge	138336887
2504293	699	558976290	Leg	Robert		Turner	XB09081V	M	(917) 500-4380	12/05/1962	Queens Hospital	000	1801803903	Clean Air Car Svc & Parking (NYC)	Livery/QN-Med Appt out CMMA	A0100	TN	01/29/2018	01/29/2018	Yes	2	1		self	(917) 500-4380	25.4	01/29/2018	1300	25964 149th Ave	 house	Rosedale	NY	11422	01/29/2018	1400	13915 34th Ave	  main ent	Flushing	NY	11354	12.7	S/O every Mon Wed and Fri from 8/21/2017 until end of year ....jls		No	134694200
2504293	700	558976290	Leg	Robert		Turner	XB09081V	M	(917) 500-4380	12/05/1962	Queens Hospital	000	1801803903	Clean Air Car Svc & Parking (NYC)	Livery/QN-Med Appt out CMMA	A0100	TN	01/29/2018	01/29/2018	Yes	2	1		self	(917) 500-4380	25.4	01/29/2018	Call	13915 34th Ave	 main ent	Flushing	NY	11354	01/29/2018		25964 149th Ave	  house	Rosedale	NY	11422	12.7			No	134694201
2504293	701	558976290	Service	Robert		Turner	XB09081V	M	(917) 500-4380	12/05/1962	Queens Hospital	000	1801803903	Clean Air Car Svc & Parking (NYC)	Mileage-Livery in NYC	S0215		01/29/2018	01/29/2018	Yes	2	1																					Mileage-Livery in NYC	134694200
2504293	702	558976290	Service	Robert		Turner	XB09081V	M	(917) 500-4380	12/05/1962	Queens Hospital	000	1801803903	Clean Air Car Svc & Parking (NYC)	Mileage-Livery in NYC	S0215		01/29/2018	01/29/2018	Yes	2	1																					Mileage-Livery in NYC	134694201
2504293	703	558976400	Leg	Robert		Turner	XB09081V	M	(917) 500-4380	12/05/1962	Queens Hospital	000	1801803903	Clean Air Car Svc & Parking (NYC)	Livery/QN-Med Appt out CMMA	A0100	TN	01/30/2018	01/30/2018	Yes	2	1		self	(917) 500-4380	25.4	01/30/2018	1300	25964 149th Ave	 house	Rosedale	NY	11422	01/30/2018	1400	13915 34th Ave	  main ent	Flushing	NY	11354	12.7	S/O every Mon Wed and Fri from 8/21/2017 until end of year ....jls		No	134694202
2504293	704	558976400	Leg	Robert		Turner	XB09081V	M	(917) 500-4380	12/05/1962	Queens Hospital	000	1801803903	Clean Air Car Svc & Parking (NYC)	Livery/QN-Med Appt out CMMA	A0100	TN	01/30/2018	01/30/2018	Yes	2	1		self	(917) 500-4380	25.4	01/30/2018	Call	13915 34th Ave	 main ent	Flushing	NY	11354	01/30/2018		25964 149th Ave	  house	Rosedale	NY	11422	12.7			No	134694203
2504293	705	558976400	Service	Robert		Turner	XB09081V	M	(917) 500-4380	12/05/1962	Queens Hospital	000	1801803903	Clean Air Car Svc & Parking (NYC)	Mileage-Livery in NYC	S0215		01/30/2018	01/30/2018	Yes	2	1																					Mileage-Livery in NYC	134694202
2504293	706	558976400	Service	Robert		Turner	XB09081V	M	(917) 500-4380	12/05/1962	Queens Hospital	000	1801803903	Clean Air Car Svc & Parking (NYC)	Mileage-Livery in NYC	S0215		01/30/2018	01/30/2018	Yes	2	1																					Mileage-Livery in NYC	134694203
2504293	707	558976480	Leg	Robert		Turner	XB09081V	M	(917) 500-4380	12/05/1962	Queens Hospital	000	1801803903	Clean Air Car Svc & Parking (NYC)	Livery/QN-Med Appt out CMMA	A0100	TN	01/31/2018	01/31/2018	Yes	2	1		self	(917) 500-4380	25.4	01/31/2018	1300	25964 149th Ave	 house	Rosedale	NY	11422	01/31/2018	1400	13915 34th Ave	  main ent	Flushing	NY	11354	12.7	S/O every Mon Wed and Fri from 8/21/2017 until end of year ....jls		No	134694204
2504293	708	558976480	Leg	Robert		Turner	XB09081V	M	(917) 500-4380	12/05/1962	Queens Hospital	000	1801803903	Clean Air Car Svc & Parking (NYC)	Livery/QN-Med Appt out CMMA	A0100	TN	01/31/2018	01/31/2018	Yes	2	1		self	(917) 500-4380	25.4	01/31/2018	Call	13915 34th Ave	 main ent	Flushing	NY	11354	01/31/2018		25964 149th Ave	  house	Rosedale	NY	11422	12.7			No	134694205
2504293	709	558976480	Service	Robert		Turner	XB09081V	M	(917) 500-4380	12/05/1962	Queens Hospital	000	1801803903	Clean Air Car Svc & Parking (NYC)	Mileage-Livery in NYC	S0215		01/31/2018	01/31/2018	Yes	2	1																					Mileage-Livery in NYC	134694204
2504293	710	558976480	Service	Robert		Turner	XB09081V	M	(917) 500-4380	12/05/1962	Queens Hospital	000	1801803903	Clean Air Car Svc & Parking (NYC)	Mileage-Livery in NYC	S0215		01/31/2018	01/31/2018	Yes	2	1																					Mileage-Livery in NYC	134694205
2504293	711	559176390	Leg	Sharon		Caffey	XQ37608H	F	(718) 301-3775	09/04/1964	Bradnock Howard		1225002751	Clean Air Car Svc & Parking (NYC)	Livery/QN-Med Appt out CMMA	A0100	TN	01/04/2018	01/04/2018	No	4	1		self	(718) 301-3775	56.8	01/04/2018	0730	3441 Linden Pl	Apt 2B 	Flushing	NY	11354	01/04/2018	0830	8714 5th Ave	  main	Brooklyn	NY	11209	19.0			No	134743162
2504293	712	559176390	Leg	Sharon		Caffey	XQ37608H	F	(718) 301-3775	09/04/1964	Bradnock Howard		1225002751	Clean Air Car Svc & Parking (NYC)	Livery/QN-Med Appt out CMMA	A0100	TN	01/04/2018	01/04/2018	No	4	1		self	(718) 301-3775	56.8	01/04/2018	Call	8714 5th Ave	 main	Brooklyn	NY	11209	01/04/2018	Call	3441 Linden Pl	Apt 2B 	Flushing	NY	11354	19.0			No	134743168
2504293	713	559176390	Leg	Sharon		Caffey	XQ37608H	F	(718) 301-3775	09/04/1964	Bradnock Howard		1225002751	Clean Air Car Svc & Parking (NYC)	Livery/QN-Med Appt out CMMA	A0100	TN	01/04/2018	01/04/2018	No	4	1		self	(718) 301-3775	56.8	01/04/2018	1415	3441 Linden Pl	Apt 2B 	Flushing	NY	11354	01/04/2018	1530	1305 York Ave	  	New York	NY	10021	9.4			No	134744039
2504293	714	559176390	Leg	Sharon		Caffey	XQ37608H	F	(718) 301-3775	09/04/1964	Bradnock Howard		1225002751	Clean Air Car Svc & Parking (NYC)	Livery/QN-Med Appt out CMMA	A0100	TN	01/04/2018	01/04/2018	No	4	1		self	(718) 301-3775	56.8	01/04/2018	Call	1305 York Ave	 	New York	NY	10021	01/04/2018	Call	3441 Linden Pl	Apt 2B 	Flushing	NY	11354	9.4			No	134744040
2504293	715	559176390	Service	Sharon		Caffey	XQ37608H	F	(718) 301-3775	09/04/1964	Bradnock Howard		1225002751	Clean Air Car Svc & Parking (NYC)	Tolls-Universal	A0170	CG	01/04/2018	01/04/2018	No	4	1																					Tolls-Universal	134743162
2504293	716	559176390	Service	Sharon		Caffey	XQ37608H	F	(718) 301-3775	09/04/1964	Bradnock Howard		1225002751	Clean Air Car Svc & Parking (NYC)	Mileage-Livery in NYC	S0215		01/04/2018	01/04/2018	No	4	1																					Mileage-Livery in NYC	134743162
2504293	717	559176390	Service	Sharon		Caffey	XQ37608H	F	(718) 301-3775	09/04/1964	Bradnock Howard		1225002751	Clean Air Car Svc & Parking (NYC)	Mileage-Livery in NYC	S0215		01/04/2018	01/04/2018	No	4	1																					Mileage-Livery in NYC	134743168
2504293	718	559176390	Service	Sharon		Caffey	XQ37608H	F	(718) 301-3775	09/04/1964	Bradnock Howard		1225002751	Clean Air Car Svc & Parking (NYC)	Mileage-Livery in NYC	S0215		01/04/2018	01/04/2018	No	4	1																					Mileage-Livery in NYC	134744039
2504293	719	559176390	Service	Sharon		Caffey	XQ37608H	F	(718) 301-3775	09/04/1964	Bradnock Howard		1225002751	Clean Air Car Svc & Parking (NYC)	Mileage-Livery in NYC	S0215		01/04/2018	01/04/2018	No	4	1																					Mileage-Livery in NYC	134744040
2504293	720	559176390	Service	Sharon		Caffey	XQ37608H	F	(718) 301-3775	09/04/1964	Bradnock Howard		1225002751	Clean Air Car Svc & Parking (NYC)	Livery-Manhattan Surcharge	A0100	SC	01/04/2018	01/04/2018	No	4	1																					Livery-Manhattan Surcharge	134744039
2504293	721	559176390	Service	Sharon		Caffey	XQ37608H	F	(718) 301-3775	09/04/1964	Bradnock Howard		1225002751	Clean Air Car Svc & Parking (NYC)	Livery-Manhattan Surcharge	A0100	SC	01/04/2018	01/04/2018	No	4	1																					Livery-Manhattan Surcharge	134744040
2504293	722	559181830	Leg	Sharon		Caffey	XQ37608H	F	(718) 301-3775	09/04/1964	Bradnock Howard		1225002751	Clean Air Car Svc & Parking (NYC)	Livery/QN-Med Appt out CMMA	A0100	TN	01/05/2018	01/05/2018	No	4	1		self	(718) 301-3775	53.2	01/05/2018	0800	3441 Linden Pl	Apt 2B 	Flushing	NY	11354	01/05/2018	0900	150 55th St	  main	Brooklyn	NY	11220	17.2			No	134744397
2504293	723	559181830	Leg	Sharon		Caffey	XQ37608H	F	(718) 301-3775	09/04/1964	Bradnock Howard		1225002751	Clean Air Car Svc & Parking (NYC)	Livery/QN-Med Appt out CMMA	A0100	TN	01/05/2018	01/05/2018	No	4	1		self	(718) 301-3775	53.2	01/05/2018	Call	150 55th St	 main	Brooklyn	NY	11220	01/05/2018	Call	3441 Linden Pl	Apt 2B 	Flushing	NY	11354	17.2			No	134744398
2504293	724	559181830	Leg	Sharon		Caffey	XQ37608H	F	(718) 301-3775	09/04/1964	Bradnock Howard		1225002751	Clean Air Car Svc & Parking (NYC)	Livery/QN-Med Appt out CMMA	A0100	TN	01/05/2018	01/05/2018	No	4	1		self	(718) 301-3775	53.2	01/05/2018	1345	3441 Linden Pl	Apt 2B 	Flushing	NY	11354	01/05/2018	1500	1305 York Ave	  	New York	NY	10021	9.4			No	134745014
2504293	725	559181830	Leg	Sharon		Caffey	XQ37608H	F	(718) 301-3775	09/04/1964	Bradnock Howard		1225002751	Clean Air Car Svc & Parking (NYC)	Livery/QN-Med Appt out CMMA	A0100	TN	01/05/2018	01/05/2018	No	4	1		self	(718) 301-3775	53.2	01/05/2018	Call	1305 York Ave	 	New York	NY	10021	01/05/2018	Call	3441 Linden Pl	Apt 2B 	Flushing	NY	11354	9.4			No	134745015
2504293	726	559181830	Service	Sharon		Caffey	XQ37608H	F	(718) 301-3775	09/04/1964	Bradnock Howard		1225002751	Clean Air Car Svc & Parking (NYC)	Tolls-Universal	A0170	CG	01/05/2018	01/05/2018	No	4	1																					Tolls-Universal	134744397
2504293	727	559181830	Service	Sharon		Caffey	XQ37608H	F	(718) 301-3775	09/04/1964	Bradnock Howard		1225002751	Clean Air Car Svc & Parking (NYC)	Mileage-Livery in NYC	S0215		01/05/2018	01/05/2018	No	4	1																					Mileage-Livery in NYC	134744397
2504293	728	559181830	Service	Sharon		Caffey	XQ37608H	F	(718) 301-3775	09/04/1964	Bradnock Howard		1225002751	Clean Air Car Svc & Parking (NYC)	Mileage-Livery in NYC	S0215		01/05/2018	01/05/2018	No	4	1																					Mileage-Livery in NYC	134744398
2504293	729	559181830	Service	Sharon		Caffey	XQ37608H	F	(718) 301-3775	09/04/1964	Bradnock Howard		1225002751	Clean Air Car Svc & Parking (NYC)	Mileage-Livery in NYC	S0215		01/05/2018	01/05/2018	No	4	1																					Mileage-Livery in NYC	134745014
2504293	730	559181830	Service	Sharon		Caffey	XQ37608H	F	(718) 301-3775	09/04/1964	Bradnock Howard		1225002751	Clean Air Car Svc & Parking (NYC)	Mileage-Livery in NYC	S0215		01/05/2018	01/05/2018	No	4	1																					Mileage-Livery in NYC	134745015
2504293	731	559181830	Service	Sharon		Caffey	XQ37608H	F	(718) 301-3775	09/04/1964	Bradnock Howard		1225002751	Clean Air Car Svc & Parking (NYC)	Livery-Manhattan Surcharge	A0100	SC	01/05/2018	01/05/2018	No	4	1																					Livery-Manhattan Surcharge	134745014
2504293	732	559181830	Service	Sharon		Caffey	XQ37608H	F	(718) 301-3775	09/04/1964	Bradnock Howard		1225002751	Clean Air Car Svc & Parking (NYC)	Livery-Manhattan Surcharge	A0100	SC	01/05/2018	01/05/2018	No	4	1																					Livery-Manhattan Surcharge	134745015
2504293	733	559505500	Leg	Leslie		Burton	ZB53121Q	M	(718) 717-5343	09/06/1959	PAPPAS PHYSICAL MEDICINE		1538132154	Clean Air Car Svc & Parking (NYC)	Livery/QN-Med Appt in CMMA	A0100		01/09/2018	01/09/2018	No	2	1		self	(718) 717-5343	6.6	01/09/2018	1330	3553 12th St	Apt 2H 	Astoria	NY	11106	01/09/2018	1400	1305 York Ave	  main	New York	NY	10021	3.3			No	134829823
2504293	734	559505500	Leg	Leslie		Burton	ZB53121Q	M	(718) 717-5343	09/06/1959	PAPPAS PHYSICAL MEDICINE		1538132154	Clean Air Car Svc & Parking (NYC)	Livery/QN-Med Appt in CMMA	A0100		01/09/2018	01/09/2018	No	2	1		self	(718) 717-5343	6.6	01/09/2018	Call	1305 York Ave	 main	New York	NY	10021	01/09/2018	Call	3553 12th St	Apt 2H 	Astoria	NY	11106	3.3			No	134829831
2504293	735	559505500	Service	Leslie		Burton	ZB53121Q	M	(718) 717-5343	09/06/1959	PAPPAS PHYSICAL MEDICINE		1538132154	Clean Air Car Svc & Parking (NYC)	Tolls-Universal	A0170	CG	01/09/2018	01/09/2018	No	2	1																					Tolls-Universal	134829823
2504293	736	559505500	Service	Leslie		Burton	ZB53121Q	M	(718) 717-5343	09/06/1959	PAPPAS PHYSICAL MEDICINE		1538132154	Clean Air Car Svc & Parking (NYC)	Livery-Manhattan Surcharge	A0100	SC	01/09/2018	01/09/2018	No	2	1																					Livery-Manhattan Surcharge	134829823
2504293	737	559505500	Service	Leslie		Burton	ZB53121Q	M	(718) 717-5343	09/06/1959	PAPPAS PHYSICAL MEDICINE		1538132154	Clean Air Car Svc & Parking (NYC)	Livery-Manhattan Surcharge	A0100	SC	01/09/2018	01/09/2018	No	2	1																					Livery-Manhattan Surcharge	134829831
2504293	738	559508240	Leg	Leslie		Burton	ZB53121Q	M	(718) 717-5343	09/06/1959	PAPPAS PHYSICAL MEDICINE		1538132154	Clean Air Car Svc & Parking (NYC)	Livery/QN-Med Appt in CMMA	A0100		01/10/2018	01/10/2018	No	2	1		self	(718) 717-5343	6.6	01/10/2018	0900	3553 12th St	Apt 2H 	Astoria	NY	11106	01/10/2018	0930	1305 York Ave	  main	New York	NY	10021	3.3			No	134830458
2504293	739	559508240	Leg	Leslie		Burton	ZB53121Q	M	(718) 717-5343	09/06/1959	PAPPAS PHYSICAL MEDICINE		1538132154	Clean Air Car Svc & Parking (NYC)	Livery/QN-Med Appt in CMMA	A0100		01/10/2018	01/10/2018	No	2	1		self	(718) 717-5343	6.6	01/10/2018	Call	1305 York Ave	 main	New York	NY	10021	01/10/2018	Call	3553 12th St	Apt 2H 	Astoria	NY	11106	3.3			No	134830459
2504293	740	559508240	Service	Leslie		Burton	ZB53121Q	M	(718) 717-5343	09/06/1959	PAPPAS PHYSICAL MEDICINE		1538132154	Clean Air Car Svc & Parking (NYC)	Tolls-Universal	A0170	CG	01/10/2018	01/10/2018	No	2	1																					Tolls-Universal	134830458
2504293	741	559508240	Service	Leslie		Burton	ZB53121Q	M	(718) 717-5343	09/06/1959	PAPPAS PHYSICAL MEDICINE		1538132154	Clean Air Car Svc & Parking (NYC)	Livery-Manhattan Surcharge	A0100	SC	01/10/2018	01/10/2018	No	2	1																					Livery-Manhattan Surcharge	134830458
2504293	742	559508240	Service	Leslie		Burton	ZB53121Q	M	(718) 717-5343	09/06/1959	PAPPAS PHYSICAL MEDICINE		1538132154	Clean Air Car Svc & Parking (NYC)	Livery-Manhattan Surcharge	A0100	SC	01/10/2018	01/10/2018	No	2	1																					Livery-Manhattan Surcharge	134830459
2504293	743	559516770	Leg	Leslie		Burton	ZB53121Q	M	(718) 717-5343	09/06/1959	PAPPAS PHYSICAL MEDICINE		1538132154	Clean Air Car Svc & Parking (NYC)	Livery/QN-Med Appt in CMMA	A0100		01/11/2018	01/11/2018	No	2	1		self	(718) 717-5343	2.6	01/11/2018	1315	3553 12th St	Apt 2H 	Astoria	NY	11106	01/11/2018	1415	3135 31st St	  main	Astoria	NY	11106	1.3			No	134832028
2504293	744	559516770	Leg	Leslie		Burton	ZB53121Q	M	(718) 717-5343	09/06/1959	PAPPAS PHYSICAL MEDICINE		1538132154	Clean Air Car Svc & Parking (NYC)	Livery/QN-Med Appt in CMMA	A0100		01/11/2018	01/11/2018	No	2	1		self	(718) 717-5343	2.6	01/11/2018	Call	3135 31st St	 main	Astoria	NY	11106	01/11/2018	Call	3553 12th St	Apt 2H 	Astoria	NY	11106	1.3			No	134832029
2504293	745	559520030	Leg	Leslie		Burton	ZB53121Q	M	(718) 717-5343	09/06/1959	PAPPAS PHYSICAL MEDICINE		1538132154	Clean Air Car Svc & Parking (NYC)	Livery/QN-Med Appt in CMMA	A0100		01/08/2018	01/08/2018	No	3	1		self	(718) 717-5343	2.6	01/08/2018	1445	3553 12th St	Apt 2H 	Astoria	NY	11106	01/08/2018	1500	3135 31st St	  main	Astoria	NY	11106	1.3			No	134832671
2504293	746	559520030	Leg	Leslie		Burton	ZB53121Q	M	(718) 717-5343	09/06/1959	PAPPAS PHYSICAL MEDICINE		1538132154	Clean Air Car Svc & Parking (NYC)	Livery/QN-Med Appt in CMMA	A0100		01/08/2018	01/08/2018	No	3	1		self	(718) 717-5343	2.6	01/08/2018	Call	3135 31st St	 main	Astoria	NY	11106	01/08/2018	Call	3004 36th Ave	  	Astoria	NY	11106	.6			No	134832672
2504293	747	559520030	Leg	Leslie		Burton	ZB53121Q	M	(718) 717-5343	09/06/1959	PAPPAS PHYSICAL MEDICINE		1538132154	Clean Air Car Svc & Parking (NYC)	Livery/QN-Med Appt in CMMA	A0100		01/08/2018	01/08/2018	No	3	1		self	(718) 717-5343	2.6	01/08/2018	Call	3004 36th Ave	 	Astoria	NY	11106	01/08/2018	Call	3553 12th St	Apt 2H 	Astoria	NY	11106	.7			No	135479538
2504293	748	559542660	Leg	Reshma		Maharaj	KD54352J	F	3475004614	11/06/1980	Mcdonald Annmarie		1003976341	Clean Air Car Svc & Parking (NYC)	Livery/QN-Med Appt out CMMA	A0100	TN	01/06/2018	01/06/2018	No	4	1		self	3475004614	58.8	01/06/2018	1500	10459 121st St	 	South Richmond Hill	NY	11419	01/06/2018	1600	177 Fort Washington Ave	  	New York	NY	10032	18.1			No	134837954
2504293	749	559542660	Leg	Reshma		Maharaj	KD54352J	F	3475004614	11/06/1980	Mcdonald Annmarie		1003976341	Clean Air Car Svc & Parking (NYC)	Livery/QN-Med Appt out CMMA	A0100	TN	01/06/2018	01/06/2018	No	4	1		self	3475004614	58.8	01/06/2018	1800	177 Fort Washington Ave	 	New York	NY	10032	01/06/2018	CALL	10459 121st St	  	South Richmond Hill	NY	11419	18.1			No	134837955
2504293	750	559542660	Leg	Reshma		Maharaj	KD54352J	F	3475004614	11/06/1980	Mcdonald Annmarie		1003976341	Clean Air Car Svc & Parking (NYC)	Livery/QN-Med Appt out CMMA	A0100	TN	01/06/2018	01/06/2018	No	4	1		self	3475004614	58.8	01/06/2018	0800	10459 121st St	 -	South Richmond Hill	NY	11419	01/06/2018	0900	185 Canal St	  -	New York	NY	10013	11.3			No	135011343
2504293	751	559542660	Leg	Reshma		Maharaj	KD54352J	F	3475004614	11/06/1980	Mcdonald Annmarie		1003976341	Clean Air Car Svc & Parking (NYC)	Livery/QN-Med Appt out CMMA	A0100	TN	01/06/2018	01/06/2018	No	4	1		self	3475004614	58.8	01/06/2018	Call	185 Canal St	 -	New York	NY	10013	01/06/2018	Call	10459 121st St	  -	South Richmond Hill	NY	11419	11.3			No	135011344
2504293	752	559542660	Service	Reshma		Maharaj	KD54352J	F	3475004614	11/06/1980	Mcdonald Annmarie		1003976341	Clean Air Car Svc & Parking (NYC)	Tolls-Universal	A0170	CG	01/06/2018	01/06/2018	No	4	1																					Tolls-Universal	134837954
2504293	753	559542660	Service	Reshma		Maharaj	KD54352J	F	3475004614	11/06/1980	Mcdonald Annmarie		1003976341	Clean Air Car Svc & Parking (NYC)	Mileage-Livery in NYC	S0215		01/06/2018	01/06/2018	No	4	1																					Mileage-Livery in NYC	134837954
2504293	754	559542660	Service	Reshma		Maharaj	KD54352J	F	3475004614	11/06/1980	Mcdonald Annmarie		1003976341	Clean Air Car Svc & Parking (NYC)	Mileage-Livery in NYC	S0215		01/06/2018	01/06/2018	No	4	1																					Mileage-Livery in NYC	134837955
2504293	755	559542660	Service	Reshma		Maharaj	KD54352J	F	3475004614	11/06/1980	Mcdonald Annmarie		1003976341	Clean Air Car Svc & Parking (NYC)	Mileage-Livery in NYC	S0215		01/06/2018	01/06/2018	No	4	1																					Mileage-Livery in NYC	135011343
2504293	756	559542660	Service	Reshma		Maharaj	KD54352J	F	3475004614	11/06/1980	Mcdonald Annmarie		1003976341	Clean Air Car Svc & Parking (NYC)	Mileage-Livery in NYC	S0215		01/06/2018	01/06/2018	No	4	1																					Mileage-Livery in NYC	135011344
2504293	757	559542660	Service	Reshma		Maharaj	KD54352J	F	3475004614	11/06/1980	Mcdonald Annmarie		1003976341	Clean Air Car Svc & Parking (NYC)	Livery-Manhattan Surcharge	A0100	SC	01/06/2018	01/06/2018	No	4	1																					Livery-Manhattan Surcharge	135011343
2504293	758	559542660	Service	Reshma		Maharaj	KD54352J	F	3475004614	11/06/1980	Mcdonald Annmarie		1003976341	Clean Air Car Svc & Parking (NYC)	Livery-Manhattan Surcharge	A0100	SC	01/06/2018	01/06/2018	No	4	1																					Livery-Manhattan Surcharge	135011344
2504293	759	559909130	Leg	Elaine		Winter	SN12085Y	F	(917) 972-1969	10/25/1959	Queens Hospital	000	1801803903	Clean Air Car Svc & Parking (NYC)	Livery/QN-Med Appt in CMMA	A0100		01/10/2018	01/10/2018	No	2	1		SELF	(917) 972-1969		01/10/2018	1000	18 21 25th Road	 HOME	Astoria	NY	11102	01/10/2018	1100	8720 Queens Blvd	  MAIN	Elmhurst	NY	11373	4.5	Additional Rider		No	134947268
2504293	760	559909130	Leg	Elaine		Winter	SN12085Y	F	(917) 972-1969	10/25/1959	Queens Hospital	000	1801803903	Clean Air Car Svc & Parking (NYC)	Livery/QN-Med Appt in CMMA	A0100		01/10/2018	01/10/2018	No	2	1		SELF	(917) 972-1969		01/10/2018	Call	8720 Queens Blvd	 MAIN	Elmhurst	NY	11373	01/10/2018	Call	18 21 25th Road	  HOME	Astoria	NY	11102	4.5			No	134947273
2504293	761	560595010	Leg	Richard	D	Miranda	UT37742D	M	(718) 848-8642	04/05/1991	Machado Orlando		1891065645	Clean Air Car Svc & Parking (NYC)	Livery/QN-Med Appt out CMMA	A0100	TN	01/09/2018	01/09/2018	No	2	1		cirtia/mom,	(718) 848-8642	10.0	01/09/2018	0845	9202 Sutter Ave	# 1 	Ozone Park	NY	11417	01/09/2018	1000	10850 62nd Dr	  main	Forest Hills	NY	11375	5.0	plus 1, Additional Rider		No	135134296
2504293	762	560595010	Leg	Richard	D	Miranda	UT37742D	M	(718) 848-8642	04/05/1991	Machado Orlando		1891065645	Clean Air Car Svc & Parking (NYC)	Livery/QN-Med Appt out CMMA	A0100	TN	01/09/2018	01/09/2018	No	2	1		cirtia/mom,	(718) 848-8642	10.0	01/09/2018	Call	10850 62nd Dr	 main	Forest Hills	NY	11375	01/09/2018	Call	9202 Sutter Ave	# 1 	Ozone Park	NY	11417	5.0			No	135134299
2504293	763	560673430	Leg	Robin		Artale	YA68418Q	F	3473937161	11/11/1963	Brooklyn Hospital Center	000	1326046467	Clean Air Car Svc & Parking (NYC)	Livery/BK-Med Appt in CMMA	A0100		01/06/2018	01/06/2018	No	2	1		self	3473937161		01/06/2018	1000	2018 Voohies Ave	 	Brooklyn	NY	11235	01/06/2018	1100	2044 Ocean Ave	  	Brooklyn	NY	11230	1.8	uses cane, additional rider, driver jenny please		Yes	135155256
2504293	764	560673430	Leg	Robin		Artale	YA68418Q	F	3473937161	11/11/1963	Brooklyn Hospital Center	000	1326046467	Clean Air Car Svc & Parking (NYC)	Livery/BK-Med Appt in CMMA	A0100		01/06/2018	01/06/2018	No	2	1		self	3473937161		01/06/2018	CALL	2044 Ocean Ave	 	Brooklyn	NY	11230	01/06/2018	CALL	2018 Voohies Ave	  	Brooklyn	NY	11235	1.8			Yes	135155257
2504293	765	560673430	Service	Robin		Artale	YA68418Q	F	3473937161	11/11/1963	Brooklyn Hospital Center	000	1326046467	Clean Air Car Svc & Parking (NYC)	Tolls-Universal	A0170	CG	01/06/2018	01/06/2018	No	2	1																					Tolls-Universal	135155256
2504293	766	560676010	Leg	Patricia		Jones-johnson	ZS98662B	F	(718) 213-5630	01/28/1962	Brooklyn Hospital Center	000	1326046467	Clean Air Car Svc & Parking (NYC)	Livery/BK-Med Appt in CMMA	A0100		01/05/2018	01/05/2018	No	2	1		self	(718) 213-5630	4.4	01/05/2018	0900	795 Putnam Ave	Apt 2R 	Brooklyn	NY	11221	01/05/2018	1000	528 Prospect Pl	  main	Brooklyn	NY	11238	2.2	add one		No	135155724
2504293	767	560676010	Leg	Patricia		Jones-johnson	ZS98662B	F	(718) 213-5630	01/28/1962	Brooklyn Hospital Center	000	1326046467	Clean Air Car Svc & Parking (NYC)	Livery/BK-Med Appt in CMMA	A0100		01/05/2018	01/05/2018	No	2	1		self	(718) 213-5630	4.4	01/05/2018	Call	528 Prospect Pl	 main	Brooklyn	NY	11238	01/05/2018	Call	795 Putnam Ave	Apt 2R 	Brooklyn	NY	11221	2.2			No	135155725
2504293	768	560816240	Leg	Zheng		Yang	MS54967T	M	(516) 504-3869	07/19/1933	Liao Wei		1912091349	Clean Air Car Svc & Parking (NYC)	Livery/QN-Med Appt in CMMA	A0100		01/06/2018	01/06/2018	No	2	1		wife	(516) 504-3869	.6	01/06/2018	1000	13870 Elder Ave	Apt 3D 	Flushing	NY	11355	01/06/2018	1100	13621 Franklin Ave	  	Flushing	NY	11355	.3	enrl has a cane, Additional Rider		No	135192406
2504293	769	560816240	Leg	Zheng		Yang	MS54967T	M	(516) 504-3869	07/19/1933	Liao Wei		1912091349	Clean Air Car Svc & Parking (NYC)	Livery/QN-Med Appt in CMMA	A0100		01/06/2018	01/06/2018	No	2	1		wife	(516) 504-3869	.6	01/06/2018	Call	13621 Franklin Ave	 	Flushing	NY	11355	01/06/2018	Call	13870 Elder Ave	Apt 3D 	Flushing	NY	11355	.3			No	135192407
2504293	770	560827020	Leg	Zheng		Yang	MS54967T	M	(516) 504-3869	07/19/1933	Liao Wei		1912091349	Clean Air Car Svc & Parking (NYC)	Livery/QN-Med Appt in CMMA	A0100		01/18/2018	01/18/2018	No	2	1		wife	(516) 504-3869	1.6	01/18/2018	1000	13870 Elder Ave	Apt 3D 	Flushing	NY	11355	01/18/2018	1100	13640 39th Ave	8632804 	Flushing	NY	11354	.8	Enrl has a cane, Additional Rider		No	135194907
2504293	771	560827020	Leg	Zheng		Yang	MS54967T	M	(516) 504-3869	07/19/1933	Liao Wei		1912091349	Clean Air Car Svc & Parking (NYC)	Livery/QN-Med Appt in CMMA	A0100		01/18/2018	01/18/2018	No	2	1		wife	(516) 504-3869	1.6	01/18/2018	Call	13640 39th Ave	8632804 	Flushing	NY	11354	01/18/2018	Call	13870 Elder Ave	Apt 3D 	Flushing	NY	11355	.8			No	135194908
2504293	772	560887380	Leg	Henrickson		Francois	XF05691E	M	(718) 931-3573	07/05/1957	Masci Joseph		1891709648	Clean Air Car Svc & Parking (NYC)	Livery/QN-Med Appt in CMMA	A0100		01/05/2018	01/05/2018	No	2	1		Self	(718) 931-3573	9.6	01/05/2018	1500	43-44 Kissena Bld             2n	 Home	Flushing	NY	11355	01/05/2018	1600	9027 Sutphin Blvd	  Main Entrance	Jamaica	NY	11435	4.8			No	135207065
2504293	773	560887380	Leg	Henrickson		Francois	XF05691E	M	(718) 931-3573	07/05/1957	Masci Joseph		1891709648	Clean Air Car Svc & Parking (NYC)	Livery/QN-Med Appt in CMMA	A0100		01/05/2018	01/05/2018	No	2	1		Self	(718) 931-3573	9.6	01/05/2018	Call	9027 Sutphin Blvd	 Main Entrance	Jamaica	NY	11435	01/05/2018	Call	43-44 Kissena Bld             2n	  Home	Flushing	NY	11355	4.8			No	135207066
2504293	774	561109400	Leg	Kim	L	Ham	YX60562V	F	(516) 302-3495	02/28/1974	Queens Hospital	000	1801803903	Clean Air Car Svc & Parking (NYC)	Livery/QN-Med Appt out CMMA	A0100	TN	01/05/2018	01/05/2018	No	2	1		self	(516) 302-3495	32.0	01/05/2018	1130	17224 133rd Ave	APT 10B 	Jamaica	NY	11434	01/05/2018	1300	535 E 70th St	  main	New York	NY	10021	16.0	Additional Rider		No	135262560
2504293	775	561109400	Leg	Kim	L	Ham	YX60562V	F	(516) 302-3495	02/28/1974	Queens Hospital	000	1801803903	Clean Air Car Svc & Parking (NYC)	Livery/QN-Med Appt out CMMA	A0100	TN	01/05/2018	01/05/2018	No	2	1		self	(516) 302-3495	32.0	01/05/2018	Call	535 E 70th St	 main	New York	NY	10021	01/05/2018	Call	17224 133rd Ave	APT 10B 	Jamaica	NY	11434	16.0			No	135262562
2504293	776	561109400	Service	Kim	L	Ham	YX60562V	F	(516) 302-3495	02/28/1974	Queens Hospital	000	1801803903	Clean Air Car Svc & Parking (NYC)	Mileage-Livery in NYC	S0215		01/05/2018	01/05/2018	No	2	1																					Mileage-Livery in NYC	135262560
2504293	777	561109400	Service	Kim	L	Ham	YX60562V	F	(516) 302-3495	02/28/1974	Queens Hospital	000	1801803903	Clean Air Car Svc & Parking (NYC)	Mileage-Livery in NYC	S0215		01/05/2018	01/05/2018	No	2	1																					Mileage-Livery in NYC	135262562
2504293	778	561109400	Service	Kim	L	Ham	YX60562V	F	(516) 302-3495	02/28/1974	Queens Hospital	000	1801803903	Clean Air Car Svc & Parking (NYC)	Tolls-Universal	A0170	CG	01/05/2018	01/05/2018	No	2	1																					Tolls-Universal	135262560
2504293	779	561109400	Service	Kim	L	Ham	YX60562V	F	(516) 302-3495	02/28/1974	Queens Hospital	000	1801803903	Clean Air Car Svc & Parking (NYC)	Livery-Manhattan Surcharge	A0100	SC	01/05/2018	01/05/2018	No	2	1																					Livery-Manhattan Surcharge	135262560
2504293	780	561109400	Service	Kim	L	Ham	YX60562V	F	(516) 302-3495	02/28/1974	Queens Hospital	000	1801803903	Clean Air Car Svc & Parking (NYC)	Livery-Manhattan Surcharge	A0100	SC	01/05/2018	01/05/2018	No	2	1																					Livery-Manhattan Surcharge	135262562
2504293	781	561118080	Leg	Kim	L	Ham	YX60562V	F	(516) 302-3495	02/28/1974	Queens Hospital	000	1801803903	Clean Air Car Svc & Parking (NYC)	Livery/QN-Med Appt out CMMA	A0100	TN	01/11/2018	01/11/2018	No	2	1		self	(516) 302-3495	31.8	01/11/2018	0800	17224 133rd Ave	APT 10B 	Jamaica	NY	11434	01/11/2018	0900	1305 York Ave	2nd floor 	New York	NY	10021	15.9			No	135264930
2504293	782	561118080	Leg	Kim	L	Ham	YX60562V	F	(516) 302-3495	02/28/1974	Queens Hospital	000	1801803903	Clean Air Car Svc & Parking (NYC)	Livery/QN-Med Appt out CMMA	A0100	TN	01/11/2018	01/11/2018	No	2	1		self	(516) 302-3495	31.8	01/11/2018	Call	1305 York Ave	2nd floor 	New York	NY	10021	01/11/2018	Call	17224 133rd Ave	APT 10B 	Jamaica	NY	11434	15.9			No	135264931
2504293	783	561118080	Service	Kim	L	Ham	YX60562V	F	(516) 302-3495	02/28/1974	Queens Hospital	000	1801803903	Clean Air Car Svc & Parking (NYC)	Mileage-Livery in NYC	S0215		01/11/2018	01/11/2018	No	2	1																					Mileage-Livery in NYC	135264930
2504293	784	561118080	Service	Kim	L	Ham	YX60562V	F	(516) 302-3495	02/28/1974	Queens Hospital	000	1801803903	Clean Air Car Svc & Parking (NYC)	Mileage-Livery in NYC	S0215		01/11/2018	01/11/2018	No	2	1																					Mileage-Livery in NYC	135264931
2504293	785	561118080	Service	Kim	L	Ham	YX60562V	F	(516) 302-3495	02/28/1974	Queens Hospital	000	1801803903	Clean Air Car Svc & Parking (NYC)	Tolls-Universal	A0170	CG	01/11/2018	01/11/2018	No	2	1																					Tolls-Universal	135264930
2504293	786	561118080	Service	Kim	L	Ham	YX60562V	F	(516) 302-3495	02/28/1974	Queens Hospital	000	1801803903	Clean Air Car Svc & Parking (NYC)	Livery-Manhattan Surcharge	A0100	SC	01/11/2018	01/11/2018	No	2	1																					Livery-Manhattan Surcharge	135264930
2504293	787	561118080	Service	Kim	L	Ham	YX60562V	F	(516) 302-3495	02/28/1974	Queens Hospital	000	1801803903	Clean Air Car Svc & Parking (NYC)	Livery-Manhattan Surcharge	A0100	SC	01/11/2018	01/11/2018	No	2	1																					Livery-Manhattan Surcharge	135264931
2504293	788	561124440	Leg	Kim	L	Ham	YX60562V	F	(516) 302-3495	02/28/1974	Queens Hospital	000	1801803903	Clean Air Car Svc & Parking (NYC)	Livery/QN-Med Appt out CMMA	A0100	TN	01/12/2018	01/12/2018	No	2	1		self	(516) 302-3495	31.4	01/12/2018	0930	17224 133rd Ave	APT 10B 	Jamaica	NY	11434	01/12/2018	1100	425 E 68th St	  main	New York	NY	10065	15.7			No	135266963
2504293	789	561124440	Leg	Kim	L	Ham	YX60562V	F	(516) 302-3495	02/28/1974	Queens Hospital	000	1801803903	Clean Air Car Svc & Parking (NYC)	Livery/QN-Med Appt out CMMA	A0100	TN	01/12/2018	01/12/2018	No	2	1		self	(516) 302-3495	31.4	01/12/2018	Call	425 E 68th St	 main	New York	NY	10065	01/12/2018	Call	17224 133rd Ave	APT 10B 	Jamaica	NY	11434	15.7			No	135266964
2504293	790	561124440	Service	Kim	L	Ham	YX60562V	F	(516) 302-3495	02/28/1974	Queens Hospital	000	1801803903	Clean Air Car Svc & Parking (NYC)	Mileage-Livery in NYC	S0215		01/12/2018	01/12/2018	No	2	1																					Mileage-Livery in NYC	135266963
2504293	791	561124440	Service	Kim	L	Ham	YX60562V	F	(516) 302-3495	02/28/1974	Queens Hospital	000	1801803903	Clean Air Car Svc & Parking (NYC)	Mileage-Livery in NYC	S0215		01/12/2018	01/12/2018	No	2	1																					Mileage-Livery in NYC	135266964
2504293	792	561124440	Service	Kim	L	Ham	YX60562V	F	(516) 302-3495	02/28/1974	Queens Hospital	000	1801803903	Clean Air Car Svc & Parking (NYC)	Tolls-Universal	A0170	CG	01/12/2018	01/12/2018	No	2	1																					Tolls-Universal	135266963
2504293	793	561124440	Service	Kim	L	Ham	YX60562V	F	(516) 302-3495	02/28/1974	Queens Hospital	000	1801803903	Clean Air Car Svc & Parking (NYC)	Livery-Manhattan Surcharge	A0100	SC	01/12/2018	01/12/2018	No	2	1																					Livery-Manhattan Surcharge	135266963
2504293	794	561124440	Service	Kim	L	Ham	YX60562V	F	(516) 302-3495	02/28/1974	Queens Hospital	000	1801803903	Clean Air Car Svc & Parking (NYC)	Livery-Manhattan Surcharge	A0100	SC	01/12/2018	01/12/2018	No	2	1																					Livery-Manhattan Surcharge	135266964
2504293	795	561129220	Leg	Kim	L	Ham	YX60562V	F	(516) 302-3495	02/28/1974	Queens Hospital	000	1801803903	Clean Air Car Svc & Parking (NYC)	Livery/QN-Med Appt out CMMA	A0100	TN	01/17/2018	01/17/2018	No	2	1		self	(516) 302-3495	32.8	01/17/2018	1200	17224 133rd Ave	APT 10B 	Jamaica	NY	11434	01/17/2018	1345	130 E 77th St	  main	New York	NY	10075	16.4			No	135268044
2504293	796	561129220	Leg	Kim	L	Ham	YX60562V	F	(516) 302-3495	02/28/1974	Queens Hospital	000	1801803903	Clean Air Car Svc & Parking (NYC)	Livery/QN-Med Appt out CMMA	A0100	TN	01/17/2018	01/17/2018	No	2	1		self	(516) 302-3495	32.8	01/17/2018	Call	130 E 77th St	 main	New York	NY	10075	01/17/2018	Call	17224 133rd Ave	APT 10B 	Jamaica	NY	11434	16.4			No	135268048
2504293	797	561129220	Service	Kim	L	Ham	YX60562V	F	(516) 302-3495	02/28/1974	Queens Hospital	000	1801803903	Clean Air Car Svc & Parking (NYC)	Mileage-Livery in NYC	S0215		01/17/2018	01/17/2018	No	2	1																					Mileage-Livery in NYC	135268044
2504293	798	561129220	Service	Kim	L	Ham	YX60562V	F	(516) 302-3495	02/28/1974	Queens Hospital	000	1801803903	Clean Air Car Svc & Parking (NYC)	Mileage-Livery in NYC	S0215		01/17/2018	01/17/2018	No	2	1																					Mileage-Livery in NYC	135268048
2504293	799	561129220	Service	Kim	L	Ham	YX60562V	F	(516) 302-3495	02/28/1974	Queens Hospital	000	1801803903	Clean Air Car Svc & Parking (NYC)	Tolls-Universal	A0170	CG	01/17/2018	01/17/2018	No	2	1																					Tolls-Universal	135268044
2504293	800	561129220	Service	Kim	L	Ham	YX60562V	F	(516) 302-3495	02/28/1974	Queens Hospital	000	1801803903	Clean Air Car Svc & Parking (NYC)	Livery-Manhattan Surcharge	A0100	SC	01/17/2018	01/17/2018	No	2	1																					Livery-Manhattan Surcharge	135268044
2504293	801	561129220	Service	Kim	L	Ham	YX60562V	F	(516) 302-3495	02/28/1974	Queens Hospital	000	1801803903	Clean Air Car Svc & Parking (NYC)	Livery-Manhattan Surcharge	A0100	SC	01/17/2018	01/17/2018	No	2	1																					Livery-Manhattan Surcharge	135268048
2504293	802	561184630	Leg	Yanique		Ford	SG65867E	F	6313364112	06/06/1985	NY Presbyterian Hospital		1952332801	Clean Air Car Svc & Parking (NYC)	Livery/MN-Med Appt out CMMA	A0100	TN	01/05/2018	01/05/2018	No	2	1		self	6313364112	17.6	01/05/2018	0900	25 Pine St	 	New York	NY	10005	01/05/2018	1000	2510 30th Rd	  	Long Island City	NY	11102	8.8	1 Additional rider(s). 1 Additional rider(s). 1 Additional rider(s). 1 other passanger		No	135281367
2504293	803	561184630	Leg	Yanique		Ford	SG65867E	F	6313364112	06/06/1985	NY Presbyterian Hospital		1952332801	Clean Air Car Svc & Parking (NYC)	Livery/MN-Med Appt out CMMA	A0100	TN	01/05/2018	01/05/2018	No	2	1		self	6313364112	17.6	01/05/2018	Call	2510 30th Rd	 	Long Island City	NY	11102	01/05/2018	Call	25 Pine St	  	New York	NY	10005	8.8	1 Additional rider(s). 1 Additional rider(s). 1 Additional rider(s). 1 other passanger		No	135281368
2504293	804	561184630	Service	Yanique		Ford	SG65867E	F	6313364112	06/06/1985	NY Presbyterian Hospital		1952332801	Clean Air Car Svc & Parking (NYC)	Mileage-Livery in NYC	S0215		01/05/2018	01/05/2018	No	2	1																					Mileage-Livery in NYC	135281367
2504293	805	561184630	Service	Yanique		Ford	SG65867E	F	6313364112	06/06/1985	NY Presbyterian Hospital		1952332801	Clean Air Car Svc & Parking (NYC)	Mileage-Livery in NYC	S0215		01/05/2018	01/05/2018	No	2	1																					Mileage-Livery in NYC	135281368
2504293	806	561184630	Service	Yanique		Ford	SG65867E	F	6313364112	06/06/1985	NY Presbyterian Hospital		1952332801	Clean Air Car Svc & Parking (NYC)	Tolls-Universal	A0170	CG	01/05/2018	01/05/2018	No	2	1																					Tolls-Universal	135281367
2504293	807	561184630	Service	Yanique		Ford	SG65867E	F	6313364112	06/06/1985	NY Presbyterian Hospital		1952332801	Clean Air Car Svc & Parking (NYC)	Livery-Manhattan Surcharge	A0100	SC	01/05/2018	01/05/2018	No	2	1																					Livery-Manhattan Surcharge	135281367
2504293	808	561184630	Service	Yanique		Ford	SG65867E	F	6313364112	06/06/1985	NY Presbyterian Hospital		1952332801	Clean Air Car Svc & Parking (NYC)	Livery-Manhattan Surcharge	A0100	SC	01/05/2018	01/05/2018	No	2	1																					Livery-Manhattan Surcharge	135281368
2504293	809	561233050	Leg	Ferdousi		Mollick	VJ15639Y	F	(718) 606-1747	02/15/1962	Abdelmalek Ehab		1366599755	Clean Air Car Svc & Parking (NYC)	Livery/QN-Med Appt in CMMA	A0100		01/09/2018	01/09/2018	No	2	1		self	(718) 606-1747	4.2	01/09/2018	1230	5921 Calloway St	Apt 4F 	Corona	NY	11368	01/09/2018	1330	8114 Baxter Ave	  	Elmhurst	NY	11373	2.1			No	135292607
2504293	810	561233050	Leg	Ferdousi		Mollick	VJ15639Y	F	(718) 606-1747	02/15/1962	Abdelmalek Ehab		1366599755	Clean Air Car Svc & Parking (NYC)	Livery/QN-Med Appt in CMMA	A0100		01/09/2018	01/09/2018	No	2	1		self	(718) 606-1747	4.2	01/09/2018	Call	8114 Baxter Ave	 	Elmhurst	NY	11373	01/09/2018	Call	5921 Calloway St	Apt 4F 	Corona	NY	11368	2.1			No	135292608
2504293	811	561235930	Leg	Ferdousi		Mollick	VJ15639Y	F	(718) 606-1747	02/15/1962	Abdelmalek Ehab		1366599755	Clean Air Car Svc & Parking (NYC)	Livery/QN-Med Appt in CMMA	A0100		01/13/2018	01/13/2018	No	2	1		self	(718) 606-1747	6.2	01/13/2018	1300	5921 Calloway St	Apt 4F 	Corona	NY	11368	01/13/2018	1400	6413 Broadway	  	Woodside	NY	11377	3.1			No	135293456
2504293	812	561235930	Leg	Ferdousi		Mollick	VJ15639Y	F	(718) 606-1747	02/15/1962	Abdelmalek Ehab		1366599755	Clean Air Car Svc & Parking (NYC)	Livery/QN-Med Appt in CMMA	A0100		01/13/2018	01/13/2018	No	2	1		self	(718) 606-1747	6.2	01/13/2018	Call	6413 Broadway	 	Woodside	NY	11377	01/13/2018	Call	5921 Calloway St	Apt 4F 	Corona	NY	11368	3.1			No	135293457
2504293	813	561279490	Leg	Sharon		Caffey	XQ37608H	F	(718) 301-3775	09/04/1964	Bradnock Howard		1225002751	Clean Air Car Svc & Parking (NYC)	Livery/QN-Med Appt out CMMA	A0100	TN	01/06/2018	01/06/2018	No	4	1		self	(718) 301-3775	55.4	01/06/2018	0800	3441 Linden Pl	Apt 2B 	Flushing	NY	11354	01/06/2018	0900	7517 6th Ave	  Main	Brooklyn	NY	11209	18.3			No	135303160
2504293	814	561279490	Leg	Sharon		Caffey	XQ37608H	F	(718) 301-3775	09/04/1964	Bradnock Howard		1225002751	Clean Air Car Svc & Parking (NYC)	Livery/QN-Med Appt out CMMA	A0100	TN	01/06/2018	01/06/2018	No	4	1		self	(718) 301-3775	55.4	01/06/2018	Call	7517 6th Ave	 Main	Brooklyn	NY	11209	01/06/2018	Call	3441 Linden Pl	Apt 2B 	Flushing	NY	11354	18.3			No	135303161
2504293	815	561279490	Leg	Sharon		Caffey	XQ37608H	F	(718) 301-3775	09/04/1964	Bradnock Howard		1225002751	Clean Air Car Svc & Parking (NYC)	Livery/QN-Med Appt out CMMA	A0100	TN	01/06/2018	01/06/2018	No	4	1		self	(718) 301-3775	55.4	01/06/2018	1430	3441 Linden Pl	Apt 2B 	Flushing	NY	11354	01/06/2018	1530	1305 York Ave	  	New York	NY	10021	9.4			No	135303256
2504293	816	561279490	Leg	Sharon		Caffey	XQ37608H	F	(718) 301-3775	09/04/1964	Bradnock Howard		1225002751	Clean Air Car Svc & Parking (NYC)	Livery/QN-Med Appt out CMMA	A0100	TN	01/06/2018	01/06/2018	No	4	1		self	(718) 301-3775	55.4	01/06/2018	Call	1305 York Ave	 	New York	NY	10021	01/06/2018	Call	3441 Linden Pl	Apt 2B 	Flushing	NY	11354	9.4			No	135303257
2504293	817	561279490	Service	Sharon		Caffey	XQ37608H	F	(718) 301-3775	09/04/1964	Bradnock Howard		1225002751	Clean Air Car Svc & Parking (NYC)	Tolls-Universal	A0170	CG	01/06/2018	01/06/2018	No	4	1																					Tolls-Universal	135303160
2504293	818	561279490	Service	Sharon		Caffey	XQ37608H	F	(718) 301-3775	09/04/1964	Bradnock Howard		1225002751	Clean Air Car Svc & Parking (NYC)	Mileage-Livery in NYC	S0215		01/06/2018	01/06/2018	No	4	1																					Mileage-Livery in NYC	135303160
2504293	819	561279490	Service	Sharon		Caffey	XQ37608H	F	(718) 301-3775	09/04/1964	Bradnock Howard		1225002751	Clean Air Car Svc & Parking (NYC)	Mileage-Livery in NYC	S0215		01/06/2018	01/06/2018	No	4	1																					Mileage-Livery in NYC	135303161
2504293	820	561279490	Service	Sharon		Caffey	XQ37608H	F	(718) 301-3775	09/04/1964	Bradnock Howard		1225002751	Clean Air Car Svc & Parking (NYC)	Mileage-Livery in NYC	S0215		01/06/2018	01/06/2018	No	4	1																					Mileage-Livery in NYC	135303256
2504293	821	561279490	Service	Sharon		Caffey	XQ37608H	F	(718) 301-3775	09/04/1964	Bradnock Howard		1225002751	Clean Air Car Svc & Parking (NYC)	Livery-Manhattan Surcharge	A0100	SC	01/06/2018	01/06/2018	No	4	1																					Livery-Manhattan Surcharge	135303256
2504293	822	561279490	Service	Sharon		Caffey	XQ37608H	F	(718) 301-3775	09/04/1964	Bradnock Howard		1225002751	Clean Air Car Svc & Parking (NYC)	Mileage-Livery in NYC	S0215		01/06/2018	01/06/2018	No	4	1																					Mileage-Livery in NYC	135303257
2504293	823	561279490	Service	Sharon		Caffey	XQ37608H	F	(718) 301-3775	09/04/1964	Bradnock Howard		1225002751	Clean Air Car Svc & Parking (NYC)	Livery-Manhattan Surcharge	A0100	SC	01/06/2018	01/06/2018	No	4	1																					Livery-Manhattan Surcharge	135303257
2504293	824	561337320	Leg	Fungsin		Chiu	NA77401H	F	(646) 705-5501	07/12/1944	Hon, King-Chen		1447281738	Clean Air Car Svc & Parking (NYC)	Livery/QN-Med Appt in CMMA	A0100		01/08/2018	01/08/2018	No	2	1		grandson	(646) 705-5501	6.4	01/08/2018	0900	18819 Underhill Ave	 -	Fresh Meadows	NY	11365	01/08/2018	1000	13511 40th Rd	  -	Flushing	NY	11354	3.2	1 Additional rider(s). s/o thur fri, Additional Rider		No	135315179
2504293	825	561337320	Leg	Fungsin		Chiu	NA77401H	F	(646) 705-5501	07/12/1944	Hon, King-Chen		1447281738	Clean Air Car Svc & Parking (NYC)	Livery/QN-Med Appt in CMMA	A0100		01/08/2018	01/08/2018	No	2	1		grandson	(646) 705-5501	6.4	01/08/2018	Call	13511 40th Rd	 -	Flushing	NY	11354	01/08/2018	Call	18819 Underhill Ave	  -	Fresh Meadows	NY	11365	3.2	1 Additional rider(s). s/o thur fri, Additional Rider		No	135315180
2504293	826	561339030	Leg	Fungsin		Chiu	NA77401H	F	(646) 705-5501	07/12/1944	Hon, King-Chen		1447281738	Clean Air Car Svc & Parking (NYC)	Livery/QN-Med Appt in CMMA	A0100		01/10/2018	01/10/2018	No	2	1		grandson	(646) 705-5501	3.4	01/10/2018	0900	18819 Underhill Ave	 -	Fresh Meadows	NY	11365	01/10/2018	1000	16303 Horace Harding Expy	  	Fresh Meadows	NY	11365	1.7	1 Additional rider(s). 1 Additional rider(s). s/o thur fri, Additional Rider		No	135316908
2504293	827	561339030	Leg	Fungsin		Chiu	NA77401H	F	(646) 705-5501	07/12/1944	Hon, King-Chen		1447281738	Clean Air Car Svc & Parking (NYC)	Livery/QN-Med Appt in CMMA	A0100		01/10/2018	01/10/2018	No	2	1		grandson	(646) 705-5501	3.4	01/10/2018	Call	16303 Horace Harding Expy	 	Fresh Meadows	NY	11365	01/10/2018	Call	18819 Underhill Ave	  -	Fresh Meadows	NY	11365	1.7	1 Additional rider(s). 1 Additional rider(s). s/o thur fri, Additional Rider		No	135316910
2504293	828	561342210	Leg	Fungsin		Chiu	NA77401H	F	(646) 705-5501	07/12/1944	Hon, King-Chen		1447281738	Clean Air Car Svc & Parking (NYC)	Livery/QN-Med Appt in CMMA	A0100		01/11/2018	01/11/2018	No	2	1		grandson	(646) 705-5501	6.4	01/11/2018	0900	18819 Underhill Ave	 -	Fresh Meadows	NY	11365	01/11/2018	1000	13511 40th Rd	  -	Flushing	NY	11354	3.2	1 Additional rider(s). 1 Additional rider(s). s/o thur fri, Additional Rider		No	135318448
2504293	829	561342210	Leg	Fungsin		Chiu	NA77401H	F	(646) 705-5501	07/12/1944	Hon, King-Chen		1447281738	Clean Air Car Svc & Parking (NYC)	Livery/QN-Med Appt in CMMA	A0100		01/11/2018	01/11/2018	No	2	1		grandson	(646) 705-5501	6.4	01/11/2018	Call	13511 40th Rd	 -	Flushing	NY	11354	01/11/2018	Call	18819 Underhill Ave	  -	Fresh Meadows	NY	11365	3.2	1 Additional rider(s). 1 Additional rider(s). s/o thur fri, Additional Rider		No	135318451
2504293	830	561346990	Leg	Fungsin		Chiu	NA77401H	F	(646) 705-5501	07/12/1944	Hon, King-Chen		1447281738	Clean Air Car Svc & Parking (NYC)	Livery/QN-Med Appt in CMMA	A0100		01/12/2018	01/12/2018	No	2	1		grandson	(646) 705-5501	3.4	01/12/2018	0900	18819 Underhill Ave	 -	Fresh Meadows	NY	11365	01/12/2018	1000	16303 Horace Harding Expy	  	Fresh Meadows	NY	11365	1.7	1 Additional rider(s). 1 Additional rider(s). 1 Additional rider(s). s/o thur fri, Additional Rider		No	135320342
2504293	831	561346990	Leg	Fungsin		Chiu	NA77401H	F	(646) 705-5501	07/12/1944	Hon, King-Chen		1447281738	Clean Air Car Svc & Parking (NYC)	Livery/QN-Med Appt in CMMA	A0100		01/12/2018	01/12/2018	No	2	1		grandson	(646) 705-5501	3.4	01/12/2018	Call	16303 Horace Harding Expy	 	Fresh Meadows	NY	11365	01/12/2018	Call	18819 Underhill Ave	  -	Fresh Meadows	NY	11365	1.7	1 Additional rider(s). 1 Additional rider(s). 1 Additional rider(s). s/o thur fri, Additional Rider		No	135320343
2504293	832	561455790	Leg	Lirije		Kuqi	SQ03250H	F	(718) 938-5087	03/19/1949	Queens Hospital	000	1801803903	Clean Air Car Svc & Parking (NYC)	Livery/QN-Med Appt out CMMA	A0100	TN	01/08/2018	01/08/2018	No	2	1		self	(718) 938-5087	21.0	01/08/2018	1400	8346 118th St	 hm	Kew Gardens	NY	11415	01/08/2018	1500	100 E 77th St	  mn	New York	NY	10075	10.5	Additional Rider		No	135347644
2504293	833	561455790	Leg	Lirije		Kuqi	SQ03250H	F	(718) 938-5087	03/19/1949	Queens Hospital	000	1801803903	Clean Air Car Svc & Parking (NYC)	Livery/QN-Med Appt out CMMA	A0100	TN	01/08/2018	01/08/2018	No	2	1		self	(718) 938-5087	21.0	01/08/2018	Call	100 E 77th St	 mn	New York	NY	10075	01/08/2018	Call	8346 118th St	  hm	Kew Gardens	NY	11415	10.5			No	135347645
2504293	834	561455790	Service	Lirije		Kuqi	SQ03250H	F	(718) 938-5087	03/19/1949	Queens Hospital	000	1801803903	Clean Air Car Svc & Parking (NYC)	Mileage-Livery in NYC	S0215		01/08/2018	01/08/2018	No	2	1																					Mileage-Livery in NYC	135347644
2504293	835	561455790	Service	Lirije		Kuqi	SQ03250H	F	(718) 938-5087	03/19/1949	Queens Hospital	000	1801803903	Clean Air Car Svc & Parking (NYC)	Mileage-Livery in NYC	S0215		01/08/2018	01/08/2018	No	2	1																					Mileage-Livery in NYC	135347645
2504293	836	561455790	Service	Lirije		Kuqi	SQ03250H	F	(718) 938-5087	03/19/1949	Queens Hospital	000	1801803903	Clean Air Car Svc & Parking (NYC)	Tolls-Universal	A0170	CG	01/08/2018	01/08/2018	No	2	1																					Tolls-Universal	135347644
2504293	837	561455790	Service	Lirije		Kuqi	SQ03250H	F	(718) 938-5087	03/19/1949	Queens Hospital	000	1801803903	Clean Air Car Svc & Parking (NYC)	Livery-Manhattan Surcharge	A0100	SC	01/08/2018	01/08/2018	No	2	1																					Livery-Manhattan Surcharge	135347644
2504293	838	561455790	Service	Lirije		Kuqi	SQ03250H	F	(718) 938-5087	03/19/1949	Queens Hospital	000	1801803903	Clean Air Car Svc & Parking (NYC)	Livery-Manhattan Surcharge	A0100	SC	01/08/2018	01/08/2018	No	2	1																					Livery-Manhattan Surcharge	135347645
2504293	839	561621900	Leg	Shamima		Rahman	QT41827U	F	(929) 433-0432	08/09/1960	MAMEDOVA-BRAZ, YELENA		1538319728	Clean Air Car Svc & Parking (NYC)	Livery/QN-Med Appt out CMMA	A0100	TN	01/05/2018	01/05/2018	No	2	1		daughter	(929) 433-0432	12.2	01/05/2018	1000	19332 Foothill Ave	 home	Hollis	NY	11423	01/05/2018	1100	3907 Prince St	  main	Flushing	NY	11354	6.1			No	135386425
2504293	840	561621900	Leg	Shamima		Rahman	QT41827U	F	(929) 433-0432	08/09/1960	MAMEDOVA-BRAZ, YELENA		1538319728	Clean Air Car Svc & Parking (NYC)	Livery/QN-Med Appt out CMMA	A0100	TN	01/05/2018	01/05/2018	No	2	1		daughter	(929) 433-0432	12.2	01/05/2018	Call	3907 Prince St	 main	Flushing	NY	11354	01/05/2018	Call	19332 Foothill Ave	  home	Hollis	NY	11423	6.1			No	135386426
2504293	841	561788370	Leg	Sonia	M	Rodriguez	YC43117K	F	(347) 692-6335	02/23/1948	Allen Deborah		1184747693	Clean Air Car Svc & Parking (NYC)	Livery/QN-Med Appt out CMMA	A0100	TN	01/11/2018	01/11/2018	No	2	1		self	(347) 692-6335	17.4	01/11/2018	1200	10307 Corona Ave	Fl 2-C 	Corona	NY	11368	01/11/2018	1300	1901 1st Ave	  	New York	NY	10029	8.7	Additional Rider		No	135430238
2504293	842	561788370	Leg	Sonia	M	Rodriguez	YC43117K	F	(347) 692-6335	02/23/1948	Allen Deborah		1184747693	Clean Air Car Svc & Parking (NYC)	Livery/QN-Med Appt out CMMA	A0100	TN	01/11/2018	01/11/2018	No	2	1		self	(347) 692-6335	17.4	01/11/2018	Call	1901 1st Ave	 	New York	NY	10029	01/11/2018	Call	10307 Corona Ave	Fl 2-C 	Corona	NY	11368	8.7			No	139688764
2504293	843	561788370	Service	Sonia	M	Rodriguez	YC43117K	F	(347) 692-6335	02/23/1948	Allen Deborah		1184747693	Clean Air Car Svc & Parking (NYC)	Mileage-Livery in NYC	S0215		01/11/2018	01/11/2018	No	2	1																					Mileage-Livery in NYC	135430238
2504293	844	561788370	Service	Sonia	M	Rodriguez	YC43117K	F	(347) 692-6335	02/23/1948	Allen Deborah		1184747693	Clean Air Car Svc & Parking (NYC)	Tolls-Universal	A0170	CG	01/11/2018	01/11/2018	No	2	1																					Tolls-Universal	135430238
2504293	845	561788370	Service	Sonia	M	Rodriguez	YC43117K	F	(347) 692-6335	02/23/1948	Allen Deborah		1184747693	Clean Air Car Svc & Parking (NYC)	Livery-Manhattan Surcharge	A0100	SC	01/11/2018	01/11/2018	No	2	1																					Livery-Manhattan Surcharge	135430238
2504293	846	561788370	Service	Sonia	M	Rodriguez	YC43117K	F	(347) 692-6335	02/23/1948	Allen Deborah		1184747693	Clean Air Car Svc & Parking (NYC)	Mileage-Livery in NYC	S0215		01/11/2018	01/11/2018	No	2	1																					Mileage-Livery in NYC	139688764
2504293	847	561788370	Service	Sonia	M	Rodriguez	YC43117K	F	(347) 692-6335	02/23/1948	Allen Deborah		1184747693	Clean Air Car Svc & Parking (NYC)	Livery-Manhattan Surcharge	A0100	SC	01/11/2018	01/11/2018	No	2	1																					Livery-Manhattan Surcharge	139688764
2504293	848	561792700	Leg	Kenneth		Mayes	XN80853S	M	(631) 974-8479	07/25/1952	ST. VINCENTS SERVICES		1427220698	Clean Air Car Svc & Parking (NYC)	Livery/BK-Med Appt out CMMA	A0100	TN	01/08/2018	01/08/2018	No	2	1		wanda-wife	(631) 974-8479	14.0	01/08/2018	1100	765 Stanley Ave	Apt 10E 	Brooklyn	NY	11207	01/08/2018	1200	66 Boerum Pl	  	Brooklyn	NY	11201	7.0	1 Additional rider(s). Additional Rider		No	135431460
2504293	849	561792700	Leg	Kenneth		Mayes	XN80853S	M	(631) 974-8479	07/25/1952	ST. VINCENTS SERVICES		1427220698	Clean Air Car Svc & Parking (NYC)	Livery/BK-Med Appt out CMMA	A0100	TN	01/08/2018	01/08/2018	No	2	1		wanda-wife	(631) 974-8479	14.0	01/08/2018	Call	66 Boerum Pl	 	Brooklyn	NY	11201	01/08/2018	Call	765 Stanley Ave	Apt 10E 	Brooklyn	NY	11207	7.0	1 Additional rider(s). Additional Rider		No	135431467
2504293	850	561845750	Leg	Kenneth		Mayes	XN80853S	M	6319748479	07/25/1952	ST. VINCENTS SERVICES		1427220698	Clean Air Car Svc & Parking (NYC)	Livery/BK-Med Appt out CMMA	A0100	TN	01/19/2018	01/19/2018	No	2	1		wanda/wife	6319748479	14.0	01/19/2018	1100	765 Stanley Ave	 	Brooklyn	NY	11207	01/19/2018	1200	66 Boerum Pl	  	Brooklyn	NY	11201	7.0	1 added rider/use a cane		No	135444643
2504293	851	561845750	Leg	Kenneth		Mayes	XN80853S	M	6319748479	07/25/1952	ST. VINCENTS SERVICES		1427220698	Clean Air Car Svc & Parking (NYC)	Livery/BK-Med Appt out CMMA	A0100	TN	01/19/2018	01/19/2018	No	2	1		wanda/wife	6319748479	14.0	01/19/2018	CALL	66 Boerum Pl	 	Brooklyn	NY	11201	01/19/2018	CALL	765 Stanley Ave	  	Brooklyn	NY	11207	7.0			No	135444644
2504293	852	561847570	Leg	Kenneth		Mayes	XN80853S	M	6319748479	07/25/1952	ST. VINCENTS SERVICES		1427220698	Clean Air Car Svc & Parking (NYC)	Livery/BK-Med Appt out CMMA	A0100	TN	01/22/2018	01/22/2018	No	2	1		wanda/wife	6319748479	14.0	01/22/2018	1100	765 Stanley Ave	 	Brooklyn	NY	11207	01/22/2018	1200	66 Boerum Pl	  	Brooklyn	NY	11201	7.0	1 added rider/use a cane		No	135444942
2504293	853	561847570	Leg	Kenneth		Mayes	XN80853S	M	6319748479	07/25/1952	ST. VINCENTS SERVICES		1427220698	Clean Air Car Svc & Parking (NYC)	Livery/BK-Med Appt out CMMA	A0100	TN	01/22/2018	01/22/2018	No	2	1		wanda/wife	6319748479	14.0	01/22/2018	CALL	66 Boerum Pl	 	Brooklyn	NY	11201	01/22/2018	CALL	765 Stanley Ave	  	Brooklyn	NY	11207	7.0			No	135444943
2504293	854	561848350	Leg	Kenneth		Mayes	XN80853S	M	6319748479	07/25/1952	ST. VINCENTS SERVICES		1427220698	Clean Air Car Svc & Parking (NYC)	Livery/BK-Med Appt out CMMA	A0100	TN	01/29/2018	01/29/2018	No	2	1		wanda/wife	6319748479	14.0	01/29/2018	1100	765 Stanley Ave	 	Brooklyn	NY	11207	01/29/2018	1200	66 Boerum Pl	  	Brooklyn	NY	11201	7.0	1 added rider/use a cane		No	135446501
2504293	855	561848350	Leg	Kenneth		Mayes	XN80853S	M	6319748479	07/25/1952	ST. VINCENTS SERVICES		1427220698	Clean Air Car Svc & Parking (NYC)	Livery/BK-Med Appt out CMMA	A0100	TN	01/29/2018	01/29/2018	No	2	1		wanda/wife	6319748479	14.0	01/29/2018	CALL	66 Boerum Pl	 	Brooklyn	NY	11201	01/29/2018	CALL	765 Stanley Ave	  	Brooklyn	NY	11207	7.0			No	135446502
2504293	856	561850340	Leg	Kenneth		Mayes	XN80853S	M	6319748479	07/25/1952	ST. VINCENTS SERVICES		1427220698	Clean Air Car Svc & Parking (NYC)	Livery/BK-Med Appt in CMMA	A0100		01/18/2018	01/18/2018	No	2	1		wanda/wife	6319748479	4.0	01/18/2018	0730	765 Stanley Ave	 	Brooklyn	NY	11207	01/18/2018	0800	1 Brookdale Plz	  	Brooklyn	NY	11212	2.0	1 added rider/use a cane		No	135447061
2504293	857	561850340	Leg	Kenneth		Mayes	XN80853S	M	6319748479	07/25/1952	ST. VINCENTS SERVICES		1427220698	Clean Air Car Svc & Parking (NYC)	Livery/BK-Med Appt in CMMA	A0100		01/18/2018	01/18/2018	No	2	1		wanda/wife	6319748479	4.0	01/18/2018	CALL	1 Brookdale Plz	 	Brooklyn	NY	11212	01/18/2018	CALL	765 Stanley Ave	  	Brooklyn	NY	11207	2.0			No	135447062
2504293	858	561864700	Leg	John		Keitt	ZH11392W	M	0-0-0	04/03/1953	Elsner Norbert		1285716878	Clean Air Car Svc & Parking (NYC)	Livery/BK-Med Appt in CMMA	A0100		01/08/2018	01/08/2018	No	2	1			0-0-0	8.9	01/08/2018	0800	2 Doscher St	 	Brooklyn	NY	11208	01/08/2018	0900	8900 Van Wyck Expwy	  main	Jamaica	NY	11418	4.4			No	135452046
2504293	859	561864700	Leg	John		Keitt	ZH11392W	M	0-0-0	04/03/1953	Elsner Norbert		1285716878	Clean Air Car Svc & Parking (NYC)	Livery/BK-Med Appt in CMMA	A0100		01/08/2018	01/08/2018	No	2	1			0-0-0	8.9	01/08/2018	Call	8900 Van Wyck Expwy	 main	Jamaica	NY	11418	01/08/2018	Call	2 Doscher St	  	Brooklyn	NY	11208	4.5			No	135452047
2504293	860	561864700	Service	John		Keitt	ZH11392W	M	0-0-0	04/03/1953	Elsner Norbert		1285716878	Clean Air Car Svc & Parking (NYC)	Tolls-Universal	A0170	CG	01/08/2018	01/08/2018	No	2	1																					Tolls-Universal	135452046
2504293	861	561869720	Leg	John		Keitt	ZH11392W	M	0-0-0	04/03/1953	Elsner Norbert		1285716878	Clean Air Car Svc & Parking (NYC)	Livery/BK-Med Appt in CMMA	A0100		01/09/2018	01/09/2018	No	2	1			0-0-0	8.9	01/09/2018	1400	2 Doscher St	 	Brooklyn	NY	11208	01/09/2018	1500	8900 Van Wyck Expwy	  main	Jamaica	NY	11418	4.4			No	135453219
2504293	862	561869720	Leg	John		Keitt	ZH11392W	M	0-0-0	04/03/1953	Elsner Norbert		1285716878	Clean Air Car Svc & Parking (NYC)	Livery/BK-Med Appt in CMMA	A0100		01/09/2018	01/09/2018	No	2	1			0-0-0	8.9	01/09/2018	Call	8900 Van Wyck Expwy	 main	Jamaica	NY	11418	01/09/2018	Call	2 Doscher St	  	Brooklyn	NY	11208	4.5			No	135453220
2504293	863	561869720	Service	John		Keitt	ZH11392W	M	0-0-0	04/03/1953	Elsner Norbert		1285716878	Clean Air Car Svc & Parking (NYC)	Tolls-Universal	A0170	CG	01/09/2018	01/09/2018	No	2	1																					Tolls-Universal	135453219
2504293	864	561871500	Leg	Cui	Y	Kuang	XA99269A	F	2122535402	12/16/1954	Lwr Manhattan Dialysis Ctr	01636819	1740261874	Clean Air Car Svc & Parking (NYC)	Livery/MN-Med Appt in CMMA	A0100		01/11/2018	01/11/2018	No	2	1		serv coord-alphea	2122535402	3.4	01/11/2018	1330	215 Eldridge St	 	New York	NY	10002	01/11/2018	1430	156 William St	  	New York	NY	10038	1.7	1 additional rider		No	135454184
2504293	865	561871500	Leg	Cui	Y	Kuang	XA99269A	F	2122535402	12/16/1954	Lwr Manhattan Dialysis Ctr	01636819	1740261874	Clean Air Car Svc & Parking (NYC)	Livery/MN-Med Appt in CMMA	A0100		01/11/2018	01/11/2018	No	2	1		serv coord-alphea	2122535402	3.4	01/11/2018	CALL	156 William St	 	New York	NY	10038	01/11/2018	CALL	215 Eldridge St	  	New York	NY	10002	1.7			No	135454185
2504293	866	561928730	Leg	Clintasia		Pressley	VD56124Y	F	(646) 975-8276	04/05/1995	DEMATTEO, CELINE		1598915431	Clean Air Car Svc & Parking (NYC)	Livery/QN-Med Appt out CMMA	A0100	TN	01/09/2018	01/09/2018	No	2	1		Regina-Mom	(646) 975-8276	23.0	01/09/2018	0745	177 37 105th Ave.	2nd fl. 	Jamaica	NY	11433	01/09/2018	0900	300 Community Dr	  Main Ent	Manhasset	NY	11030	11.5	Additional Rider		No	135466282
2504293	867	561928730	Leg	Clintasia		Pressley	VD56124Y	F	(646) 975-8276	04/05/1995	DEMATTEO, CELINE		1598915431	Clean Air Car Svc & Parking (NYC)	Livery/QN-Med Appt out CMMA	A0100	TN	01/09/2018	01/09/2018	No	2	1		Regina-Mom	(646) 975-8276	23.0	01/09/2018	Call	300 Community Dr	 Main Ent	Manhasset	NY	11030	01/09/2018	Call	177 37 105th Ave.	2nd fl. 	Jamaica	NY	11433	11.5			No	135466284
2504293	868	561928730	Service	Clintasia		Pressley	VD56124Y	F	(646) 975-8276	04/05/1995	DEMATTEO, CELINE		1598915431	Clean Air Car Svc & Parking (NYC)	Tolls-Universal	A0170	CG	01/09/2018	01/09/2018	No	2	1																					Tolls-Universal	135466282
2504293	869	561928730	Service	Clintasia		Pressley	VD56124Y	F	(646) 975-8276	04/05/1995	DEMATTEO, CELINE		1598915431	Clean Air Car Svc & Parking (NYC)	Mileage-Livery out of NYC	S0215	TN	01/09/2018	01/09/2018	No	2	1																					Mileage-Livery out of NYC	135466282
2504293	870	561928730	Service	Clintasia		Pressley	VD56124Y	F	(646) 975-8276	04/05/1995	DEMATTEO, CELINE		1598915431	Clean Air Car Svc & Parking (NYC)	Mileage-Livery out of NYC	S0215	TN	01/09/2018	01/09/2018	No	2	1																					Mileage-Livery out of NYC	135466284
2504293	871	561957900	Leg	Robert		Turner	XB09081V	M	(718) 678-7588	12/05/1962	FLUSHING HOSPITAL MENTAL HEALTH		1811199342	Clean Air Car Svc & Parking (NYC)	Livery/QN-Med Appt out CMMA	A0100	TN	01/12/2018	01/12/2018	No	2	1		self	(718) 678-7588	25.4	01/12/2018	1330	25964 149th Ave	 home	Rosedale	NY	11422	01/12/2018	1430	13915 34th Ave	  main	Flushing	NY	11354	12.7			No	135473581
2504293	872	561957900	Leg	Robert		Turner	XB09081V	M	(718) 678-7588	12/05/1962	FLUSHING HOSPITAL MENTAL HEALTH		1811199342	Clean Air Car Svc & Parking (NYC)	Livery/QN-Med Appt out CMMA	A0100	TN	01/12/2018	01/12/2018	No	2	1		self	(718) 678-7588	25.4	01/12/2018	Call	13915 34th Ave	 main	Flushing	NY	11354	01/12/2018	Call	25964 149th Ave	  home	Rosedale	NY	11422	12.7			No	135473582
2504293	873	561957900	Service	Robert		Turner	XB09081V	M	(718) 678-7588	12/05/1962	FLUSHING HOSPITAL MENTAL HEALTH		1811199342	Clean Air Car Svc & Parking (NYC)	Mileage-Livery in NYC	S0215		01/12/2018	01/12/2018	No	2	1																					Mileage-Livery in NYC	135473581
2504293	874	561957900	Service	Robert		Turner	XB09081V	M	(718) 678-7588	12/05/1962	FLUSHING HOSPITAL MENTAL HEALTH		1811199342	Clean Air Car Svc & Parking (NYC)	Mileage-Livery in NYC	S0215		01/12/2018	01/12/2018	No	2	1																					Mileage-Livery in NYC	135473582
2504293	875	562006740	Leg	Michelle		Fraser	RA09914V	F	(646) 363-3130	12/13/1967	Andrade, Cristian	02809718	1265443980	Clean Air Car Svc & Parking (NYC)	Livery/BK-Med Appt out CMMA	A0100	TN	01/08/2018	01/08/2018	No	2	1		self	(646) 363-3130		01/08/2018	1100	405 Rockaway Pkwy	Apt D2 	Brooklyn	NY	11212	01/08/2018	1200	2279 Coney Island Ave	  	Brooklyn	NY	11223	5.2			No	135487228
2504293	876	562006740	Leg	Michelle		Fraser	RA09914V	F	(646) 363-3130	12/13/1967	Andrade, Cristian	02809718	1265443980	Clean Air Car Svc & Parking (NYC)	Livery/BK-Med Appt out CMMA	A0100	TN	01/08/2018	01/08/2018	No	2	1		self	(646) 363-3130		01/08/2018	Call	2279 Coney Island Ave	 	Brooklyn	NY	11223	01/08/2018	Call	405 Rockaway Pkwy	Apt D2 	Brooklyn	NY	11212	5.2			No	135487229
2504293	877	562123060	Leg	Staraisha	M	Dyce	WW14828A	F	7183741820	07/01/1991	Della Valle Gonzalez Alejandro		1659389153	Clean Air Car Svc & Parking (NYC)	Livery/QN-Med Appt out CMMA	A0100	TN	01/08/2018	01/08/2018	No	2	1		self	7183741820	22.6	01/08/2018	0830	6520 Parsons Blvd	Apt 7C 	Flushing	NY	11365	01/08/2018	0930	505 E 70th St	5th floor 	New York	NY	10021	11.3	Additional Rider..		No	135519213
2504293	878	562123060	Leg	Staraisha	M	Dyce	WW14828A	F	7183741820	07/01/1991	Della Valle Gonzalez Alejandro		1659389153	Clean Air Car Svc & Parking (NYC)	Livery/QN-Med Appt out CMMA	A0100	TN	01/08/2018	01/08/2018	No	2	1		self	7183741820	22.6	01/08/2018	Call	505 E 70th St	5th floor 	New York	NY	10021	01/08/2018	Call	6520 Parsons Blvd	Apt 7C 	Flushing	NY	11365	11.3			No	135519214
2504293	879	562123060	Service	Staraisha	M	Dyce	WW14828A	F	7183741820	07/01/1991	Della Valle Gonzalez Alejandro		1659389153	Clean Air Car Svc & Parking (NYC)	Mileage-Livery in NYC	S0215		01/08/2018	01/08/2018	No	2	1																					Mileage-Livery in NYC	135519213
2504293	880	562123060	Service	Staraisha	M	Dyce	WW14828A	F	7183741820	07/01/1991	Della Valle Gonzalez Alejandro		1659389153	Clean Air Car Svc & Parking (NYC)	Tolls-Universal	A0170	CG	01/08/2018	01/08/2018	No	2	1																					Tolls-Universal	135519213
2504293	881	562123060	Service	Staraisha	M	Dyce	WW14828A	F	7183741820	07/01/1991	Della Valle Gonzalez Alejandro		1659389153	Clean Air Car Svc & Parking (NYC)	Livery-Manhattan Surcharge	A0100	SC	01/08/2018	01/08/2018	No	2	1																					Livery-Manhattan Surcharge	135519213
2504293	882	562123060	Service	Staraisha	M	Dyce	WW14828A	F	7183741820	07/01/1991	Della Valle Gonzalez Alejandro		1659389153	Clean Air Car Svc & Parking (NYC)	Mileage-Livery in NYC	S0215		01/08/2018	01/08/2018	No	2	1																					Mileage-Livery in NYC	135519214
2504293	883	562123060	Service	Staraisha	M	Dyce	WW14828A	F	7183741820	07/01/1991	Della Valle Gonzalez Alejandro		1659389153	Clean Air Car Svc & Parking (NYC)	Livery-Manhattan Surcharge	A0100	SC	01/08/2018	01/08/2018	No	2	1																					Livery-Manhattan Surcharge	135519214
2504293	884	562155430	Leg	Eleanor		Kennedy	ZM08951T	F	(917) 673-2962	12/26/1966	Brooklyn Hospital Center	000	1326046467	Clean Air Car Svc & Parking (NYC)	Livery/BK-Med Appt in CMMA	A0100		01/09/2018	01/09/2018	No	2	1		self	(917) 673-2962		01/09/2018	1240	347 Lincoln Pl	 home	Brooklyn	NY	11238	01/09/2018	1340	803 Rogers Ave	  main	Brooklyn	NY	11226	2.1			No	135527158
2504293	885	562155430	Leg	Eleanor		Kennedy	ZM08951T	F	(917) 673-2962	12/26/1966	Brooklyn Hospital Center	000	1326046467	Clean Air Car Svc & Parking (NYC)	Livery/BK-Med Appt in CMMA	A0100		01/09/2018	01/09/2018	No	2	1		self	(917) 673-2962		01/09/2018	Call	803 Rogers Ave	 main	Brooklyn	NY	11226	01/09/2018	Call	347 Lincoln Pl	  home	Brooklyn	NY	11238	2.1			No	135527159
2504293	886	562172600	Leg	Eleanor		Kennedy	ZM08951T	F	(917) 673-2962	12/26/1966	Brooklyn Hospital Center	000	1326046467	Clean Air Car Svc & Parking (NYC)	Livery/BK-Med Appt in CMMA	A0100		01/11/2018	01/11/2018	No	2	1		self	(917) 673-2962	4.2	01/11/2018	1000	347 Lincoln Pl	 home	Brooklyn	NY	11238	01/11/2018	1100	803 Rogers Ave	  main	Brooklyn	NY	11226	2.1			No	135530406
2504293	887	562172600	Leg	Eleanor		Kennedy	ZM08951T	F	(917) 673-2962	12/26/1966	Brooklyn Hospital Center	000	1326046467	Clean Air Car Svc & Parking (NYC)	Livery/BK-Med Appt in CMMA	A0100		01/11/2018	01/11/2018	No	2	1		self	(917) 673-2962	4.2	01/11/2018	Call	803 Rogers Ave	 main	Brooklyn	NY	11226	01/11/2018	Call	347 Lincoln Pl	  home	Brooklyn	NY	11238	2.1			No	135530407
2504293	888	562340840	Leg	Shamima		Rahman	QT41827U	F	(929) 433-0432	08/09/1960	MAMEDOVA-BRAZ, YELENA		1538319728	Clean Air Car Svc & Parking (NYC)	Livery/QN-Med Appt out CMMA	A0100	TN	01/08/2018	01/08/2018	No	2	1		Mondarine - daughter	(929) 433-0432	17.8	01/08/2018	0945	19332 Foothill Ave	 -	Hollis	NY	11423	01/08/2018	1045	4141 51st St	  -	Woodside	NY	11377	8.9			No	135567804
2504293	889	562340840	Leg	Shamima		Rahman	QT41827U	F	(929) 433-0432	08/09/1960	MAMEDOVA-BRAZ, YELENA		1538319728	Clean Air Car Svc & Parking (NYC)	Livery/QN-Med Appt out CMMA	A0100	TN	01/08/2018	01/08/2018	No	2	1		Mondarine - daughter	(929) 433-0432	17.8	01/08/2018	Call	4141 51st St	 -	Woodside	NY	11377	01/08/2018	Call	19332 Foothill Ave	  -	Hollis	NY	11423	8.9			No	135567805
2504293	890	562340840	Service	Shamima		Rahman	QT41827U	F	(929) 433-0432	08/09/1960	MAMEDOVA-BRAZ, YELENA		1538319728	Clean Air Car Svc & Parking (NYC)	Mileage-Livery in NYC	S0215		01/08/2018	01/08/2018	No	2	1																					Mileage-Livery in NYC	135567804
2504293	891	562340840	Service	Shamima		Rahman	QT41827U	F	(929) 433-0432	08/09/1960	MAMEDOVA-BRAZ, YELENA		1538319728	Clean Air Car Svc & Parking (NYC)	Mileage-Livery in NYC	S0215		01/08/2018	01/08/2018	No	2	1																					Mileage-Livery in NYC	135567805
2504293	892	562383330	Leg	Syed	M	Sufian	QT41837Q	M	9294330432	10/14/1958	Queens Hospital	000	1801803903	Clean Air Car Svc & Parking (NYC)	Livery/QN-Med Appt out CMMA	A0100	TN	01/08/2018	01/08/2018	No	2	1		daughter mozarmie	9294330432	31.6	01/08/2018	0915	19332 Foothill Ave	 	Hollis	NY	11423	01/08/2018	1015	1470 Madison Ave	  	New York	NY	10029	15.8	plus2		No	135575468
2504293	893	562383330	Leg	Syed	M	Sufian	QT41837Q	M	9294330432	10/14/1958	Queens Hospital	000	1801803903	Clean Air Car Svc & Parking (NYC)	Livery/QN-Med Appt out CMMA	A0100	TN	01/08/2018	01/08/2018	No	2	1		daughter mozarmie	9294330432	31.6	01/08/2018	CALL	1470 Madison Ave	 	New York	NY	10029	01/08/2018	CALL	19332 Foothill Ave	  	Hollis	NY	11423	15.8			No	135575469
2504293	894	562383330	Service	Syed	M	Sufian	QT41837Q	M	9294330432	10/14/1958	Queens Hospital	000	1801803903	Clean Air Car Svc & Parking (NYC)	Tolls-Universal	A0170	CG	01/08/2018	01/08/2018	No	2	1																					Tolls-Universal	135575468
2504293	895	562383330	Service	Syed	M	Sufian	QT41837Q	M	9294330432	10/14/1958	Queens Hospital	000	1801803903	Clean Air Car Svc & Parking (NYC)	Livery-Manhattan Surcharge	A0100	SC	01/08/2018	01/08/2018	No	2	1																					Livery-Manhattan Surcharge	135575468
2504293	896	562383330	Service	Syed	M	Sufian	QT41837Q	M	9294330432	10/14/1958	Queens Hospital	000	1801803903	Clean Air Car Svc & Parking (NYC)	Livery-Manhattan Surcharge	A0100	SC	01/08/2018	01/08/2018	No	2	1																					Livery-Manhattan Surcharge	135575469
2504293	897	562383330	Service	Syed	M	Sufian	QT41837Q	M	9294330432	10/14/1958	Queens Hospital	000	1801803903	Clean Air Car Svc & Parking (NYC)	Mileage-Livery in NYC	S0215		01/08/2018	01/08/2018	No	2	1																					Mileage-Livery in NYC	135575468
2504293	898	562383330	Service	Syed	M	Sufian	QT41837Q	M	9294330432	10/14/1958	Queens Hospital	000	1801803903	Clean Air Car Svc & Parking (NYC)	Mileage-Livery in NYC	S0215		01/08/2018	01/08/2018	No	2	1																					Mileage-Livery in NYC	135575469
2504293	899	562383670	Leg	Syed	M	Sufian	QT41837Q	M	9294330432	10/14/1958	Queens Hospital	000	1801803903	Clean Air Car Svc & Parking (NYC)	Livery/QN-Med Appt out CMMA	A0100	TN	01/09/2018	01/09/2018	No	2	1		daughter mozarmie	9294330432	27.4	01/09/2018	1000	19332 Foothill Ave	 	Hollis	NY	11423	01/09/2018	1100	2020 Cortelyou Rd	  	Brooklyn	NY	11226	13.7	plus2		No	135575568
2504293	900	562383670	Leg	Syed	M	Sufian	QT41837Q	M	9294330432	10/14/1958	Queens Hospital	000	1801803903	Clean Air Car Svc & Parking (NYC)	Livery/QN-Med Appt out CMMA	A0100	TN	01/09/2018	01/09/2018	No	2	1		daughter mozarmie	9294330432	27.4	01/09/2018	CALL	2020 Cortelyou Rd	 	Brooklyn	NY	11226	01/09/2018	CALL	19332 Foothill Ave	  	Hollis	NY	11423	13.7			No	135575569
2504293	901	562383670	Service	Syed	M	Sufian	QT41837Q	M	9294330432	10/14/1958	Queens Hospital	000	1801803903	Clean Air Car Svc & Parking (NYC)	Tolls-Universal	A0170	CG	01/09/2018	01/09/2018	No	2	1																					Tolls-Universal	135575568
2504293	902	562383670	Service	Syed	M	Sufian	QT41837Q	M	9294330432	10/14/1958	Queens Hospital	000	1801803903	Clean Air Car Svc & Parking (NYC)	Mileage-Livery in NYC	S0215		01/09/2018	01/09/2018	No	2	1																					Mileage-Livery in NYC	135575568
2504293	903	562383670	Service	Syed	M	Sufian	QT41837Q	M	9294330432	10/14/1958	Queens Hospital	000	1801803903	Clean Air Car Svc & Parking (NYC)	Mileage-Livery in NYC	S0215		01/09/2018	01/09/2018	No	2	1																					Mileage-Livery in NYC	135575569
2504293	904	562384180	Leg	Syed	M	Sufian	QT41837Q	M	9294330432	10/14/1958	Queens Hospital	000	1801803903	Clean Air Car Svc & Parking (NYC)	Livery/QN-Med Appt out CMMA	A0100	TN	01/10/2018	01/10/2018	No	2	1		daughter mozarmie	9294330432	17.8	01/10/2018	0900	19332 Foothill Ave	 	Hollis	NY	11423	01/10/2018	1000	4032 74th St	  	Elmhurst	NY	11373	8.9			No	135575848
2504293	905	562384180	Leg	Syed	M	Sufian	QT41837Q	M	9294330432	10/14/1958	Queens Hospital	000	1801803903	Clean Air Car Svc & Parking (NYC)	Livery/QN-Med Appt out CMMA	A0100	TN	01/10/2018	01/10/2018	No	2	1		daughter mozarmie	9294330432	17.8	01/10/2018	CALL	4032 74th St	 	Elmhurst	NY	11373	01/10/2018	CALL	19332 Foothill Ave	  	Hollis	NY	11423	8.9			No	135575849
2504293	906	562384180	Service	Syed	M	Sufian	QT41837Q	M	9294330432	10/14/1958	Queens Hospital	000	1801803903	Clean Air Car Svc & Parking (NYC)	Mileage-Livery in NYC	S0215		01/10/2018	01/10/2018	No	2	1																					Mileage-Livery in NYC	135575848
2504293	907	562384180	Service	Syed	M	Sufian	QT41837Q	M	9294330432	10/14/1958	Queens Hospital	000	1801803903	Clean Air Car Svc & Parking (NYC)	Mileage-Livery in NYC	S0215		01/10/2018	01/10/2018	No	2	1																					Mileage-Livery in NYC	135575849
2504293	908	562385250	Leg	Syed	M	Sufian	QT41837Q	M	9294330432	10/14/1958	Queens Hospital	000	1801803903	Clean Air Car Svc & Parking (NYC)	Livery/QN-Med Appt out CMMA	A0100	TN	01/11/2018	01/11/2018	No	2	1		daughter mozarmie	9294330432	28.6	01/11/2018	0945	19332 Foothill Ave	 	Hollis	NY	11423	01/11/2018	1045	462 1st Ave	  	New York	NY	10016	14.3	plus2		No	135576032
2504293	909	562385250	Leg	Syed	M	Sufian	QT41837Q	M	9294330432	10/14/1958	Queens Hospital	000	1801803903	Clean Air Car Svc & Parking (NYC)	Livery/QN-Med Appt out CMMA	A0100	TN	01/11/2018	01/11/2018	No	2	1		daughter mozarmie	9294330432	28.6	01/11/2018	CALL	462 1st Ave	 	New York	NY	10016	01/11/2018	CALL	19332 Foothill Ave	  	Hollis	NY	11423	14.3			No	135576033
2504293	910	562385250	Service	Syed	M	Sufian	QT41837Q	M	9294330432	10/14/1958	Queens Hospital	000	1801803903	Clean Air Car Svc & Parking (NYC)	Tolls-Universal	A0170	CG	01/11/2018	01/11/2018	No	2	1																					Tolls-Universal	135576032
2504293	911	562385250	Service	Syed	M	Sufian	QT41837Q	M	9294330432	10/14/1958	Queens Hospital	000	1801803903	Clean Air Car Svc & Parking (NYC)	Livery-Manhattan Surcharge	A0100	SC	01/11/2018	01/11/2018	No	2	1																					Livery-Manhattan Surcharge	135576032
2504293	912	562385250	Service	Syed	M	Sufian	QT41837Q	M	9294330432	10/14/1958	Queens Hospital	000	1801803903	Clean Air Car Svc & Parking (NYC)	Livery-Manhattan Surcharge	A0100	SC	01/11/2018	01/11/2018	No	2	1																					Livery-Manhattan Surcharge	135576033
2504293	913	562385250	Service	Syed	M	Sufian	QT41837Q	M	9294330432	10/14/1958	Queens Hospital	000	1801803903	Clean Air Car Svc & Parking (NYC)	Mileage-Livery in NYC	S0215		01/11/2018	01/11/2018	No	2	1																					Mileage-Livery in NYC	135576032
2504293	914	562385250	Service	Syed	M	Sufian	QT41837Q	M	9294330432	10/14/1958	Queens Hospital	000	1801803903	Clean Air Car Svc & Parking (NYC)	Mileage-Livery in NYC	S0215		01/11/2018	01/11/2018	No	2	1																					Mileage-Livery in NYC	135576033
2504293	915	562385990	Leg	Syed	M	Sufian	QT41837Q	M	9294330432	10/14/1958	Queens Hospital	000	1801803903	Clean Air Car Svc & Parking (NYC)	Livery/QN-Med Appt out CMMA	A0100	TN	01/12/2018	01/12/2018	No	2	1		daughter mozarmie	9294330432	12.8	01/12/2018	1030	19332 Foothill Ave	 	Hollis	NY	11423	01/12/2018	1130	9520 63rd Rd	  	Rego Park	NY	11374	6.4	plus2		No	135576266
2504293	916	562385990	Leg	Syed	M	Sufian	QT41837Q	M	9294330432	10/14/1958	Queens Hospital	000	1801803903	Clean Air Car Svc & Parking (NYC)	Livery/QN-Med Appt out CMMA	A0100	TN	01/12/2018	01/12/2018	No	2	1		daughter mozarmie	9294330432	12.8	01/12/2018	CALL	9520 63rd Rd	 	Rego Park	NY	11374	01/12/2018	CALL	19332 Foothill Ave	  	Hollis	NY	11423	6.4			No	135576267
2504293	917	562387660	Leg	Syed	M	Sufian	QT41837Q	M	(929) 433-0432	10/14/1958	Queens Hospital	000	1801803903	Clean Air Car Svc & Parking (NYC)	Livery/QN-Med Appt in CMMA	A0100		01/13/2018	01/13/2018	No	2	1		daughter	(929) 433-0432	9.4	01/13/2018	1030	19332 Foothill Ave	 	Hollis	NY	11423	01/13/2018	1130	27005 76th Ave	  	New Hyde Park	NY	11040	4.7	+2, Additional Rider		No	135577767
2504293	918	562387660	Leg	Syed	M	Sufian	QT41837Q	M	(929) 433-0432	10/14/1958	Queens Hospital	000	1801803903	Clean Air Car Svc & Parking (NYC)	Livery/QN-Med Appt in CMMA	A0100		01/13/2018	01/13/2018	No	2	1		daughter	(929) 433-0432	9.4	01/13/2018	Call	27005 76th Ave	 	New Hyde Park	NY	11040	01/13/2018	Call	19332 Foothill Ave	  	Hollis	NY	11423	4.7			No	135577768
2504293	919	562392380	Leg	Syed	M	Sufian	QT41837Q	M	(929) 433-0432	10/14/1958	Queens Hospital	000	1801803903	Clean Air Car Svc & Parking (NYC)	Livery/QN-Med Appt out CMMA	A0100	TN	01/14/2018	01/14/2018	No	2	1		daughter	(929) 433-0432	12.2	01/14/2018	1045	19332 Foothill Ave	 	Hollis	NY	11423	01/14/2018	1145	3907 Prince St	8632804 	Flushing	NY	11354	6.1	+2, Additional Rider		No	135577977
2504293	920	562392380	Leg	Syed	M	Sufian	QT41837Q	M	(929) 433-0432	10/14/1958	Queens Hospital	000	1801803903	Clean Air Car Svc & Parking (NYC)	Livery/QN-Med Appt out CMMA	A0100	TN	01/14/2018	01/14/2018	No	2	1		daughter	(929) 433-0432	12.2	01/14/2018	Call	3907 Prince St	8632804 	Flushing	NY	11354	01/14/2018	Call	19332 Foothill Ave	  	Hollis	NY	11423	6.1			No	135577978
2504293	921	562394320	Leg	Syed	M	Sufian	QT41837Q	M	(929) 433-0432	10/14/1958	Queens Hospital	000	1801803903	Clean Air Car Svc & Parking (NYC)	Livery/QN-Med Appt out CMMA	A0100	TN	01/15/2018	01/15/2018	No	2	1		daughter	(929) 433-0432	12.8	01/15/2018	0900	19332 Foothill Ave	 	Hollis	NY	11423	01/15/2018	1000	9520 63rd Rd	8639517 	Rego Park	NY	11374	6.4	+2, Additional Rider		No	135578061
2504293	922	562394320	Leg	Syed	M	Sufian	QT41837Q	M	(929) 433-0432	10/14/1958	Queens Hospital	000	1801803903	Clean Air Car Svc & Parking (NYC)	Livery/QN-Med Appt out CMMA	A0100	TN	01/15/2018	01/15/2018	No	2	1		daughter	(929) 433-0432	12.8	01/15/2018	Call	9520 63rd Rd	8639517 	Rego Park	NY	11374	01/15/2018	Call	19332 Foothill Ave	  	Hollis	NY	11423	6.4			No	135578062
2504293	923	562394600	Leg	Syed	M	Sufian	QT41837Q	M	(929) 433-0432	10/14/1958	Queens Hospital	000	1801803903	Clean Air Car Svc & Parking (NYC)	Livery/QN-Med Appt out CMMA	A0100	TN	01/16/2018	01/16/2018	No	2	1		daughter	(929) 433-0432	12.2	01/16/2018	0830	19332 Foothill Ave	 	Hollis	NY	11423	01/16/2018	0930	3907 Prince St	8632804 	Flushing	NY	11354	6.1	+2, Additional Rider		No	135578165
2504293	924	562394600	Leg	Syed	M	Sufian	QT41837Q	M	(929) 433-0432	10/14/1958	Queens Hospital	000	1801803903	Clean Air Car Svc & Parking (NYC)	Livery/QN-Med Appt out CMMA	A0100	TN	01/16/2018	01/16/2018	No	2	1		daughter	(929) 433-0432	12.2	01/16/2018	Call	3907 Prince St	8632804 	Flushing	NY	11354	01/16/2018	Call	19332 Foothill Ave	  	Hollis	NY	11423	6.1			No	135578166
2504293	925	562395230	Leg	Syed	M	Sufian	QT41837Q	M	(929) 433-0432	10/14/1958	Queens Hospital	000	1801803903	Clean Air Car Svc & Parking (NYC)	Livery/QN-Med Appt out CMMA	A0100	TN	01/17/2018	01/17/2018	No	2	1		self	(929) 433-0432	31.6	01/17/2018	1045	19332 Foothill Ave	 	Hollis	NY	11423	01/17/2018	1145	1470 Madison Ave	  	New York	NY	10029	15.8	+2, Additional Rider		No	135578444
2504293	926	562395230	Leg	Syed	M	Sufian	QT41837Q	M	(929) 433-0432	10/14/1958	Queens Hospital	000	1801803903	Clean Air Car Svc & Parking (NYC)	Livery/QN-Med Appt out CMMA	A0100	TN	01/17/2018	01/17/2018	No	2	1		self	(929) 433-0432	31.6	01/17/2018	Call	1470 Madison Ave	 	New York	NY	10029	01/17/2018	Call	19332 Foothill Ave	  	Hollis	NY	11423	15.8			No	135578445
2504293	927	562395230	Service	Syed	M	Sufian	QT41837Q	M	(929) 433-0432	10/14/1958	Queens Hospital	000	1801803903	Clean Air Car Svc & Parking (NYC)	Tolls-Universal	A0170	CG	01/17/2018	01/17/2018	No	2	1																					Tolls-Universal	135578444
2504293	928	562395230	Service	Syed	M	Sufian	QT41837Q	M	(929) 433-0432	10/14/1958	Queens Hospital	000	1801803903	Clean Air Car Svc & Parking (NYC)	Livery-Manhattan Surcharge	A0100	SC	01/17/2018	01/17/2018	No	2	1																					Livery-Manhattan Surcharge	135578444
2504293	929	562395230	Service	Syed	M	Sufian	QT41837Q	M	(929) 433-0432	10/14/1958	Queens Hospital	000	1801803903	Clean Air Car Svc & Parking (NYC)	Livery-Manhattan Surcharge	A0100	SC	01/17/2018	01/17/2018	No	2	1																					Livery-Manhattan Surcharge	135578445
2504293	930	562395230	Service	Syed	M	Sufian	QT41837Q	M	(929) 433-0432	10/14/1958	Queens Hospital	000	1801803903	Clean Air Car Svc & Parking (NYC)	Mileage-Livery in NYC	S0215		01/17/2018	01/17/2018	No	2	1																					Mileage-Livery in NYC	135578444
2504293	931	562395230	Service	Syed	M	Sufian	QT41837Q	M	(929) 433-0432	10/14/1958	Queens Hospital	000	1801803903	Clean Air Car Svc & Parking (NYC)	Mileage-Livery in NYC	S0215		01/17/2018	01/17/2018	No	2	1																					Mileage-Livery in NYC	135578445
2504293	932	562396060	Leg	Syed	M	Sufian	QT41837Q	M	(929) 433-0432	10/14/1958	Queens Hospital	000	1801803903	Clean Air Car Svc & Parking (NYC)	Livery/QN-Med Appt out CMMA	A0100	TN	01/18/2018	01/18/2018	No	2	1		daughter	(929) 433-0432	28.6	01/18/2018	0915	19332 Foothill Ave	 	Hollis	NY	11423	01/18/2018	1015	462 1st Ave	  	New York	NY	10016	14.3	+2, Additional Rider		No	135578931
2504293	933	562396060	Leg	Syed	M	Sufian	QT41837Q	M	(929) 433-0432	10/14/1958	Queens Hospital	000	1801803903	Clean Air Car Svc & Parking (NYC)	Livery/QN-Med Appt out CMMA	A0100	TN	01/18/2018	01/18/2018	No	2	1		daughter	(929) 433-0432	28.6	01/18/2018	Call	462 1st Ave	 	New York	NY	10016	01/18/2018	Call	19332 Foothill Ave	  	Hollis	NY	11423	14.3			No	135578932
2504293	934	562396060	Service	Syed	M	Sufian	QT41837Q	M	(929) 433-0432	10/14/1958	Queens Hospital	000	1801803903	Clean Air Car Svc & Parking (NYC)	Tolls-Universal	A0170	CG	01/18/2018	01/18/2018	No	2	1																					Tolls-Universal	135578931
2504293	935	562396060	Service	Syed	M	Sufian	QT41837Q	M	(929) 433-0432	10/14/1958	Queens Hospital	000	1801803903	Clean Air Car Svc & Parking (NYC)	Livery-Manhattan Surcharge	A0100	SC	01/18/2018	01/18/2018	No	2	1																					Livery-Manhattan Surcharge	135578931
2504293	936	562396060	Service	Syed	M	Sufian	QT41837Q	M	(929) 433-0432	10/14/1958	Queens Hospital	000	1801803903	Clean Air Car Svc & Parking (NYC)	Livery-Manhattan Surcharge	A0100	SC	01/18/2018	01/18/2018	No	2	1																					Livery-Manhattan Surcharge	135578932
2504293	937	562396060	Service	Syed	M	Sufian	QT41837Q	M	(929) 433-0432	10/14/1958	Queens Hospital	000	1801803903	Clean Air Car Svc & Parking (NYC)	Mileage-Livery in NYC	S0215		01/18/2018	01/18/2018	No	2	1																					Mileage-Livery in NYC	135578931
2504293	938	562396060	Service	Syed	M	Sufian	QT41837Q	M	(929) 433-0432	10/14/1958	Queens Hospital	000	1801803903	Clean Air Car Svc & Parking (NYC)	Mileage-Livery in NYC	S0215		01/18/2018	01/18/2018	No	2	1																					Mileage-Livery in NYC	135578932
2504293	939	562396550	Leg	Syed	M	Sufian	QT41837Q	M	(929) 433-0432	10/14/1958	Queens Hospital	000	1801803903	Clean Air Car Svc & Parking (NYC)	Livery/QN-Med Appt out CMMA	A0100	TN	01/19/2018	01/19/2018	No	2	1		daughter	(929) 433-0432	17.8	01/19/2018	0930	19332 Foothill Ave	 	Hollis	NY	11423	01/19/2018	1030	4032 74th St	  	Elmhurst	NY	11373	8.9	+2, Additional Rider		No	135579042
2504293	940	562396550	Leg	Syed	M	Sufian	QT41837Q	M	(929) 433-0432	10/14/1958	Queens Hospital	000	1801803903	Clean Air Car Svc & Parking (NYC)	Livery/QN-Med Appt out CMMA	A0100	TN	01/19/2018	01/19/2018	No	2	1		daughter	(929) 433-0432	17.8	01/19/2018	Call	4032 74th St	 	Elmhurst	NY	11373	01/19/2018	Call	19332 Foothill Ave	  	Hollis	NY	11423	8.9			No	135579043
2504293	941	562396550	Service	Syed	M	Sufian	QT41837Q	M	(929) 433-0432	10/14/1958	Queens Hospital	000	1801803903	Clean Air Car Svc & Parking (NYC)	Mileage-Livery in NYC	S0215		01/19/2018	01/19/2018	No	2	1																					Mileage-Livery in NYC	135579042
2504293	942	562396550	Service	Syed	M	Sufian	QT41837Q	M	(929) 433-0432	10/14/1958	Queens Hospital	000	1801803903	Clean Air Car Svc & Parking (NYC)	Mileage-Livery in NYC	S0215		01/19/2018	01/19/2018	No	2	1																					Mileage-Livery in NYC	135579043
2504293	943	562397780	Leg	Syed	M	Sufian	QT41837Q	M	(929) 433-0432	10/14/1958	Queens Hospital	000	1801803903	Clean Air Car Svc & Parking (NYC)	Livery/QN-Med Appt out CMMA	A0100	TN	01/20/2018	01/20/2018	No	2	1		daughter	(929) 433-0432	12.2	01/20/2018	0945	19332 Foothill Ave	 	Hollis	NY	11423	01/20/2018	1045	3907 Prince St	  	Flushing	NY	11354	6.1	+2, Additional Rider		No	135579406
2504293	944	562397780	Leg	Syed	M	Sufian	QT41837Q	M	(929) 433-0432	10/14/1958	Queens Hospital	000	1801803903	Clean Air Car Svc & Parking (NYC)	Livery/QN-Med Appt out CMMA	A0100	TN	01/20/2018	01/20/2018	No	2	1		daughter	(929) 433-0432	12.2	01/20/2018	Call	3907 Prince St	 	Flushing	NY	11354	01/20/2018	Call	19332 Foothill Ave	  	Hollis	NY	11423	6.1			No	135579407
2504293	945	562398540	Leg	Syed	M	Sufian	QT41837Q	M	(929) 433-0432	10/14/1958	Queens Hospital	000	1801803903	Clean Air Car Svc & Parking (NYC)	Livery/QN-Med Appt out CMMA	A0100	TN	01/21/2018	01/21/2018	No	2	1		d	(929) 433-0432	12.2	01/21/2018	0900	19332 Foothill Ave	 	Hollis	NY	11423	01/21/2018	1000	3907 Prince St	8632804 	Flushing	NY	11354	6.1	+2, Additional Rider		No	135579815
2504293	946	562398540	Leg	Syed	M	Sufian	QT41837Q	M	(929) 433-0432	10/14/1958	Queens Hospital	000	1801803903	Clean Air Car Svc & Parking (NYC)	Livery/QN-Med Appt out CMMA	A0100	TN	01/21/2018	01/21/2018	No	2	1		d	(929) 433-0432	12.2	01/21/2018	Call	3907 Prince St	8632804 	Flushing	NY	11354	01/21/2018	Call	19332 Foothill Ave	  	Hollis	NY	11423	6.1			No	135579816
2504293	947	562410570	Leg	Mohammed	M	Sufian	QT41817Y	M	(929) 433-0432	08/29/1989	Queens Hospital	000	1801803903	Clean Air Car Svc & Parking (NYC)	Livery/QN-Med Appt out CMMA	A0100	TN	01/08/2018	01/08/2018	No	2	1		Monzarine- Sister	9294330432	12.8	01/08/2018	1015	19332 Foothill Ave	 	Hollis	NY	11423	01/08/2018	1115	9520 63rd Rd	  	Rego Park	NY	11374	6.4	2 Extra Riders		No	135583180
2504293	948	562410570	Leg	Mohammed	M	Sufian	QT41817Y	M	(929) 433-0432	08/29/1989	Queens Hospital	000	1801803903	Clean Air Car Svc & Parking (NYC)	Livery/QN-Med Appt out CMMA	A0100	TN	01/08/2018	01/08/2018	No	2	1		Monzarine- Sister	9294330432	12.8	01/08/2018	CALL	9520 63rd Rd	 	Rego Park	NY	11374	01/08/2018	CALL	19332 Foothill Ave	  	Hollis	NY	11423	6.4			No	135583181
2504293	949	562415220	Leg	Mohammed	M	Sufian	QT41817Y	M	(929) 433-0432	08/29/1989	Queens Hospital	000	1801803903	Clean Air Car Svc & Parking (NYC)	Livery/QN-Med Appt out CMMA	A0100	TN	01/09/2018	01/09/2018	No	2	1		Monzarine- Sister	9294330432	17.8	01/09/2018	1130	19332 Foothill Ave	 	Hollis	NY	11423	01/09/2018	1230	4032 74th St	  	Elmhurst	NY	11373	8.9	2 Extra Riders		No	135583517
2504293	950	562415220	Leg	Mohammed	M	Sufian	QT41817Y	M	(929) 433-0432	08/29/1989	Queens Hospital	000	1801803903	Clean Air Car Svc & Parking (NYC)	Livery/QN-Med Appt out CMMA	A0100	TN	01/09/2018	01/09/2018	No	2	1		Monzarine- Sister	9294330432	17.8	01/09/2018	CALL	4032 74th St	 	Elmhurst	NY	11373	01/09/2018	CALL	19332 Foothill Ave	  	Hollis	NY	11423	8.9			No	135583518
2504293	951	562415220	Service	Mohammed	M	Sufian	QT41817Y	M	(929) 433-0432	08/29/1989	Queens Hospital	000	1801803903	Clean Air Car Svc & Parking (NYC)	Mileage-Livery in NYC	S0215		01/09/2018	01/09/2018	No	2	1																					Mileage-Livery in NYC	135583517
2504293	952	562415220	Service	Mohammed	M	Sufian	QT41817Y	M	(929) 433-0432	08/29/1989	Queens Hospital	000	1801803903	Clean Air Car Svc & Parking (NYC)	Mileage-Livery in NYC	S0215		01/09/2018	01/09/2018	No	2	1																					Mileage-Livery in NYC	135583518
2504293	953	562416010	Leg	Mohammed	M	Sufian	QT41817Y	M	(929) 433-0432	08/29/1989	Queens Hospital	000	1801803903	Clean Air Car Svc & Parking (NYC)	Livery/QN-Med Appt out CMMA	A0100	TN	01/10/2018	01/10/2018	No	2	1		Monzarine- Sister	9294330432	31.6	01/10/2018	0830	19332 Foothill Ave	 	Hollis	NY	11423	01/10/2018	0930	1470 Madison Ave	  	New York	NY	10029	15.8	2 Extra Riders		No	135584372
2504293	954	562416010	Leg	Mohammed	M	Sufian	QT41817Y	M	(929) 433-0432	08/29/1989	Queens Hospital	000	1801803903	Clean Air Car Svc & Parking (NYC)	Livery/QN-Med Appt out CMMA	A0100	TN	01/10/2018	01/10/2018	No	2	1		Monzarine- Sister	9294330432	31.6	01/10/2018	CALL	1470 Madison Ave	 	New York	NY	10029	01/10/2018	CALL	19332 Foothill Ave	  	Hollis	NY	11423	15.8			No	135584373
2504293	955	562416010	Service	Mohammed	M	Sufian	QT41817Y	M	(929) 433-0432	08/29/1989	Queens Hospital	000	1801803903	Clean Air Car Svc & Parking (NYC)	Tolls-Universal	A0170	CG	01/10/2018	01/10/2018	No	2	1																					Tolls-Universal	135584372
2504293	956	562416010	Service	Mohammed	M	Sufian	QT41817Y	M	(929) 433-0432	08/29/1989	Queens Hospital	000	1801803903	Clean Air Car Svc & Parking (NYC)	Livery-Manhattan Surcharge	A0100	SC	01/10/2018	01/10/2018	No	2	1																					Livery-Manhattan Surcharge	135584372
2504293	957	562416010	Service	Mohammed	M	Sufian	QT41817Y	M	(929) 433-0432	08/29/1989	Queens Hospital	000	1801803903	Clean Air Car Svc & Parking (NYC)	Livery-Manhattan Surcharge	A0100	SC	01/10/2018	01/10/2018	No	2	1																					Livery-Manhattan Surcharge	135584373
2504293	958	562416010	Service	Mohammed	M	Sufian	QT41817Y	M	(929) 433-0432	08/29/1989	Queens Hospital	000	1801803903	Clean Air Car Svc & Parking (NYC)	Mileage-Livery in NYC	S0215		01/10/2018	01/10/2018	No	2	1																					Mileage-Livery in NYC	135584372
2504293	959	562416010	Service	Mohammed	M	Sufian	QT41817Y	M	(929) 433-0432	08/29/1989	Queens Hospital	000	1801803903	Clean Air Car Svc & Parking (NYC)	Mileage-Livery in NYC	S0215		01/10/2018	01/10/2018	No	2	1																					Mileage-Livery in NYC	135584373
2504293	960	562418540	Leg	Mohammed	M	Sufian	QT41817Y	M	(929) 433-0432	08/29/1989	Queens Hospital	000	1801803903	Clean Air Car Svc & Parking (NYC)	Livery/QN-Med Appt out CMMA	A0100	TN	01/11/2018	01/11/2018	No	2	1		Monzarine- Sister	9294330432	28.6	01/11/2018	0915	19332 Foothill Ave	 	Hollis	NY	11423	01/11/2018	1015	462 1st Ave	  	New York	NY	10016	14.3	2 Extra Riders		No	135584489
2504293	961	562418540	Leg	Mohammed	M	Sufian	QT41817Y	M	(929) 433-0432	08/29/1989	Queens Hospital	000	1801803903	Clean Air Car Svc & Parking (NYC)	Livery/QN-Med Appt out CMMA	A0100	TN	01/11/2018	01/11/2018	No	2	1		Monzarine- Sister	9294330432	28.6	01/11/2018	CALL	462 1st Ave	 	New York	NY	10016	01/11/2018	CALL	19332 Foothill Ave	  	Hollis	NY	11423	14.3			No	135584490
2504293	962	562418540	Service	Mohammed	M	Sufian	QT41817Y	M	(929) 433-0432	08/29/1989	Queens Hospital	000	1801803903	Clean Air Car Svc & Parking (NYC)	Tolls-Universal	A0170	CG	01/11/2018	01/11/2018	No	2	1																					Tolls-Universal	135584489
2504293	963	562418540	Service	Mohammed	M	Sufian	QT41817Y	M	(929) 433-0432	08/29/1989	Queens Hospital	000	1801803903	Clean Air Car Svc & Parking (NYC)	Livery-Manhattan Surcharge	A0100	SC	01/11/2018	01/11/2018	No	2	1																					Livery-Manhattan Surcharge	135584489
2504293	964	562418540	Service	Mohammed	M	Sufian	QT41817Y	M	(929) 433-0432	08/29/1989	Queens Hospital	000	1801803903	Clean Air Car Svc & Parking (NYC)	Livery-Manhattan Surcharge	A0100	SC	01/11/2018	01/11/2018	No	2	1																					Livery-Manhattan Surcharge	135584490
2504293	965	562418540	Service	Mohammed	M	Sufian	QT41817Y	M	(929) 433-0432	08/29/1989	Queens Hospital	000	1801803903	Clean Air Car Svc & Parking (NYC)	Mileage-Livery in NYC	S0215		01/11/2018	01/11/2018	No	2	1																					Mileage-Livery in NYC	135584489
2504293	966	562418540	Service	Mohammed	M	Sufian	QT41817Y	M	(929) 433-0432	08/29/1989	Queens Hospital	000	1801803903	Clean Air Car Svc & Parking (NYC)	Mileage-Livery in NYC	S0215		01/11/2018	01/11/2018	No	2	1																					Mileage-Livery in NYC	135584490
2504293	967	562423240	Leg	Mohammed	M	Sufian	QT41817Y	M	(929) 433-0432	08/29/1989	Queens Hospital	000	1801803903	Clean Air Car Svc & Parking (NYC)	Livery/QN-Med Appt in CMMA	A0100		01/12/2018	01/12/2018	No	2	1		Monzarine- Sister	9294330432	9.4	01/12/2018	1030	19332 Foothill Ave	 	Hollis	NY	11423	01/12/2018	1130	27005 76th Ave	  	New Hyde Park	NY	11040	4.7	2 Extra Riders		No	135584580
2504293	968	562423240	Leg	Mohammed	M	Sufian	QT41817Y	M	(929) 433-0432	08/29/1989	Queens Hospital	000	1801803903	Clean Air Car Svc & Parking (NYC)	Livery/QN-Med Appt in CMMA	A0100		01/12/2018	01/12/2018	No	2	1		Monzarine- Sister	9294330432	9.4	01/12/2018	CALL	27005 76th Ave	 	New Hyde Park	NY	11040	01/12/2018	CALL	19332 Foothill Ave	  	Hollis	NY	11423	4.7			No	135584581
2504293	969	562423540	Leg	Mohammed	M	Sufian	QT41817Y	M	(929) 433-0432	08/29/1989	Queens Hospital	000	1801803903	Clean Air Car Svc & Parking (NYC)	Livery/QN-Med Appt out CMMA	A0100	TN	01/13/2018	01/13/2018	No	2	1		Monzarine- Sister	9294330432	12.2	01/13/2018	0830	19332 Foothill Ave	 	Hollis	NY	11423	01/13/2018	0930	3907 Prince St	  	Flushing	NY	11354	6.1	2 Extra Riders		No	135584747
2504293	970	562423540	Leg	Mohammed	M	Sufian	QT41817Y	M	(929) 433-0432	08/29/1989	Queens Hospital	000	1801803903	Clean Air Car Svc & Parking (NYC)	Livery/QN-Med Appt out CMMA	A0100	TN	01/13/2018	01/13/2018	No	2	1		Monzarine- Sister	9294330432	12.2	01/13/2018	CALL	3907 Prince St	 	Flushing	NY	11354	01/13/2018	CALL	19332 Foothill Ave	  	Hollis	NY	11423	6.1			No	135584748
2504293	971	562436840	Leg	Mohammed	M	Sufian	QT41817Y	M	(929) 433-0432	08/29/1989	MASON, BENJAMIN		1356390488	Clean Air Car Svc & Parking (NYC)	Livery/QN-Med Appt out CMMA	A0100	TN	01/14/2018	01/14/2018	No	2	1		mondarine sister	(929) 433-0432	12.2	01/14/2018	0915	19332 Foothill Ave	 home	Hollis	NY	11423	01/14/2018	1015	3907 Prince St	8632804 	Flushing	NY	11354	6.1	+1, Additional Rider		No	135588335
2504293	972	562436840	Leg	Mohammed	M	Sufian	QT41817Y	M	(929) 433-0432	08/29/1989	MASON, BENJAMIN		1356390488	Clean Air Car Svc & Parking (NYC)	Livery/QN-Med Appt out CMMA	A0100	TN	01/14/2018	01/14/2018	No	2	1		mondarine sister	(929) 433-0432	12.2	01/14/2018	Call	3907 Prince St	8632804 	Flushing	NY	11354	01/14/2018	Call	19332 Foothill Ave	  home	Hollis	NY	11423	6.1			No	135588336
2504293	973	562437350	Leg	Mohammed	M	Sufian	QT41817Y	M	(929) 433-0432	08/29/1989	MASON, BENJAMIN		1356390488	Clean Air Car Svc & Parking (NYC)	Livery/QN-Med Appt out CMMA	A0100	TN	01/15/2018	01/15/2018	No	2	1		monzarine	(929) 433-0432	12.2	01/15/2018	0945	19332 Foothill Ave	 home	Hollis	NY	11423	01/15/2018	1045	3907 Prince St	8632804 	Flushing	NY	11354	6.1	Additional Rider		No	135588571
2504293	974	562437350	Leg	Mohammed	M	Sufian	QT41817Y	M	(929) 433-0432	08/29/1989	MASON, BENJAMIN		1356390488	Clean Air Car Svc & Parking (NYC)	Livery/QN-Med Appt out CMMA	A0100	TN	01/15/2018	01/15/2018	No	2	1		monzarine	(929) 433-0432	12.2	01/15/2018	Call	3907 Prince St	8632804 	Flushing	NY	11354	01/15/2018	Call	19332 Foothill Ave	  home	Hollis	NY	11423	6.1			No	135588572
2504293	975	562438830	Leg	Mohammed	M	Sufian	QT41817Y	M	(929) 433-0432	08/29/1989	MASON, BENJAMIN		1356390488	Clean Air Car Svc & Parking (NYC)	Livery/QN-Med Appt out CMMA	A0100	TN	01/16/2018	01/16/2018	No	2	1		monzarin sister	(929) 433-0432	27.4	01/16/2018	0845	19332 Foothill Ave	 home	Hollis	NY	11423	01/16/2018	0945	2020 Cortelyou Rd	  main	Brooklyn	NY	11226	13.7			No	135588602
2504293	976	562438830	Leg	Mohammed	M	Sufian	QT41817Y	M	(929) 433-0432	08/29/1989	MASON, BENJAMIN		1356390488	Clean Air Car Svc & Parking (NYC)	Livery/QN-Med Appt out CMMA	A0100	TN	01/16/2018	01/16/2018	No	2	1		monzarin sister	(929) 433-0432	27.4	01/16/2018	Call	2020 Cortelyou Rd	 main	Brooklyn	NY	11226	01/16/2018	Call	19332 Foothill Ave	  home	Hollis	NY	11423	13.7			No	135588603
2504293	977	562438830	Service	Mohammed	M	Sufian	QT41817Y	M	(929) 433-0432	08/29/1989	MASON, BENJAMIN		1356390488	Clean Air Car Svc & Parking (NYC)	Mileage-Livery in NYC	S0215		01/16/2018	01/16/2018	No	2	1																					Mileage-Livery in NYC	135588602
2504293	978	562438830	Service	Mohammed	M	Sufian	QT41817Y	M	(929) 433-0432	08/29/1989	MASON, BENJAMIN		1356390488	Clean Air Car Svc & Parking (NYC)	Mileage-Livery in NYC	S0215		01/16/2018	01/16/2018	No	2	1																					Mileage-Livery in NYC	135588603
2504293	979	562438830	Service	Mohammed	M	Sufian	QT41817Y	M	(929) 433-0432	08/29/1989	MASON, BENJAMIN		1356390488	Clean Air Car Svc & Parking (NYC)	Tolls-Universal	A0170	CG	01/16/2018	01/16/2018	No	2	1																					Tolls-Universal	135588602
2504293	980	562439230	Leg	Mohammed	M	Sufian	QT41817Y	M	(929) 433-0432	08/29/1989	MASON, BENJAMIN		1356390488	Clean Air Car Svc & Parking (NYC)	Livery/QN-Med Appt out CMMA	A0100	TN	01/17/2018	01/17/2018	No	2	1		monzarine sister	(929) 433-0432	31.6	01/17/2018	0930	19332 Foothill Ave	 home	Hollis	NY	11423	01/17/2018	1030	1470 Madison Ave	  main	New York	NY	10029	15.8	Additional Rider		No	135588962
2504293	981	562439230	Leg	Mohammed	M	Sufian	QT41817Y	M	(929) 433-0432	08/29/1989	MASON, BENJAMIN		1356390488	Clean Air Car Svc & Parking (NYC)	Livery/QN-Med Appt out CMMA	A0100	TN	01/17/2018	01/17/2018	No	2	1		monzarine sister	(929) 433-0432	31.6	01/17/2018	Call	1470 Madison Ave	 main	New York	NY	10029	01/17/2018	Call	19332 Foothill Ave	  home	Hollis	NY	11423	15.8			No	135588963
2504293	982	562439230	Service	Mohammed	M	Sufian	QT41817Y	M	(929) 433-0432	08/29/1989	MASON, BENJAMIN		1356390488	Clean Air Car Svc & Parking (NYC)	Mileage-Livery in NYC	S0215		01/17/2018	01/17/2018	No	2	1																					Mileage-Livery in NYC	135588962
2504293	983	562439230	Service	Mohammed	M	Sufian	QT41817Y	M	(929) 433-0432	08/29/1989	MASON, BENJAMIN		1356390488	Clean Air Car Svc & Parking (NYC)	Mileage-Livery in NYC	S0215		01/17/2018	01/17/2018	No	2	1																					Mileage-Livery in NYC	135588963
2504293	984	562439230	Service	Mohammed	M	Sufian	QT41817Y	M	(929) 433-0432	08/29/1989	MASON, BENJAMIN		1356390488	Clean Air Car Svc & Parking (NYC)	Tolls-Universal	A0170	CG	01/17/2018	01/17/2018	No	2	1																					Tolls-Universal	135588962
2504293	985	562439230	Service	Mohammed	M	Sufian	QT41817Y	M	(929) 433-0432	08/29/1989	MASON, BENJAMIN		1356390488	Clean Air Car Svc & Parking (NYC)	Livery-Manhattan Surcharge	A0100	SC	01/17/2018	01/17/2018	No	2	1																					Livery-Manhattan Surcharge	135588962
2504293	986	562439230	Service	Mohammed	M	Sufian	QT41817Y	M	(929) 433-0432	08/29/1989	MASON, BENJAMIN		1356390488	Clean Air Car Svc & Parking (NYC)	Livery-Manhattan Surcharge	A0100	SC	01/17/2018	01/17/2018	No	2	1																					Livery-Manhattan Surcharge	135588963
2504293	987	562440170	Leg	Mohammed	M	Sufian	QT41817Y	M	(929) 433-0432	08/29/1989	MASON, BENJAMIN		1356390488	Clean Air Car Svc & Parking (NYC)	Livery/QN-Med Appt out CMMA	A0100	TN	01/18/2018	01/18/2018	No	2	1		minzarine sister	(929) 433-0432	17.8	01/18/2018	0900	19332 Foothill Ave	 home	Hollis	NY	11423	01/18/2018	1000	4141 51st St	  main	Woodside	NY	11377	8.9	+1, Additional Rider		No	135589237
2504293	988	562440170	Leg	Mohammed	M	Sufian	QT41817Y	M	(929) 433-0432	08/29/1989	MASON, BENJAMIN		1356390488	Clean Air Car Svc & Parking (NYC)	Livery/QN-Med Appt out CMMA	A0100	TN	01/18/2018	01/18/2018	No	2	1		minzarine sister	(929) 433-0432	17.8	01/18/2018	Call	4141 51st St	 main	Woodside	NY	11377	01/18/2018	Call	19332 Foothill Ave	  home	Hollis	NY	11423	8.9			No	135589238
2504293	989	562440170	Service	Mohammed	M	Sufian	QT41817Y	M	(929) 433-0432	08/29/1989	MASON, BENJAMIN		1356390488	Clean Air Car Svc & Parking (NYC)	Mileage-Livery in NYC	S0215		01/18/2018	01/18/2018	No	2	1																					Mileage-Livery in NYC	135589237
2504293	990	562440170	Service	Mohammed	M	Sufian	QT41817Y	M	(929) 433-0432	08/29/1989	MASON, BENJAMIN		1356390488	Clean Air Car Svc & Parking (NYC)	Mileage-Livery in NYC	S0215		01/18/2018	01/18/2018	No	2	1																					Mileage-Livery in NYC	135589238
2504293	991	562440320	Leg	Mohammed	M	Sufian	QT41817Y	M	(929) 433-0432	08/29/1989	MASON, BENJAMIN		1356390488	Clean Air Car Svc & Parking (NYC)	Livery/QN-Med Appt out CMMA	A0100	TN	01/19/2018	01/19/2018	No	2	1		monzarine sister	(929) 433-0432	28.6	01/19/2018	0915	19332 Foothill Ave	 home	Hollis	NY	11423	01/19/2018	1015	462 1st Ave	  main	New York	NY	10016	14.3	+1, Additional Rider		No	135589271
2504293	992	562440320	Leg	Mohammed	M	Sufian	QT41817Y	M	(929) 433-0432	08/29/1989	MASON, BENJAMIN		1356390488	Clean Air Car Svc & Parking (NYC)	Livery/QN-Med Appt out CMMA	A0100	TN	01/19/2018	01/19/2018	No	2	1		monzarine sister	(929) 433-0432	28.6	01/19/2018	Call	462 1st Ave	 main	New York	NY	10016	01/19/2018	Call	19332 Foothill Ave	  home	Hollis	NY	11423	14.3			No	135589272
2504293	993	562440320	Service	Mohammed	M	Sufian	QT41817Y	M	(929) 433-0432	08/29/1989	MASON, BENJAMIN		1356390488	Clean Air Car Svc & Parking (NYC)	Mileage-Livery in NYC	S0215		01/19/2018	01/19/2018	No	2	1																					Mileage-Livery in NYC	135589271
2504293	994	562440320	Service	Mohammed	M	Sufian	QT41817Y	M	(929) 433-0432	08/29/1989	MASON, BENJAMIN		1356390488	Clean Air Car Svc & Parking (NYC)	Mileage-Livery in NYC	S0215		01/19/2018	01/19/2018	No	2	1																					Mileage-Livery in NYC	135589272
2504293	995	562440320	Service	Mohammed	M	Sufian	QT41817Y	M	(929) 433-0432	08/29/1989	MASON, BENJAMIN		1356390488	Clean Air Car Svc & Parking (NYC)	Tolls-Universal	A0170	CG	01/19/2018	01/19/2018	No	2	1																					Tolls-Universal	135589271
2504293	996	562440320	Service	Mohammed	M	Sufian	QT41817Y	M	(929) 433-0432	08/29/1989	MASON, BENJAMIN		1356390488	Clean Air Car Svc & Parking (NYC)	Livery-Manhattan Surcharge	A0100	SC	01/19/2018	01/19/2018	No	2	1																					Livery-Manhattan Surcharge	135589271
2504293	997	562440320	Service	Mohammed	M	Sufian	QT41817Y	M	(929) 433-0432	08/29/1989	MASON, BENJAMIN		1356390488	Clean Air Car Svc & Parking (NYC)	Livery-Manhattan Surcharge	A0100	SC	01/19/2018	01/19/2018	No	2	1																					Livery-Manhattan Surcharge	135589272
2504293	998	562443400	Leg	Mohammed	M	Sufian	QT41817Y	M	(929) 433-0432	08/29/1989	MASON, BENJAMIN		1356390488	Clean Air Car Svc & Parking (NYC)	Livery/QN-Med Appt out CMMA	A0100	TN	01/20/2018	01/20/2018	No	2	1		monzarine sister	(929) 433-0432	17.8	01/20/2018	1000	19332 Foothill Ave	 home	Hollis	NY	11423	01/20/2018	1100	4032 74th St	  main	Elmhurst	NY	11373	8.9	+1, Additional Rider		No	135589327
2504293	999	562443400	Leg	Mohammed	M	Sufian	QT41817Y	M	(929) 433-0432	08/29/1989	MASON, BENJAMIN		1356390488	Clean Air Car Svc & Parking (NYC)	Livery/QN-Med Appt out CMMA	A0100	TN	01/20/2018	01/20/2018	No	2	1		monzarine sister	(929) 433-0432	17.8	01/20/2018	Call	4032 74th St	 main	Elmhurst	NY	11373	01/20/2018	Call	19332 Foothill Ave	  home	Hollis	NY	11423	8.9			No	135589328
2504293	1000	562443400	Service	Mohammed	M	Sufian	QT41817Y	M	(929) 433-0432	08/29/1989	MASON, BENJAMIN		1356390488	Clean Air Car Svc & Parking (NYC)	Mileage-Livery in NYC	S0215		01/20/2018	01/20/2018	No	2	1																					Mileage-Livery in NYC	135589327
2504293	1001	562443400	Service	Mohammed	M	Sufian	QT41817Y	M	(929) 433-0432	08/29/1989	MASON, BENJAMIN		1356390488	Clean Air Car Svc & Parking (NYC)	Mileage-Livery in NYC	S0215		01/20/2018	01/20/2018	No	2	1																					Mileage-Livery in NYC	135589328
2504293	1002	562443770	Leg	Mohammed	M	Sufian	QT41817Y	M	(929) 433-0432	08/29/1989	MASON, BENJAMIN		1356390488	Clean Air Car Svc & Parking (NYC)	Livery/QN-Med Appt out CMMA	A0100	TN	01/21/2018	01/21/2018	No	2	1		monzarine sister	(929) 433-0432	12.2	01/21/2018	0830	19332 Foothill Ave	 home	Hollis	NY	11423	01/21/2018	0930	3907 Prince St	8632804 	Flushing	NY	11354	6.1	Additional Rider		No	135589526
2504293	1003	562443770	Leg	Mohammed	M	Sufian	QT41817Y	M	(929) 433-0432	08/29/1989	MASON, BENJAMIN		1356390488	Clean Air Car Svc & Parking (NYC)	Livery/QN-Med Appt out CMMA	A0100	TN	01/21/2018	01/21/2018	No	2	1		monzarine sister	(929) 433-0432	12.2	01/21/2018	Call	3907 Prince St	8632804 	Flushing	NY	11354	01/21/2018	Call	19332 Foothill Ave	  home	Hollis	NY	11423	6.1			No	135589527
2504293	1004	562664210	Leg	Samuel		Fierstein	VX81030M	M	(718) 961-8972	09/01/1954	BLEULER PSYCHOTHERAPY CENTER		1801949706	Clean Air Car Svc & Parking (NYC)	Livery/QN-Med Appt in CMMA	A0100		01/24/2018	01/24/2018	Yes	2	1		self	(718) 961-8972	9.2	01/24/2018	1315	13815 Franklin Ave	Apt 412 	Flushing	NY	11355	01/24/2018	1415	8371 116th St	  suite M2	Richmond Hill	NY	11418	4.6	S/O Weds & Fri only		No	135642284
2504293	1005	562664210	Leg	Samuel		Fierstein	VX81030M	M	(718) 961-8972	09/01/1954	BLEULER PSYCHOTHERAPY CENTER		1801949706	Clean Air Car Svc & Parking (NYC)	Livery/QN-Med Appt in CMMA	A0100		01/24/2018	01/24/2018	Yes	2	1		self	(718) 961-8972	9.2	01/24/2018	Call	8371 116th St	 suite M2	Richmond Hill	NY	11418	01/24/2018		13815 Franklin Ave	Apt 412 	Flushing	NY	11355	4.6			No	135642285
2504293	1006	562664220	Leg	Samuel		Fierstein	VX81030M	M	(718) 961-8972	09/01/1954	BLEULER PSYCHOTHERAPY CENTER		1801949706	Clean Air Car Svc & Parking (NYC)	Livery/QN-Med Appt in CMMA	A0100		01/26/2018	01/26/2018	Yes	2	1		self	(718) 961-8972	9.2	01/26/2018	1315	13815 Franklin Ave	Apt 412 	Flushing	NY	11355	01/26/2018	1415	8371 116th St	  suite M2	Richmond Hill	NY	11418	4.6	S/O Weds & Fri only		No	135642286
2504293	1007	562664220	Leg	Samuel		Fierstein	VX81030M	M	(718) 961-8972	09/01/1954	BLEULER PSYCHOTHERAPY CENTER		1801949706	Clean Air Car Svc & Parking (NYC)	Livery/QN-Med Appt in CMMA	A0100		01/26/2018	01/26/2018	Yes	2	1		self	(718) 961-8972	9.2	01/26/2018	Call	8371 116th St	 suite M2	Richmond Hill	NY	11418	01/26/2018		13815 Franklin Ave	Apt 412 	Flushing	NY	11355	4.6			No	135642287
2504293	1008	562664230	Leg	Samuel		Fierstein	VX81030M	M	(718) 961-8972	09/01/1954	BLEULER PSYCHOTHERAPY CENTER		1801949706	Clean Air Car Svc & Parking (NYC)	Livery/QN-Med Appt in CMMA	A0100		01/31/2018	01/31/2018	Yes	2	1		self	(718) 961-8972	9.2	01/31/2018	1315	13815 Franklin Ave	Apt 412 	Flushing	NY	11355	01/31/2018	1415	8371 116th St	  suite M2	Richmond Hill	NY	11418	4.6	S/O Weds & Fri only		No	135642288
2504293	1009	562664230	Leg	Samuel		Fierstein	VX81030M	M	(718) 961-8972	09/01/1954	BLEULER PSYCHOTHERAPY CENTER		1801949706	Clean Air Car Svc & Parking (NYC)	Livery/QN-Med Appt in CMMA	A0100		01/31/2018	01/31/2018	Yes	2	1		self	(718) 961-8972	9.2	01/31/2018	Call	8371 116th St	 suite M2	Richmond Hill	NY	11418	01/31/2018		13815 Franklin Ave	Apt 412 	Flushing	NY	11355	4.6			No	135642289
2504293	1010	562665000	Leg	Yanique		Ford	SG65867E	F	6313364112	06/06/1985	NY Presbyterian Hospital		1952332801	Clean Air Car Svc & Parking (NYC)	Livery/MN-Med Appt out CMMA	A0100	TN	01/08/2018	01/08/2018	No	2	1		self	6313364112	17.6	01/08/2018	1500	25 Pine St	 	New York	NY	10005	01/08/2018	1600	2510 30th Rd	  	Long Island City	NY	11102	8.8	1 Additional rider(s). 1 Additional rider(s). 1 Additional rider(s). 1 Additional rider(s). 1 other passanger		No	135643104
2504293	1011	562665000	Leg	Yanique		Ford	SG65867E	F	6313364112	06/06/1985	NY Presbyterian Hospital		1952332801	Clean Air Car Svc & Parking (NYC)	Livery/MN-Med Appt out CMMA	A0100	TN	01/08/2018	01/08/2018	No	2	1		self	6313364112	17.6	01/08/2018	Call	2510 30th Rd	 	Long Island City	NY	11102	01/08/2018	Call	25 Pine St	  	New York	NY	10005	8.8	1 Additional rider(s). 1 Additional rider(s). 1 Additional rider(s). 1 Additional rider(s). 1 other passanger		No	135643105
2504293	1012	562665000	Service	Yanique		Ford	SG65867E	F	6313364112	06/06/1985	NY Presbyterian Hospital		1952332801	Clean Air Car Svc & Parking (NYC)	Mileage-Livery in NYC	S0215		01/08/2018	01/08/2018	No	2	1																					Mileage-Livery in NYC	135643104
2504293	1013	562665000	Service	Yanique		Ford	SG65867E	F	6313364112	06/06/1985	NY Presbyterian Hospital		1952332801	Clean Air Car Svc & Parking (NYC)	Mileage-Livery in NYC	S0215		01/08/2018	01/08/2018	No	2	1																					Mileage-Livery in NYC	135643105
2504293	1014	562665000	Service	Yanique		Ford	SG65867E	F	6313364112	06/06/1985	NY Presbyterian Hospital		1952332801	Clean Air Car Svc & Parking (NYC)	Tolls-Universal	A0170	CG	01/08/2018	01/08/2018	No	2	1																					Tolls-Universal	135643104
2504293	1015	562665000	Service	Yanique		Ford	SG65867E	F	6313364112	06/06/1985	NY Presbyterian Hospital		1952332801	Clean Air Car Svc & Parking (NYC)	Livery-Manhattan Surcharge	A0100	SC	01/08/2018	01/08/2018	No	2	1																					Livery-Manhattan Surcharge	135643104
2504293	1016	562665000	Service	Yanique		Ford	SG65867E	F	6313364112	06/06/1985	NY Presbyterian Hospital		1952332801	Clean Air Car Svc & Parking (NYC)	Livery-Manhattan Surcharge	A0100	SC	01/08/2018	01/08/2018	No	2	1																					Livery-Manhattan Surcharge	135643105
2504293	1017	562665190	Leg	Xiaofang		Luo	KF17862J	F	(347) 527-8655	11/02/1945	Brooklyn Hospital Center	000	1326046467	Clean Air Car Svc & Parking (NYC)	Livery/BK-Med Appt out CMMA	A0100	TN	01/08/2018	01/08/2018	No	2	1		Lizzy , Daughter	(347) 527-8655	36.2	01/08/2018	2030	35 Oliver St	apt 4h 	Brooklyn	NY	11209	01/08/2018	2130	4235 Main St	  Main	Flushing	NY	11355	18.1	S/O Mon - Only, Additional Rider		No	135643495
2504293	1018	562665190	Leg	Xiaofang		Luo	KF17862J	F	(347) 527-8655	11/02/1945	Brooklyn Hospital Center	000	1326046467	Clean Air Car Svc & Parking (NYC)	Livery/BK-Med Appt out CMMA	A0100	TN	01/08/2018	01/08/2018	No	2	1		Lizzy , Daughter	(347) 527-8655	36.2	01/08/2018	Call	4235 Main St	 Main	Flushing	NY	11355	01/08/2018	Call	35 Oliver St	apt 4h 	Brooklyn	NY	11209	18.1	S/O Mon - Only, Additional Rider		No	135643496
2504293	1019	562665190	Service	Xiaofang		Luo	KF17862J	F	(347) 527-8655	11/02/1945	Brooklyn Hospital Center	000	1326046467	Clean Air Car Svc & Parking (NYC)	Mileage-Livery in NYC	S0215		01/08/2018	01/08/2018	No	2	1																					Mileage-Livery in NYC	135643495
2504293	1020	562665190	Service	Xiaofang		Luo	KF17862J	F	(347) 527-8655	11/02/1945	Brooklyn Hospital Center	000	1326046467	Clean Air Car Svc & Parking (NYC)	Mileage-Livery in NYC	S0215		01/08/2018	01/08/2018	No	2	1																					Mileage-Livery in NYC	135643496
2504293	1021	562665190	Service	Xiaofang		Luo	KF17862J	F	(347) 527-8655	11/02/1945	Brooklyn Hospital Center	000	1326046467	Clean Air Car Svc & Parking (NYC)	Tolls-Universal	A0170	CG	01/08/2018	01/08/2018	No	2	1																					Tolls-Universal	135643495
2504293	1022	562908240	Leg	Sharon		Caffey	XQ37608H	F	7183013775	09/04/1964	Bradnock Howard		1225002751	Clean Air Car Svc & Parking (NYC)	Livery/QN-Med Appt out CMMA	A0100	TN	01/09/2018	01/09/2018	No	4	1		self	7183013775	53.2	01/09/2018	0730	3441 Linden Pl	 	Flushing	NY	11354	01/09/2018	0830	150 55th St	  	Brooklyn	NY	11220	17.2			No	135710962
2504293	1023	562908240	Leg	Sharon		Caffey	XQ37608H	F	7183013775	09/04/1964	Bradnock Howard		1225002751	Clean Air Car Svc & Parking (NYC)	Livery/QN-Med Appt out CMMA	A0100	TN	01/09/2018	01/09/2018	No	4	1		self	7183013775	53.2	01/09/2018	1400	3441 Linden Pl	 	Flushing	NY	11354	01/09/2018	1500	1305 York Ave	  	New York	NY	10021	9.4			No	135710963
2504293	1024	562908240	Leg	Sharon		Caffey	XQ37608H	F	7183013775	09/04/1964	Bradnock Howard		1225002751	Clean Air Car Svc & Parking (NYC)	Livery/QN-Med Appt out CMMA	A0100	TN	01/09/2018	01/09/2018	No	4	1		self	7183013775	53.2	01/09/2018	CALL	1305 York Ave	 	New York	NY	10021	01/09/2018	CALL	3441 Linden Pl	  	Flushing	NY	11354	9.4			No	135710964
2504293	1025	562908240	Leg	Sharon		Caffey	XQ37608H	F	7183013775	09/04/1964	Bradnock Howard		1225002751	Clean Air Car Svc & Parking (NYC)	Livery/QN-Med Appt out CMMA	A0100	TN	01/09/2018	01/09/2018	No	4	1		self	7183013775	53.2	01/09/2018	CALL	150 55th St	 MN	Brooklyn	NY	11220	01/09/2018	Call	3441 Linden Pl	Apt 2B 	Flushing	NY	11354	17.2			No	139026442
2504293	1026	562908240	Service	Sharon		Caffey	XQ37608H	F	7183013775	09/04/1964	Bradnock Howard		1225002751	Clean Air Car Svc & Parking (NYC)	Tolls-Universal	A0170	CG	01/09/2018	01/09/2018	No	4	1																					Tolls-Universal	135710962
2504293	1027	562908240	Service	Sharon		Caffey	XQ37608H	F	7183013775	09/04/1964	Bradnock Howard		1225002751	Clean Air Car Svc & Parking (NYC)	Livery-Manhattan Surcharge	A0100	SC	01/09/2018	01/09/2018	No	4	1																					Livery-Manhattan Surcharge	135710963
2504293	1028	562908240	Service	Sharon		Caffey	XQ37608H	F	7183013775	09/04/1964	Bradnock Howard		1225002751	Clean Air Car Svc & Parking (NYC)	Livery-Manhattan Surcharge	A0100	SC	01/09/2018	01/09/2018	No	4	1																					Livery-Manhattan Surcharge	135710964
2504293	1029	562908240	Service	Sharon		Caffey	XQ37608H	F	7183013775	09/04/1964	Bradnock Howard		1225002751	Clean Air Car Svc & Parking (NYC)	Mileage-Livery in NYC	S0215		01/09/2018	01/09/2018	No	4	1																					Mileage-Livery in NYC	135710962
2504293	1030	562908240	Service	Sharon		Caffey	XQ37608H	F	7183013775	09/04/1964	Bradnock Howard		1225002751	Clean Air Car Svc & Parking (NYC)	Mileage-Livery in NYC	S0215		01/09/2018	01/09/2018	No	4	1																					Mileage-Livery in NYC	135710963
2504293	1031	562908240	Service	Sharon		Caffey	XQ37608H	F	7183013775	09/04/1964	Bradnock Howard		1225002751	Clean Air Car Svc & Parking (NYC)	Mileage-Livery in NYC	S0215		01/09/2018	01/09/2018	No	4	1																					Mileage-Livery in NYC	135710964
2504293	1032	562908240	Service	Sharon		Caffey	XQ37608H	F	7183013775	09/04/1964	Bradnock Howard		1225002751	Clean Air Car Svc & Parking (NYC)	Mileage-Livery in NYC	S0215		01/09/2018	01/09/2018	No	4	1																					Mileage-Livery in NYC	139026442
2504293	1033	562921140	Leg	Sharon		Caffey	XQ37608H	F	(718) 301-3775	09/04/1964	Bradnock Howard		1225002751	Clean Air Car Svc & Parking (NYC)	Livery/QN-Med Appt out CMMA	A0100	TN	01/08/2018	01/08/2018	No	4	1		enrollee	(718) 301-3775	56.8	01/08/2018	0700	3441 Linden Pl	Apt 2B 	Flushing	NY	11354	01/08/2018	0800	8714 5th Ave	  main	Brooklyn	NY	11209	19.0			No	135714163
2504293	1034	562921140	Leg	Sharon		Caffey	XQ37608H	F	(718) 301-3775	09/04/1964	Bradnock Howard		1225002751	Clean Air Car Svc & Parking (NYC)	Livery/QN-Med Appt out CMMA	A0100	TN	01/08/2018	01/08/2018	No	4	1		enrollee	(718) 301-3775	56.8	01/08/2018	Call	8714 5th Ave	 main	Brooklyn	NY	11209	01/08/2018	Call	3441 Linden Pl	Apt 2B 	Flushing	NY	11354	19.0			No	135714164
2504293	1035	562921140	Leg	Sharon		Caffey	XQ37608H	F	(718) 301-3775	09/04/1964	Bradnock Howard		1225002751	Clean Air Car Svc & Parking (NYC)	Livery/QN-Med Appt out CMMA	A0100	TN	01/08/2018	01/08/2018	No	4	1		enrollee	(718) 301-3775	56.8	01/08/2018	1400	3441 Linden Pl	Apt 2B 	Flushing	NY	11354	01/08/2018	1500	1305 York Ave	  main	New York	NY	10021	9.4			No	135714178
2504293	1036	562921140	Leg	Sharon		Caffey	XQ37608H	F	(718) 301-3775	09/04/1964	Bradnock Howard		1225002751	Clean Air Car Svc & Parking (NYC)	Livery/QN-Med Appt out CMMA	A0100	TN	01/08/2018	01/08/2018	No	4	1		enrollee	(718) 301-3775	56.8	01/08/2018	Call	1305 York Ave	 main	New York	NY	10021	01/08/2018	Call	3441 Linden Pl	Apt 2B 	Flushing	NY	11354	9.4			No	135714179
2504293	1037	562921140	Service	Sharon		Caffey	XQ37608H	F	(718) 301-3775	09/04/1964	Bradnock Howard		1225002751	Clean Air Car Svc & Parking (NYC)	Tolls-Universal	A0170	CG	01/08/2018	01/08/2018	No	4	1																					Tolls-Universal	135714163
2504293	1038	562921140	Service	Sharon		Caffey	XQ37608H	F	(718) 301-3775	09/04/1964	Bradnock Howard		1225002751	Clean Air Car Svc & Parking (NYC)	Mileage-Livery in NYC	S0215		01/08/2018	01/08/2018	No	4	1																					Mileage-Livery in NYC	135714163
2504293	1039	562921140	Service	Sharon		Caffey	XQ37608H	F	(718) 301-3775	09/04/1964	Bradnock Howard		1225002751	Clean Air Car Svc & Parking (NYC)	Mileage-Livery in NYC	S0215		01/08/2018	01/08/2018	No	4	1																					Mileage-Livery in NYC	135714164
2504293	1040	562921140	Service	Sharon		Caffey	XQ37608H	F	(718) 301-3775	09/04/1964	Bradnock Howard		1225002751	Clean Air Car Svc & Parking (NYC)	Mileage-Livery in NYC	S0215		01/08/2018	01/08/2018	No	4	1																					Mileage-Livery in NYC	135714178
2504293	1041	562921140	Service	Sharon		Caffey	XQ37608H	F	(718) 301-3775	09/04/1964	Bradnock Howard		1225002751	Clean Air Car Svc & Parking (NYC)	Mileage-Livery in NYC	S0215		01/08/2018	01/08/2018	No	4	1																					Mileage-Livery in NYC	135714179
2504293	1042	562921140	Service	Sharon		Caffey	XQ37608H	F	(718) 301-3775	09/04/1964	Bradnock Howard		1225002751	Clean Air Car Svc & Parking (NYC)	Livery-Manhattan Surcharge	A0100	SC	01/08/2018	01/08/2018	No	4	1																					Livery-Manhattan Surcharge	135714178
2504293	1043	562921140	Service	Sharon		Caffey	XQ37608H	F	(718) 301-3775	09/04/1964	Bradnock Howard		1225002751	Clean Air Car Svc & Parking (NYC)	Livery-Manhattan Surcharge	A0100	SC	01/08/2018	01/08/2018	No	4	1																					Livery-Manhattan Surcharge	135714179
2504293	1044	562922680	Leg	Anita		Narine	NC09839N	F	(347) 595-1081	05/24/1966	Pham,Shirley		1245559889	Clean Air Car Svc & Parking (NYC)	Livery/QN-Med Appt out CMMA	A0100	TN	01/08/2018	01/08/2018	No	2	1		SELF	(347) 595-1081	35.8	01/08/2018	1100	11017 101st Ave	 FRONT	South Richmond Hill	NY	11419	01/08/2018	1200	3959 Broadway	  7TH FLOOR , NORTH	New York	NY	10032	17.9			No	135714738
2504293	1045	562922680	Leg	Anita		Narine	NC09839N	F	(347) 595-1081	05/24/1966	Pham,Shirley		1245559889	Clean Air Car Svc & Parking (NYC)	Livery/QN-Med Appt out CMMA	A0100	TN	01/08/2018	01/08/2018	No	2	1		SELF	(347) 595-1081	35.8	01/08/2018	Call	3959 Broadway	 7TH FLOOR , NORTH	New York	NY	10032	01/08/2018	Call	11017 101st Ave	  FRONT	South Richmond Hill	NY	11419	17.9			No	135714739
2504293	1046	562922680	Service	Anita		Narine	NC09839N	F	(347) 595-1081	05/24/1966	Pham,Shirley		1245559889	Clean Air Car Svc & Parking (NYC)	Tolls-Universal	A0170	CG	01/08/2018	01/08/2018	No	2	1																					Tolls-Universal	135714738
2504293	1047	562922680	Service	Anita		Narine	NC09839N	F	(347) 595-1081	05/24/1966	Pham,Shirley		1245559889	Clean Air Car Svc & Parking (NYC)	Mileage-Livery in NYC	S0215		01/08/2018	01/08/2018	No	2	1																					Mileage-Livery in NYC	135714738
2504293	1048	562922680	Service	Anita		Narine	NC09839N	F	(347) 595-1081	05/24/1966	Pham,Shirley		1245559889	Clean Air Car Svc & Parking (NYC)	Mileage-Livery in NYC	S0215		01/08/2018	01/08/2018	No	2	1																					Mileage-Livery in NYC	135714739
2504293	1049	562923190	Leg	Anita		Narine	NC09839N	F	(347) 595-1081	05/24/1966	Pham,Shirley		1245559889	Clean Air Car Svc & Parking (NYC)	Livery/QN-Med Appt in CMMA	A0100		01/09/2018	01/09/2018	No	2	1		SELF	(347) 595-1081	9.4	01/09/2018	1000	11017 101st Ave	 FRONT	South Richmond Hill	NY	11419	01/09/2018	1100	10201 66th Rd	  MAIN	Forest Hills	NY	11375	4.7			No	135714949
2504293	1050	562923190	Leg	Anita		Narine	NC09839N	F	(347) 595-1081	05/24/1966	Pham,Shirley		1245559889	Clean Air Car Svc & Parking (NYC)	Livery/QN-Med Appt in CMMA	A0100		01/09/2018	01/09/2018	No	2	1		SELF	(347) 595-1081	9.4	01/09/2018	Call	10201 66th Rd	 MAIN	Forest Hills	NY	11375	01/09/2018	Call	11017 101st Ave	  FRONT	South Richmond Hill	NY	11419	4.7			No	135714950
2504293	1051	563029010	Leg	Petronila		Mejia	WA51990P	F	3476709092	09/24/1950	Queens Hospital	000	1801803903	Clean Air Car Svc & Parking (NYC)	Livery/QN-Med Appt out CMMA	A0100	TN	01/10/2018	01/10/2018	No	2	1		self	3476709092	34.0	01/10/2018	1200	9036 144th Pl	 	Jamaica	NY	11435	01/10/2018	1300	901 Stewart Ave	  	Garden City	NY	11530	17.0	1+		No	135741061
2504293	1052	563029010	Leg	Petronila		Mejia	WA51990P	F	3476709092	09/24/1950	Queens Hospital	000	1801803903	Clean Air Car Svc & Parking (NYC)	Livery/QN-Med Appt out CMMA	A0100	TN	01/10/2018	01/10/2018	No	2	1		self	3476709092	34.0	01/10/2018	CALL	901 Stewart Ave	 	Garden City	NY	11530	01/10/2018	CALL	9036 144th Pl	  	Jamaica	NY	11435	17.0			No	135741062
2504293	1053	563029010	Service	Petronila		Mejia	WA51990P	F	3476709092	09/24/1950	Queens Hospital	000	1801803903	Clean Air Car Svc & Parking (NYC)	Tolls-Universal	A0170	CG	01/10/2018	01/10/2018	No	2	1																					Tolls-Universal	135741061
2504293	1054	563029010	Service	Petronila		Mejia	WA51990P	F	3476709092	09/24/1950	Queens Hospital	000	1801803903	Clean Air Car Svc & Parking (NYC)	Mileage-Livery out of NYC	S0215	TN	01/10/2018	01/10/2018	No	2	1																					Mileage-Livery out of NYC	135741061
2504293	1055	563029010	Service	Petronila		Mejia	WA51990P	F	3476709092	09/24/1950	Queens Hospital	000	1801803903	Clean Air Car Svc & Parking (NYC)	Mileage-Livery out of NYC	S0215	TN	01/10/2018	01/10/2018	No	2	1																					Mileage-Livery out of NYC	135741062
2504293	1056	563029370	Leg	Petronila		Mejia	WA51990P	F	3476709092	09/24/1950	Queens Hospital	000	1801803903	Clean Air Car Svc & Parking (NYC)	Livery/QN-Med Appt in CMMA	A0100		01/30/2018	01/30/2018	No	2	1		self	3476709092	3.0	01/30/2018	0600	10712 Jamaica Ave	 	Richmond Hill	NY	11418	01/30/2018	0700	8900 Van Wyck Expwy	  	Jamaica	NY	11418	1.5	1+		No	135741093
2504293	1057	563029370	Leg	Petronila		Mejia	WA51990P	F	3476709092	09/24/1950	Queens Hospital	000	1801803903	Clean Air Car Svc & Parking (NYC)	Livery/QN-Med Appt in CMMA	A0100		01/30/2018	01/30/2018	No	2	1		self	3476709092	3.0	01/30/2018	CALL	8900 Van Wyck Expwy	 	Jamaica	NY	11418	01/30/2018	CALL	10712 Jamaica Ave	  	Richmond Hill	NY	11418	1.5			No	135741094
2504293	1058	563071460	Leg	Elizabeth		Mejia	WA51950F	F	(347) 670-9092	02/03/1985	Fuzaylova Svetlana		1003911033	Clean Air Car Svc & Parking (NYC)	Livery/QN-Med Appt out CMMA	A0100	TN	01/15/2018	01/15/2018	No	2	1		self	(347) 670-9092	12.2	01/15/2018	1030	90-36 144th Pl                A1 Ca	 home	Jamaica	NY	11435	01/15/2018	1130	4402 Francis Lewis Blvd	  main	Bayside	NY	11361	6.1	enrollee w/w cane, Additional Rider		No	135751603
2504293	1059	563071460	Leg	Elizabeth		Mejia	WA51950F	F	(347) 670-9092	02/03/1985	Fuzaylova Svetlana		1003911033	Clean Air Car Svc & Parking (NYC)	Livery/QN-Med Appt out CMMA	A0100	TN	01/15/2018	01/15/2018	No	2	1		self	(347) 670-9092	12.2	01/15/2018	Call	4402 Francis Lewis Blvd	 main	Bayside	NY	11361	01/15/2018	Call	90-36 144th Pl                A1 Ca	  home	Jamaica	NY	11435	6.1			No	135751604
2504293	1060	563071530	Leg	Petronila		Mejia	WA51990P	F	(347) 670-9092	09/24/1950	Queens Hospital	000	1801803903	Clean Air Car Svc & Parking (NYC)	Livery/QN-Med Appt in CMMA	A0100		01/19/2018	01/19/2018	No	2	1		self	(347) 670-9092	4.0	01/19/2018	0700	9036 144th Pl	 Apt 1A	Jamaica	NY	11435	01/19/2018	0800	11120 Merrick Blvd	  main	Jamaica	NY	11433	2.0	enrollee w/w cane, Additional Rider		No	135751618
2504293	1061	563071530	Leg	Petronila		Mejia	WA51990P	F	(347) 670-9092	09/24/1950	Queens Hospital	000	1801803903	Clean Air Car Svc & Parking (NYC)	Livery/QN-Med Appt in CMMA	A0100		01/19/2018	01/19/2018	No	2	1		self	(347) 670-9092	4.0	01/19/2018	Call	11120 Merrick Blvd	 main	Jamaica	NY	11433	01/19/2018	Call	9036 144th Pl	  Apt 1A	Jamaica	NY	11435	2.0			No	135751619
2504293	1062	563087310	Leg	Lisa		Carlos	ZU91547R	F	(347) 336-9141	04/01/1966	LI Jewish Medical Ctr		1982611190	Clean Air Car Svc & Parking (NYC)	Livery/QN-Med Appt out CMMA	A0100	TN	01/11/2018	01/11/2018	No	2	1		self	(347) 336-9141	14.8	01/11/2018	1530	10726 159th St	 Apt 3A	Jamaica	NY	11433	01/11/2018	1600	27005 76th Ave	  .	New Hyde Park	NY	11040	7.4	Additional Rider		No	135755652
2504293	1063	563087310	Leg	Lisa		Carlos	ZU91547R	F	(347) 336-9141	04/01/1966	LI Jewish Medical Ctr		1982611190	Clean Air Car Svc & Parking (NYC)	Livery/QN-Med Appt out CMMA	A0100	TN	01/11/2018	01/11/2018	No	2	1		self	(347) 336-9141	14.8	01/11/2018	Call	27005 76th Ave	 .	New Hyde Park	NY	11040	01/11/2018	Call	10726 159th St	  Apt 3A	Jamaica	NY	11433	7.4			No	135755653
2504293	1064	563239170	Leg	Wencheng		Wang	MS54957X	F	(516) 504-3869	04/11/1934	Hong Jia		1447419189	Clean Air Car Svc & Parking (NYC)	Livery/QN-Med Appt in CMMA	A0100		01/10/2018	01/10/2018	No	2	1		self	(516) 504-3869	.6	01/10/2018	0900	13870 Elder Ave	Apt 3D 	Flushing	NY	11355	01/10/2018	0930	13621 Franklin Ave	  main	Flushing	NY	11355	.3	Additional Rider		No	135792799
2504293	1065	563239170	Leg	Wencheng		Wang	MS54957X	F	(516) 504-3869	04/11/1934	Hong Jia		1447419189	Clean Air Car Svc & Parking (NYC)	Livery/QN-Med Appt in CMMA	A0100		01/10/2018	01/10/2018	No	2	1		self	(516) 504-3869	.6	01/10/2018	Call	13621 Franklin Ave	 main	Flushing	NY	11355	01/10/2018	Call	13870 Elder Ave	Apt 3D 	Flushing	NY	11355	.3			No	135792800
2504293	1066	563242840	Leg	Wencheng		Wang	MS54957X	F	(516) 504-3869	04/11/1934	Hong Jia		1447419189	Clean Air Car Svc & Parking (NYC)	Livery/QN-Med Appt in CMMA	A0100		01/13/2018	01/13/2018	No	2	1		self	(516) 504-3869	2.0	01/13/2018	1000	13870 Elder Ave	Apt 3D 	Flushing	NY	11355	01/13/2018	1030	13107 40th Rd	  	Flushing	NY	11354	1.0	Additional Rider		No	135793680
2504293	1067	563242840	Leg	Wencheng		Wang	MS54957X	F	(516) 504-3869	04/11/1934	Hong Jia		1447419189	Clean Air Car Svc & Parking (NYC)	Livery/QN-Med Appt in CMMA	A0100		01/13/2018	01/13/2018	No	2	1		self	(516) 504-3869	2.0	01/13/2018	Call	13107 40th Rd	 	Flushing	NY	11354	01/13/2018	Call	13870 Elder Ave	Apt 3D 	Flushing	NY	11355	1.0			No	135793682
2504293	1068	563248340	Leg	Wencheng		Wang	MS54957X	F	(516) 504-3869	04/11/1934	Hong Jia		1447419189	Clean Air Car Svc & Parking (NYC)	Livery/QN-Med Appt in CMMA	A0100		01/19/2018	01/19/2018	No	2	1		self	(516) 504-3869	1.4	01/19/2018	1000	13870 Elder Ave	Apt 3D 	Flushing	NY	11355	01/19/2018	1100	13338 41st Rd	  	Flushing	NY	11355	.7	Additional Rider		No	135795227
2504293	1069	563248340	Leg	Wencheng		Wang	MS54957X	F	(516) 504-3869	04/11/1934	Hong Jia		1447419189	Clean Air Car Svc & Parking (NYC)	Livery/QN-Med Appt in CMMA	A0100		01/19/2018	01/19/2018	No	2	1		self	(516) 504-3869	1.4	01/19/2018	Call	13338 41st Rd	 	Flushing	NY	11355	01/19/2018	Call	13870 Elder Ave	Apt 3D 	Flushing	NY	11355	.7			No	135795228
2504293	1070	563255110	Leg	Zheng		Yang	MS54967T	M	(516) 504-3869	07/19/1933	Liao Wei		1912091349	Clean Air Car Svc & Parking (NYC)	Livery/QN-Med Appt in CMMA	A0100		01/20/2018	01/20/2018	No	2	1		self	(516) 504-3869	.6	01/20/2018	1000	13870 Elder Ave	Apt 3D 	Flushing	NY	11355	01/20/2018	1030	13621 Franklin Ave	  main	Flushing	NY	11355	.3	Additional Rider		No	135796332
2504293	1071	563255110	Leg	Zheng		Yang	MS54967T	M	(516) 504-3869	07/19/1933	Liao Wei		1912091349	Clean Air Car Svc & Parking (NYC)	Livery/QN-Med Appt in CMMA	A0100		01/20/2018	01/20/2018	No	2	1		self	(516) 504-3869	.6	01/20/2018	Call	13621 Franklin Ave	 main	Flushing	NY	11355	01/20/2018	Call	13870 Elder Ave	Apt 3D 	Flushing	NY	11355	.3			No	135796335
2504293	1072	563369840	Leg	Cynthia		Durham	ZB21969Z	F	7185657004	05/23/1960	NINA KUSHNER MD	00200575	1104801091	Clean Air Car Svc & Parking (NYC)	Livery/QN-Med Appt in CMMA	A0100		01/11/2018	01/11/2018	No	2	1		self	7185657004		01/11/2018	0900	3245 108th St	 	East Elmhurst	NY	11369	01/11/2018	1000	7901 Broadway	  	Elmhurst	NY	11373	2.3			No	135824767
2504293	1073	563369840	Leg	Cynthia		Durham	ZB21969Z	F	7185657004	05/23/1960	NINA KUSHNER MD	00200575	1104801091	Clean Air Car Svc & Parking (NYC)	Livery/QN-Med Appt in CMMA	A0100		01/11/2018	01/11/2018	No	2	1		self	7185657004		01/11/2018	CALL	7901 Broadway	 	Elmhurst	NY	11373	01/11/2018	CALL	3245 108th St	  	East Elmhurst	NY	11369	2.3			No	135824768
2504293	1074	563382180	Leg	Shamima		Rahman	QT41827U	F	(929) 433-0432	08/09/1960	MAMEDOVA-BRAZ, YELENA		1538319728	Clean Air Car Svc & Parking (NYC)	Livery/QN-Med Appt out CMMA	A0100	TN	01/21/2018	01/21/2018	No	2	1		daughter	(929) 433-0432	12.2	01/21/2018	1000	19332 Foothill Ave	 front	Hollis	NY	11423	01/21/2018	1100	3907 Prince St	  front	Flushing	NY	11354	6.1	+2 additional riders, Additional Rider		No	135828582
2504293	1075	563382180	Leg	Shamima		Rahman	QT41827U	F	(929) 433-0432	08/09/1960	MAMEDOVA-BRAZ, YELENA		1538319728	Clean Air Car Svc & Parking (NYC)	Livery/QN-Med Appt out CMMA	A0100	TN	01/21/2018	01/21/2018	No	2	1		daughter	(929) 433-0432	12.2	01/21/2018	Call	3907 Prince St	 front	Flushing	NY	11354	01/21/2018	Call	19332 Foothill Ave	  front	Hollis	NY	11423	6.1			No	135828583
2504293	1076	563382790	Leg	Shamima		Rahman	QT41827U	F	(929) 433-0432	08/09/1960	MAMEDOVA-BRAZ, YELENA		1538319728	Clean Air Car Svc & Parking (NYC)	Livery/QN-Med Appt out CMMA	A0100	TN	01/20/2018	01/20/2018	No	2	1		daughter	(929) 433-0432	17.8	01/20/2018	0945	19332 Foothill Ave	 front	Hollis	NY	11423	01/20/2018	1045	4032 74th St	  front	Elmhurst	NY	11373	8.9	+2 additonal riders, Additional Rider		No	135829087
2504293	1077	563382790	Leg	Shamima		Rahman	QT41827U	F	(929) 433-0432	08/09/1960	MAMEDOVA-BRAZ, YELENA		1538319728	Clean Air Car Svc & Parking (NYC)	Livery/QN-Med Appt out CMMA	A0100	TN	01/20/2018	01/20/2018	No	2	1		daughter	(929) 433-0432	17.8	01/20/2018	Call	4032 74th St	 front	Elmhurst	NY	11373	01/20/2018	Call	19332 Foothill Ave	  front	Hollis	NY	11423	8.9			No	135829088
2504293	1078	563382790	Service	Shamima		Rahman	QT41827U	F	(929) 433-0432	08/09/1960	MAMEDOVA-BRAZ, YELENA		1538319728	Clean Air Car Svc & Parking (NYC)	Mileage-Livery in NYC	S0215		01/20/2018	01/20/2018	No	2	1																					Mileage-Livery in NYC	135829087
2504293	1079	563382790	Service	Shamima		Rahman	QT41827U	F	(929) 433-0432	08/09/1960	MAMEDOVA-BRAZ, YELENA		1538319728	Clean Air Car Svc & Parking (NYC)	Mileage-Livery in NYC	S0215		01/20/2018	01/20/2018	No	2	1																					Mileage-Livery in NYC	135829088
2504293	1080	563383630	Leg	Shamima		Rahman	QT41827U	F	(929) 433-0432	08/09/1960	MAMEDOVA-BRAZ, YELENA		1538319728	Clean Air Car Svc & Parking (NYC)	Livery/QN-Med Appt out CMMA	A0100	TN	01/19/2018	01/19/2018	No	2	1		daughter	(929) 433-0432	12.2	01/19/2018	0900	19332 Foothill Ave	 front	Hollis	NY	11423	01/19/2018	1000	3907 Prince St	  front	Flushing	NY	11354	6.1			No	135830102
2504293	1081	563383630	Leg	Shamima		Rahman	QT41827U	F	(929) 433-0432	08/09/1960	MAMEDOVA-BRAZ, YELENA		1538319728	Clean Air Car Svc & Parking (NYC)	Livery/QN-Med Appt out CMMA	A0100	TN	01/19/2018	01/19/2018	No	2	1		daughter	(929) 433-0432	12.2	01/19/2018	Call	3907 Prince St	 front	Flushing	NY	11354	01/19/2018	Call	19332 Foothill Ave	  front	Hollis	NY	11423	6.1			No	135830103
2504293	1082	563385890	Leg	Shamima		Rahman	QT41827U	F	(929) 433-0432	08/09/1960	MAMEDOVA-BRAZ, YELENA		1538319728	Clean Air Car Svc & Parking (NYC)	Livery/QN-Med Appt out CMMA	A0100	TN	01/18/2018	01/18/2018	No	2	1		daughter	(929) 433-0432	28.6	01/18/2018	0900	19332 Foothill Ave	 front	Hollis	NY	11423	01/18/2018	1000	462 1st Ave	  front	New York	NY	10016	14.3			No	135830493
2504293	1083	563385890	Leg	Shamima		Rahman	QT41827U	F	(929) 433-0432	08/09/1960	MAMEDOVA-BRAZ, YELENA		1538319728	Clean Air Car Svc & Parking (NYC)	Livery/QN-Med Appt out CMMA	A0100	TN	01/18/2018	01/18/2018	No	2	1		daughter	(929) 433-0432	28.6	01/18/2018	Call	462 1st Ave	 front	New York	NY	10016	01/18/2018	Call	19332 Foothill Ave	  front	Hollis	NY	11423	14.3			No	135830494
2504293	1084	563385890	Service	Shamima		Rahman	QT41827U	F	(929) 433-0432	08/09/1960	MAMEDOVA-BRAZ, YELENA		1538319728	Clean Air Car Svc & Parking (NYC)	Tolls-Universal	A0170	CG	01/18/2018	01/18/2018	No	2	1																					Tolls-Universal	135830493
2504293	1085	563385890	Service	Shamima		Rahman	QT41827U	F	(929) 433-0432	08/09/1960	MAMEDOVA-BRAZ, YELENA		1538319728	Clean Air Car Svc & Parking (NYC)	Livery-Manhattan Surcharge	A0100	SC	01/18/2018	01/18/2018	No	2	1																					Livery-Manhattan Surcharge	135830493
2504293	1086	563385890	Service	Shamima		Rahman	QT41827U	F	(929) 433-0432	08/09/1960	MAMEDOVA-BRAZ, YELENA		1538319728	Clean Air Car Svc & Parking (NYC)	Livery-Manhattan Surcharge	A0100	SC	01/18/2018	01/18/2018	No	2	1																					Livery-Manhattan Surcharge	135830494
2504293	1087	563385890	Service	Shamima		Rahman	QT41827U	F	(929) 433-0432	08/09/1960	MAMEDOVA-BRAZ, YELENA		1538319728	Clean Air Car Svc & Parking (NYC)	Mileage-Livery in NYC	S0215		01/18/2018	01/18/2018	No	2	1																					Mileage-Livery in NYC	135830493
2504293	1088	563385890	Service	Shamima		Rahman	QT41827U	F	(929) 433-0432	08/09/1960	MAMEDOVA-BRAZ, YELENA		1538319728	Clean Air Car Svc & Parking (NYC)	Mileage-Livery in NYC	S0215		01/18/2018	01/18/2018	No	2	1																					Mileage-Livery in NYC	135830494
2504293	1089	563389900	Leg	Shamima		Rahman	QT41827U	F	(929) 433-0432	08/09/1960	MAMEDOVA-BRAZ, YELENA		1538319728	Clean Air Car Svc & Parking (NYC)	Livery/QN-Med Appt out CMMA	A0100	TN	01/17/2018	01/17/2018	No	2	1		daughter	(929) 433-0432	17.8	01/17/2018	1015	19332 Foothill Ave	 front	Hollis	NY	11423	01/17/2018	1115	4032 74th St	  front	Elmhurst	NY	11373	8.9	+2 additional riders		No	135830841
2504293	1090	563389900	Leg	Shamima		Rahman	QT41827U	F	(929) 433-0432	08/09/1960	MAMEDOVA-BRAZ, YELENA		1538319728	Clean Air Car Svc & Parking (NYC)	Livery/QN-Med Appt out CMMA	A0100	TN	01/17/2018	01/17/2018	No	2	1		daughter	(929) 433-0432	17.8	01/17/2018	Call	4032 74th St	 front	Elmhurst	NY	11373	01/17/2018	Call	19332 Foothill Ave	  front	Hollis	NY	11423	8.9			No	135830842
2504293	1091	563389900	Service	Shamima		Rahman	QT41827U	F	(929) 433-0432	08/09/1960	MAMEDOVA-BRAZ, YELENA		1538319728	Clean Air Car Svc & Parking (NYC)	Mileage-Livery in NYC	S0215		01/17/2018	01/17/2018	No	2	1																					Mileage-Livery in NYC	135830841
2504293	1092	563389900	Service	Shamima		Rahman	QT41827U	F	(929) 433-0432	08/09/1960	MAMEDOVA-BRAZ, YELENA		1538319728	Clean Air Car Svc & Parking (NYC)	Mileage-Livery in NYC	S0215		01/17/2018	01/17/2018	No	2	1																					Mileage-Livery in NYC	135830842
2504293	1093	563390080	Leg	Fuxian		Li	QF10656N	F	(347) 237-7389	07/04/1939	Yuan Rumei		1194821603	Clean Air Car Svc & Parking (NYC)	Livery/QN-Med Appt in CMMA	A0100		01/12/2018	01/12/2018	No	2	1		s	(347) 237-7389	7.2	01/12/2018	1030	9840 64th Ave	Apt 8D 	Rego Park	NY	11374	01/12/2018	1130	3915 Main St	  	Flushing	NY	11354	3.6	Additional Rider		No	135831144
2504293	1094	563390080	Leg	Fuxian		Li	QF10656N	F	(347) 237-7389	07/04/1939	Yuan Rumei		1194821603	Clean Air Car Svc & Parking (NYC)	Livery/QN-Med Appt in CMMA	A0100		01/12/2018	01/12/2018	No	2	1		s	(347) 237-7389	7.2	01/12/2018	Call	3915 Main St	 	Flushing	NY	11354	01/12/2018	Call	9840 64th Ave	Apt 8D 	Rego Park	NY	11374	3.6			No	135831145
2504293	1095	563391730	Leg	Shamima		Rahman	QT41827U	F	(929) 433-0432	08/09/1960	MAMEDOVA-BRAZ, YELENA		1538319728	Clean Air Car Svc & Parking (NYC)	Livery/QN-Med Appt out CMMA	A0100	TN	01/16/2018	01/16/2018	No	2	1		daughter	(929) 433-0432	12.8	01/16/2018	1000	19332 Foothill Ave	 front	Hollis	NY	11423	01/16/2018	1100	9520 63rd Rd	  front	Rego Park	NY	11374	6.4	+2 additional riders, Additional Rider		No	135831138
2504293	1096	563391730	Leg	Shamima		Rahman	QT41827U	F	(929) 433-0432	08/09/1960	MAMEDOVA-BRAZ, YELENA		1538319728	Clean Air Car Svc & Parking (NYC)	Livery/QN-Med Appt out CMMA	A0100	TN	01/16/2018	01/16/2018	No	2	1		daughter	(929) 433-0432	12.8	01/16/2018	Call	9520 63rd Rd	 front	Rego Park	NY	11374	01/16/2018	Call	19332 Foothill Ave	  front	Hollis	NY	11423	6.4			No	135831139
2504293	1097	563393290	Leg	Shamima		Rahman	QT41827U	F	(929) 433-0432	08/09/1960	MAMEDOVA-BRAZ, YELENA		1538319728	Clean Air Car Svc & Parking (NYC)	Livery/QN-Med Appt out CMMA	A0100	TN	01/15/2018	01/15/2018	No	2	1		daughter	(929) 433-0432	31.6	01/15/2018	0915	19332 Foothill Ave	 front	Hollis	NY	11423	01/15/2018	1015	1470 Madison Ave	  front	New York	NY	10029	15.8	+2 additonal riders, Additional Rider		No	135831605
2504293	1098	563393290	Leg	Shamima		Rahman	QT41827U	F	(929) 433-0432	08/09/1960	MAMEDOVA-BRAZ, YELENA		1538319728	Clean Air Car Svc & Parking (NYC)	Livery/QN-Med Appt out CMMA	A0100	TN	01/15/2018	01/15/2018	No	2	1		daughter	(929) 433-0432	31.6	01/15/2018	Call	1470 Madison Ave	 front	New York	NY	10029	01/15/2018	Call	19332 Foothill Ave	  front	Hollis	NY	11423	15.8			No	135831619
2504293	1099	563393290	Service	Shamima		Rahman	QT41827U	F	(929) 433-0432	08/09/1960	MAMEDOVA-BRAZ, YELENA		1538319728	Clean Air Car Svc & Parking (NYC)	Tolls-Universal	A0170	CG	01/15/2018	01/15/2018	No	2	1																					Tolls-Universal	135831605
2504293	1100	563393290	Service	Shamima		Rahman	QT41827U	F	(929) 433-0432	08/09/1960	MAMEDOVA-BRAZ, YELENA		1538319728	Clean Air Car Svc & Parking (NYC)	Livery-Manhattan Surcharge	A0100	SC	01/15/2018	01/15/2018	No	2	1																					Livery-Manhattan Surcharge	135831605
2504293	1101	563393290	Service	Shamima		Rahman	QT41827U	F	(929) 433-0432	08/09/1960	MAMEDOVA-BRAZ, YELENA		1538319728	Clean Air Car Svc & Parking (NYC)	Livery-Manhattan Surcharge	A0100	SC	01/15/2018	01/15/2018	No	2	1																					Livery-Manhattan Surcharge	135831619
2504293	1102	563393290	Service	Shamima		Rahman	QT41827U	F	(929) 433-0432	08/09/1960	MAMEDOVA-BRAZ, YELENA		1538319728	Clean Air Car Svc & Parking (NYC)	Mileage-Livery in NYC	S0215		01/15/2018	01/15/2018	No	2	1																					Mileage-Livery in NYC	135831605
2504293	1103	563393290	Service	Shamima		Rahman	QT41827U	F	(929) 433-0432	08/09/1960	MAMEDOVA-BRAZ, YELENA		1538319728	Clean Air Car Svc & Parking (NYC)	Mileage-Livery in NYC	S0215		01/15/2018	01/15/2018	No	2	1																					Mileage-Livery in NYC	135831619
2504293	1104	563393400	Leg	Fuxian		Li	QF10656N	F	(347) 237-7389	07/04/1939	Yuan Rumei		1194821603	Clean Air Car Svc & Parking (NYC)	Livery/QN-Med Appt in CMMA	A0100		01/15/2018	01/15/2018	No	2	1		s	(347) 237-7389	5.4	01/15/2018	1030	9840 64th Ave	Apt 8D 	Rego Park	NY	11374	01/15/2018	1130	4235 Main St	  	Flushing	NY	11355	2.7	Additional Rider		No	135832191
2504293	1105	563393400	Leg	Fuxian		Li	QF10656N	F	(347) 237-7389	07/04/1939	Yuan Rumei		1194821603	Clean Air Car Svc & Parking (NYC)	Livery/QN-Med Appt in CMMA	A0100		01/15/2018	01/15/2018	No	2	1		s	(347) 237-7389	5.4	01/15/2018	Call	4235 Main St	 	Flushing	NY	11355	01/15/2018	Call	9840 64th Ave	Apt 8D 	Rego Park	NY	11374	2.7			No	135832197
2504293	1106	563395280	Leg	Shamima		Rahman	QT41827U	F	(929) 433-0432	08/09/1960	MAMEDOVA-BRAZ, YELENA		1538319728	Clean Air Car Svc & Parking (NYC)	Livery/QN-Med Appt out CMMA	A0100	TN	01/14/2018	01/14/2018	No	2	1		daughter	(929) 433-0432	12.2	01/14/2018	0930	19332 Foothill Ave	 front	Hollis	NY	11423	01/14/2018	1030	3907 Prince St	  front	Flushing	NY	11354	6.1	+2 additional rider, Additional Rider		No	135832733
2504293	1107	563395280	Leg	Shamima		Rahman	QT41827U	F	(929) 433-0432	08/09/1960	MAMEDOVA-BRAZ, YELENA		1538319728	Clean Air Car Svc & Parking (NYC)	Livery/QN-Med Appt out CMMA	A0100	TN	01/14/2018	01/14/2018	No	2	1		daughter	(929) 433-0432	12.2	01/14/2018	Call	3907 Prince St	 front	Flushing	NY	11354	01/14/2018	Call	19332 Foothill Ave	  front	Hollis	NY	11423	6.1			No	135832734
2504293	1108	563396390	Leg	Shamima		Rahman	QT41827U	F	(929) 433-0432	08/09/1960	MAMEDOVA-BRAZ, YELENA		1538319728	Clean Air Car Svc & Parking (NYC)	Livery/QN-Med Appt out CMMA	A0100	TN	01/13/2018	01/13/2018	No	2	1		daughter	(929) 433-0432	12.2	01/13/2018	0930	19332 Foothill Ave	 front	Hollis	NY	11423	01/13/2018	1030	3907 Prince St	  front	Flushing	NY	11354	6.1			No	135833324
2504293	1109	563396390	Leg	Shamima		Rahman	QT41827U	F	(929) 433-0432	08/09/1960	MAMEDOVA-BRAZ, YELENA		1538319728	Clean Air Car Svc & Parking (NYC)	Livery/QN-Med Appt out CMMA	A0100	TN	01/13/2018	01/13/2018	No	2	1		daughter	(929) 433-0432	12.2	01/13/2018	Call	3907 Prince St	 front	Flushing	NY	11354	01/13/2018	Call	19332 Foothill Ave	  front	Hollis	NY	11423	6.1			No	135833325
2504293	1110	563398140	Leg	Shamima		Rahman	QT41827U	F	(929) 433-0432	08/09/1960	MAMEDOVA-BRAZ, YELENA		1538319728	Clean Air Car Svc & Parking (NYC)	Livery/QN-Med Appt out CMMA	A0100	TN	01/12/2018	01/12/2018	No	2	1		daugher	(929) 433-0432	31.6	01/12/2018	0900	19332 Foothill Ave	 front	Hollis	NY	11423	01/12/2018	1000	1470 Madison Ave	  front	New York	NY	10029	15.8			No	135833571
2504293	1111	563398140	Leg	Shamima		Rahman	QT41827U	F	(929) 433-0432	08/09/1960	MAMEDOVA-BRAZ, YELENA		1538319728	Clean Air Car Svc & Parking (NYC)	Livery/QN-Med Appt out CMMA	A0100	TN	01/12/2018	01/12/2018	No	2	1		daugher	(929) 433-0432	31.6	01/12/2018	Call	1470 Madison Ave	 front	New York	NY	10029	01/12/2018	Call	19332 Foothill Ave	  front	Hollis	NY	11423	15.8			No	135833576
2504293	1112	563398140	Service	Shamima		Rahman	QT41827U	F	(929) 433-0432	08/09/1960	MAMEDOVA-BRAZ, YELENA		1538319728	Clean Air Car Svc & Parking (NYC)	Tolls-Universal	A0170	CG	01/12/2018	01/12/2018	No	2	1																					Tolls-Universal	135833571
2504293	1113	563398140	Service	Shamima		Rahman	QT41827U	F	(929) 433-0432	08/09/1960	MAMEDOVA-BRAZ, YELENA		1538319728	Clean Air Car Svc & Parking (NYC)	Livery-Manhattan Surcharge	A0100	SC	01/12/2018	01/12/2018	No	2	1																					Livery-Manhattan Surcharge	135833571
2504293	1114	563398140	Service	Shamima		Rahman	QT41827U	F	(929) 433-0432	08/09/1960	MAMEDOVA-BRAZ, YELENA		1538319728	Clean Air Car Svc & Parking (NYC)	Livery-Manhattan Surcharge	A0100	SC	01/12/2018	01/12/2018	No	2	1																					Livery-Manhattan Surcharge	135833576
2504293	1115	563398140	Service	Shamima		Rahman	QT41827U	F	(929) 433-0432	08/09/1960	MAMEDOVA-BRAZ, YELENA		1538319728	Clean Air Car Svc & Parking (NYC)	Mileage-Livery in NYC	S0215		01/12/2018	01/12/2018	No	2	1																					Mileage-Livery in NYC	135833571
2504293	1116	563398140	Service	Shamima		Rahman	QT41827U	F	(929) 433-0432	08/09/1960	MAMEDOVA-BRAZ, YELENA		1538319728	Clean Air Car Svc & Parking (NYC)	Mileage-Livery in NYC	S0215		01/12/2018	01/12/2018	No	2	1																					Mileage-Livery in NYC	135833576
2504293	1117	563400550	Leg	Shamima		Rahman	QT41827U	F	(929) 433-0432	08/09/1960	MAMEDOVA-BRAZ, YELENA		1538319728	Clean Air Car Svc & Parking (NYC)	Livery/QN-Med Appt in CMMA	A0100		01/11/2018	01/11/2018	No	2	1		daughter	(929) 433-0432	9.4	01/11/2018	1000	19332 Foothill Ave	 front	Hollis	NY	11423	01/11/2018	1100	27005 76th Ave	  front	New Hyde Park	NY	11040	4.7			No	135834106
2504293	1118	563400550	Leg	Shamima		Rahman	QT41827U	F	(929) 433-0432	08/09/1960	MAMEDOVA-BRAZ, YELENA		1538319728	Clean Air Car Svc & Parking (NYC)	Livery/QN-Med Appt in CMMA	A0100		01/11/2018	01/11/2018	No	2	1		daughter	(929) 433-0432	9.4	01/11/2018	Call	27005 76th Ave	 front	New Hyde Park	NY	11040	01/11/2018	Call	19332 Foothill Ave	  front	Hollis	NY	11423	4.7			No	135834107
2504293	1119	563403830	Leg	Shamima		Rahman	QT41827U	F	(929) 433-0432	08/09/1960	MAMEDOVA-BRAZ, YELENA		1538319728	Clean Air Car Svc & Parking (NYC)	Livery/QN-Med Appt out CMMA	A0100	TN	01/10/2018	01/10/2018	No	2	1		daughter	(929) 433-0432	17.8	01/10/2018	0915	19332 Foothill Ave	 front	Hollis	NY	11423	01/10/2018	1015	4032 74th St	  frong	Elmhurst	NY	11373	8.9			No	135834407
2504293	1120	563403830	Leg	Shamima		Rahman	QT41827U	F	(929) 433-0432	08/09/1960	MAMEDOVA-BRAZ, YELENA		1538319728	Clean Air Car Svc & Parking (NYC)	Livery/QN-Med Appt out CMMA	A0100	TN	01/10/2018	01/10/2018	No	2	1		daughter	(929) 433-0432	17.8	01/10/2018	Call	4032 74th St	 frong	Elmhurst	NY	11373	01/10/2018	Call	19332 Foothill Ave	  front	Hollis	NY	11423	8.9			No	135834408
2504293	1121	563403830	Service	Shamima		Rahman	QT41827U	F	(929) 433-0432	08/09/1960	MAMEDOVA-BRAZ, YELENA		1538319728	Clean Air Car Svc & Parking (NYC)	Mileage-Livery in NYC	S0215		01/10/2018	01/10/2018	No	2	1																					Mileage-Livery in NYC	135834407
2504293	1122	563403830	Service	Shamima		Rahman	QT41827U	F	(929) 433-0432	08/09/1960	MAMEDOVA-BRAZ, YELENA		1538319728	Clean Air Car Svc & Parking (NYC)	Mileage-Livery in NYC	S0215		01/10/2018	01/10/2018	No	2	1																					Mileage-Livery in NYC	135834408
2504293	1123	563405660	Leg	Shamima		Rahman	QT41827U	F	(929) 433-0432	08/09/1960	MAMEDOVA-BRAZ, YELENA		1538319728	Clean Air Car Svc & Parking (NYC)	Livery/QN-Med Appt out CMMA	A0100	TN	01/09/2018	01/09/2018	No	2	1		daugheter	(929) 433-0432	28.6	01/09/2018	1045	19332 Foothill Ave	 front	Hollis	NY	11423	01/09/2018	1145	462 1st Ave	  front	New York	NY	10016	14.3			No	135834928
2504293	1124	563405660	Leg	Shamima		Rahman	QT41827U	F	(929) 433-0432	08/09/1960	MAMEDOVA-BRAZ, YELENA		1538319728	Clean Air Car Svc & Parking (NYC)	Livery/QN-Med Appt out CMMA	A0100	TN	01/09/2018	01/09/2018	No	2	1		daugheter	(929) 433-0432	28.6	01/09/2018	Call	462 1st Ave	 front	New York	NY	10016	01/09/2018	Call	19332 Foothill Ave	  front	Hollis	NY	11423	14.3			No	135834931
2504293	1125	563405660	Service	Shamima		Rahman	QT41827U	F	(929) 433-0432	08/09/1960	MAMEDOVA-BRAZ, YELENA		1538319728	Clean Air Car Svc & Parking (NYC)	Tolls-Universal	A0170	CG	01/09/2018	01/09/2018	No	2	1																					Tolls-Universal	135834928
2504293	1126	563405660	Service	Shamima		Rahman	QT41827U	F	(929) 433-0432	08/09/1960	MAMEDOVA-BRAZ, YELENA		1538319728	Clean Air Car Svc & Parking (NYC)	Livery-Manhattan Surcharge	A0100	SC	01/09/2018	01/09/2018	No	2	1																					Livery-Manhattan Surcharge	135834928
2504293	1127	563405660	Service	Shamima		Rahman	QT41827U	F	(929) 433-0432	08/09/1960	MAMEDOVA-BRAZ, YELENA		1538319728	Clean Air Car Svc & Parking (NYC)	Livery-Manhattan Surcharge	A0100	SC	01/09/2018	01/09/2018	No	2	1																					Livery-Manhattan Surcharge	135834931
2504293	1128	563405660	Service	Shamima		Rahman	QT41827U	F	(929) 433-0432	08/09/1960	MAMEDOVA-BRAZ, YELENA		1538319728	Clean Air Car Svc & Parking (NYC)	Mileage-Livery in NYC	S0215		01/09/2018	01/09/2018	No	2	1																					Mileage-Livery in NYC	135834928
2504293	1129	563405660	Service	Shamima		Rahman	QT41827U	F	(929) 433-0432	08/09/1960	MAMEDOVA-BRAZ, YELENA		1538319728	Clean Air Car Svc & Parking (NYC)	Mileage-Livery in NYC	S0215		01/09/2018	01/09/2018	No	2	1																					Mileage-Livery in NYC	135834931
2504293	1130	563412810	Leg	Leslie		Burton	ZB53121Q	M	7187175343	09/06/1959	PAPPAS PHYSICAL MEDICINE		1538132154	Clean Air Car Svc & Parking (NYC)	Livery/QN-Med Appt in CMMA	A0100		01/18/2018	01/18/2018	No	2	1		self	7187175343	7.0	01/18/2018	1345	3553 12th St	 	Astoria	NY	11106	01/18/2018	1415	215 E 73rd St	  	New York	NY	10021	3.5			No	135837123
2504293	1131	563412810	Leg	Leslie		Burton	ZB53121Q	M	7187175343	09/06/1959	PAPPAS PHYSICAL MEDICINE		1538132154	Clean Air Car Svc & Parking (NYC)	Livery/QN-Med Appt in CMMA	A0100		01/18/2018	01/18/2018	No	2	1		self	7187175343	7.0	01/18/2018	CALL	215 E 73rd St	 	New York	NY	10021	01/18/2018	CALL	3553 12th St	  	Astoria	NY	11106	3.5			No	135837124
2504293	1132	563412810	Service	Leslie		Burton	ZB53121Q	M	7187175343	09/06/1959	PAPPAS PHYSICAL MEDICINE		1538132154	Clean Air Car Svc & Parking (NYC)	Tolls-Universal	A0170	CG	01/18/2018	01/18/2018	No	2	1																					Tolls-Universal	135837123
2504293	1133	563412810	Service	Leslie		Burton	ZB53121Q	M	7187175343	09/06/1959	PAPPAS PHYSICAL MEDICINE		1538132154	Clean Air Car Svc & Parking (NYC)	Livery-Manhattan Surcharge	A0100	SC	01/18/2018	01/18/2018	No	2	1																					Livery-Manhattan Surcharge	135837123
2504293	1134	563412810	Service	Leslie		Burton	ZB53121Q	M	7187175343	09/06/1959	PAPPAS PHYSICAL MEDICINE		1538132154	Clean Air Car Svc & Parking (NYC)	Livery-Manhattan Surcharge	A0100	SC	01/18/2018	01/18/2018	No	2	1																					Livery-Manhattan Surcharge	135837124
2504293	1135	563412840	Leg	Catherine	A	Berthel	ZK93400D	F	3474223184	12/01/1949	Brooklyn Hospital Center	000	1326046467	Clean Air Car Svc & Parking (NYC)	Livery/BK-Med Appt out CMMA	A0100	TN	01/18/2018	01/18/2018	No	1	1		self	7185740050	11.9	01/18/2018	0700	85 Palmetto St	 	Brooklyn	NY	11221	01/18/2018	0830	2601 Ocean Pkwy	  	Brooklyn	NY	11235	11.9	1 added rider		No	135837127
2504293	1136	563412840	Service	Catherine	A	Berthel	ZK93400D	F	3474223184	12/01/1949	Brooklyn Hospital Center	000	1326046467	Clean Air Car Svc & Parking (NYC)	Mileage-Livery in NYC	S0215		01/18/2018	01/18/2018	No	1	1																					Mileage-Livery in NYC	135837127
2504293	1137	563434980	Leg	City	T	King	WY24356M	M	(917) 742-7425	01/23/1930	WANG, WILLIAM		1619056223	Clean Air Car Svc & Parking (NYC)	Livery/QN-Med Appt in CMMA	A0100		01/15/2018	01/15/2018	Yes	2	1		Genina @ physical therapy	718 461 9188	3.0	01/15/2018	0900	13910 34th Ave	Apt 3J 	Flushing	NY	11354	01/15/2018	1000	4373 Union St	  Main	Flushing	NY	11355	1.5	S/O Monday and Wednesday		No	135842287
2504293	1138	563434980	Leg	City	T	King	WY24356M	M	(917) 742-7425	01/23/1930	WANG, WILLIAM		1619056223	Clean Air Car Svc & Parking (NYC)	Livery/QN-Med Appt in CMMA	A0100		01/15/2018	01/15/2018	Yes	2	1		Genina @ physical therapy	718 461 9188	3.0	01/15/2018	Call	4373 Union St	 Main	Flushing	NY	11355	01/15/2018	Call	13910 34th Ave	Apt 3J 	Flushing	NY	11354	1.5			No	135842400
2504293	1139	563435100	Leg	City	T	King	WY24356M	M	(917) 742-7425	01/23/1930	WANG, WILLIAM		1619056223	Clean Air Car Svc & Parking (NYC)	Livery/QN-Med Appt in CMMA	A0100		01/17/2018	01/17/2018	Yes	2	1		Genina @ physical therapy	718 461 9188	3.0	01/17/2018	0900	13910 34th Ave	Apt 3J 	Flushing	NY	11354	01/17/2018	1000	4373 Union St	  Main	Flushing	NY	11355	1.5	S/O Monday and Wednesday		No	135842288
2504293	1140	563435100	Leg	City	T	King	WY24356M	M	(917) 742-7425	01/23/1930	WANG, WILLIAM		1619056223	Clean Air Car Svc & Parking (NYC)	Livery/QN-Med Appt in CMMA	A0100		01/17/2018	01/17/2018	Yes	2	1		Genina @ physical therapy	718 461 9188	3.0	01/17/2018	Call	4373 Union St	 Main	Flushing	NY	11355	01/17/2018	Call	13910 34th Ave	Apt 3J 	Flushing	NY	11354	1.5			No	135842401
2504293	1141	563435200	Leg	City	T	King	WY24356M	M	(917) 742-7425	01/23/1930	WANG, WILLIAM		1619056223	Clean Air Car Svc & Parking (NYC)	Livery/QN-Med Appt in CMMA	A0100		01/22/2018	01/22/2018	Yes	2	1		Genina @ physical therapy	718 461 9188	3.0	01/22/2018	0900	13910 34th Ave	Apt 3J 	Flushing	NY	11354	01/22/2018	1000	4373 Union St	  Main	Flushing	NY	11355	1.5	S/O Monday and Wednesday		No	135842290
2504293	1142	563435200	Leg	City	T	King	WY24356M	M	(917) 742-7425	01/23/1930	WANG, WILLIAM		1619056223	Clean Air Car Svc & Parking (NYC)	Livery/QN-Med Appt in CMMA	A0100		01/22/2018	01/22/2018	Yes	2	1		Genina @ physical therapy	718 461 9188	3.0	01/22/2018	Call	4373 Union St	 Main	Flushing	NY	11355	01/22/2018	Call	13910 34th Ave	Apt 3J 	Flushing	NY	11354	1.5			No	135842402
2504293	1143	563435300	Leg	City	T	King	WY24356M	M	(917) 742-7425	01/23/1930	WANG, WILLIAM		1619056223	Clean Air Car Svc & Parking (NYC)	Livery/QN-Med Appt in CMMA	A0100		01/24/2018	01/24/2018	Yes	2	1		Genina @ physical therapy	718 461 9188	3.0	01/24/2018	0900	13910 34th Ave	Apt 3J 	Flushing	NY	11354	01/24/2018	1000	4373 Union St	  Main	Flushing	NY	11355	1.5	S/O Monday and Wednesday		No	135842292
2504293	1144	563435300	Leg	City	T	King	WY24356M	M	(917) 742-7425	01/23/1930	WANG, WILLIAM		1619056223	Clean Air Car Svc & Parking (NYC)	Livery/QN-Med Appt in CMMA	A0100		01/24/2018	01/24/2018	Yes	2	1		Genina @ physical therapy	718 461 9188	3.0	01/24/2018	Call	4373 Union St	 Main	Flushing	NY	11355	01/24/2018	Call	13910 34th Ave	Apt 3J 	Flushing	NY	11354	1.5			No	135842403
2504293	1145	563435390	Leg	City	T	King	WY24356M	M	(917) 742-7425	01/23/1930	WANG, WILLIAM		1619056223	Clean Air Car Svc & Parking (NYC)	Livery/QN-Med Appt in CMMA	A0100		01/29/2018	01/29/2018	Yes	2	1		Genina @ physical therapy	718 461 9188	3.0	01/29/2018	0900	13910 34th Ave	Apt 3J 	Flushing	NY	11354	01/29/2018	1000	4373 Union St	  Main	Flushing	NY	11355	1.5	S/O Monday and Wednesday		No	135842293
2504293	1146	563435390	Leg	City	T	King	WY24356M	M	(917) 742-7425	01/23/1930	WANG, WILLIAM		1619056223	Clean Air Car Svc & Parking (NYC)	Livery/QN-Med Appt in CMMA	A0100		01/29/2018	01/29/2018	Yes	2	1		Genina @ physical therapy	718 461 9188	3.0	01/29/2018	Call	4373 Union St	 Main	Flushing	NY	11355	01/29/2018	Call	13910 34th Ave	Apt 3J 	Flushing	NY	11354	1.5			No	135842404
2504293	1147	563435500	Leg	City	T	King	WY24356M	M	(917) 742-7425	01/23/1930	WANG, WILLIAM		1619056223	Clean Air Car Svc & Parking (NYC)	Livery/QN-Med Appt in CMMA	A0100		01/31/2018	01/31/2018	Yes	2	1		Genina @ physical therapy	718 461 9188	3.0	01/31/2018	0900	13910 34th Ave	Apt 3J 	Flushing	NY	11354	01/31/2018	1000	4373 Union St	  Main	Flushing	NY	11355	1.5	S/O Monday and Wednesday		No	135842295
2504293	1148	563435500	Leg	City	T	King	WY24356M	M	(917) 742-7425	01/23/1930	WANG, WILLIAM		1619056223	Clean Air Car Svc & Parking (NYC)	Livery/QN-Med Appt in CMMA	A0100		01/31/2018	01/31/2018	Yes	2	1		Genina @ physical therapy	718 461 9188	3.0	01/31/2018	Call	4373 Union St	 Main	Flushing	NY	11355	01/31/2018	Call	13910 34th Ave	Apt 3J 	Flushing	NY	11354	1.5			No	135842405
2504293	1149	563436550	Leg	Christina		Traboulsy	ZA17590R	F	(347) 312-6824	08/16/1960	Ringel Neal		1023112752	Clean Air Car Svc & Parking (NYC)	Livery/BK-Med Appt in CMMA	A0100		01/10/2018	01/10/2018	No	2	1		self	(347) 312-6824	3.8	01/10/2018	1100	1728 W 11th St	 	Brooklyn	NY	11223	01/10/2018	1200	1623 Kings Hwy	8639379 	Brooklyn	NY	11229	1.9	1 Additional rider(s).		No	135842970
2504293	1150	563436550	Leg	Christina		Traboulsy	ZA17590R	F	(347) 312-6824	08/16/1960	Ringel Neal		1023112752	Clean Air Car Svc & Parking (NYC)	Livery/BK-Med Appt in CMMA	A0100		01/10/2018	01/10/2018	No	2	1		self	(347) 312-6824	3.8	01/10/2018	Call	1623 Kings Hwy	8639379 	Brooklyn	NY	11229	01/10/2018	Call	1728 W 11th St	  	Brooklyn	NY	11223	1.9	1 Additional rider(s).		No	135842980
2504293	1151	563487740	Leg	Catherine		Douglas	ZQ10118K	F	7185275497	01/20/1957	GOLYAN, BIJANDO		1740222355	Clean Air Car Svc & Parking (NYC)	Livery/QN-Med Appt out CMMA	A0100	TN	01/10/2018	01/10/2018	No	2	1		self	7185275497	15.0	01/10/2018	1300	11816 218th St	 	Cambria Heights	NY	11411	01/10/2018	1400	6902 Austin St	  	Forest Hills	NY	11375	7.5	+1 rider  Cardiology		No	135854835
2504293	1152	563487740	Leg	Catherine		Douglas	ZQ10118K	F	7185275497	01/20/1957	GOLYAN, BIJANDO		1740222355	Clean Air Car Svc & Parking (NYC)	Livery/QN-Med Appt out CMMA	A0100	TN	01/10/2018	01/10/2018	No	2	1		self	7185275497	15.0	01/10/2018	CALL	6902 Austin St	 	Forest Hills	NY	11375	01/10/2018	CALL	11816 218th St	  	Cambria Heights	NY	11411	7.5			No	135854836
2504293	1153	563508720	Leg	Maria	M	Cuzo	WJ03671D	F	(347) 891-5800	01/05/1959	Queens Hospital	000	1801803903	Clean Air Car Svc & Parking (NYC)	Livery/QN-Med Appt in CMMA	A0100		01/11/2018	01/11/2018	No	2	1		self	(347) 891-5800	7.6	01/11/2018	1300	4845 46th St	Apt 3F 	Woodside	NY	11377	01/11/2018	1400	505 E 70th St	  MAIN ENTR	New York	NY	10021	3.8	+1 PLEASE CALL UPON ARRIVAL REQUESTED CAR B42:JARRY		No	135858520
2504293	1154	563508720	Leg	Maria	M	Cuzo	WJ03671D	F	(347) 891-5800	01/05/1959	Queens Hospital	000	1801803903	Clean Air Car Svc & Parking (NYC)	Livery/QN-Med Appt in CMMA	A0100		01/11/2018	01/11/2018	No	2	1		self	(347) 891-5800	7.6	01/11/2018	Call	505 E 70th St	 MAIN ENTR	New York	NY	10021	01/11/2018	Call	4845 46th St	Apt 3F 	Woodside	NY	11377	3.8			No	135858521
2504293	1155	563508720	Service	Maria	M	Cuzo	WJ03671D	F	(347) 891-5800	01/05/1959	Queens Hospital	000	1801803903	Clean Air Car Svc & Parking (NYC)	Tolls-Universal	A0170	CG	01/11/2018	01/11/2018	No	2	1																					Tolls-Universal	135858520
2504293	1156	563508720	Service	Maria	M	Cuzo	WJ03671D	F	(347) 891-5800	01/05/1959	Queens Hospital	000	1801803903	Clean Air Car Svc & Parking (NYC)	Livery-Manhattan Surcharge	A0100	SC	01/11/2018	01/11/2018	No	2	1																					Livery-Manhattan Surcharge	135858520
2504293	1157	563508720	Service	Maria	M	Cuzo	WJ03671D	F	(347) 891-5800	01/05/1959	Queens Hospital	000	1801803903	Clean Air Car Svc & Parking (NYC)	Livery-Manhattan Surcharge	A0100	SC	01/11/2018	01/11/2018	No	2	1																					Livery-Manhattan Surcharge	135858521
2504293	1158	563526940	Leg	Lai	S	Ngwong	TB96462N	F	(718) 388-1825	03/22/1951	Lwr Manhattan Dialysis Ctr	01636819	1740261874	Clean Air Car Svc & Parking (NYC)	Livery/BK-Med Appt in CMMA	A0100		01/11/2018	01/11/2018	No	2	1		daughter - eileen	646-726-2497	6.8	01/11/2018	0945	30 Montrose Ave	Apt 3T 	Brooklyn	NY	11206	01/11/2018	1045	139 Centre St	  suite 608	New York	NY	10013	3.4	+1 request a cantonese driver		No	135862434
2504293	1159	563526940	Leg	Lai	S	Ngwong	TB96462N	F	(718) 388-1825	03/22/1951	Lwr Manhattan Dialysis Ctr	01636819	1740261874	Clean Air Car Svc & Parking (NYC)	Livery/BK-Med Appt in CMMA	A0100		01/11/2018	01/11/2018	No	2	1		daughter - eileen	646-726-2497	6.8	01/11/2018	Call	139 Centre St	 suite 608	New York	NY	10013	01/11/2018	Call	30 Montrose Ave	Apt 3T 	Brooklyn	NY	11206	3.4			No	135862436
2504293	1160	563526940	Service	Lai	S	Ngwong	TB96462N	F	(718) 388-1825	03/22/1951	Lwr Manhattan Dialysis Ctr	01636819	1740261874	Clean Air Car Svc & Parking (NYC)	Tolls-Universal	A0170	CG	01/11/2018	01/11/2018	No	2	1																					Tolls-Universal	135862434
2504293	1161	563526940	Service	Lai	S	Ngwong	TB96462N	F	(718) 388-1825	03/22/1951	Lwr Manhattan Dialysis Ctr	01636819	1740261874	Clean Air Car Svc & Parking (NYC)	Livery-Manhattan Surcharge	A0100	SC	01/11/2018	01/11/2018	No	2	1																					Livery-Manhattan Surcharge	135862434
2504293	1162	563526940	Service	Lai	S	Ngwong	TB96462N	F	(718) 388-1825	03/22/1951	Lwr Manhattan Dialysis Ctr	01636819	1740261874	Clean Air Car Svc & Parking (NYC)	Livery-Manhattan Surcharge	A0100	SC	01/11/2018	01/11/2018	No	2	1																					Livery-Manhattan Surcharge	135862436
2504293	1163	563610950	Leg	Maylene	A	Hawkinslingo	PT03668K	F	(631) 336-4112	09/14/2009	Queens Hospital	000	1801803903	Clean Air Car Svc & Parking (NYC)	Livery/MN-Med Appt out CMMA	A0100	TN	01/09/2018	01/09/2018	No	2	1		Unique/Mother	(631) 336-4112	41.0	01/09/2018	1500	25 Pine St	 	New York	NY	10005	01/09/2018	1600	1983 Marcus Ave	  	New Hyde Park	NY	11042	20.5	1 Additional rider(s). 1 Additional rider(s). Additional Rider		No	135882986
2504293	1164	563610950	Leg	Maylene	A	Hawkinslingo	PT03668K	F	(631) 336-4112	09/14/2009	Queens Hospital	000	1801803903	Clean Air Car Svc & Parking (NYC)	Livery/MN-Med Appt out CMMA	A0100	TN	01/09/2018	01/09/2018	No	2	1		Unique/Mother	(631) 336-4112	41.0	01/09/2018	Call	1983 Marcus Ave	 	New Hyde Park	NY	11042	01/09/2018	Call	25 Pine St	  	New York	NY	10005	20.5	1 Additional rider(s). 1 Additional rider(s). Additional Rider		No	135882987
2504293	1165	563610950	Service	Maylene	A	Hawkinslingo	PT03668K	F	(631) 336-4112	09/14/2009	Queens Hospital	000	1801803903	Clean Air Car Svc & Parking (NYC)	Tolls-Universal	A0170	CG	01/09/2018	01/09/2018	No	2	1																					Tolls-Universal	135882986
2504293	1166	563610950	Service	Maylene	A	Hawkinslingo	PT03668K	F	(631) 336-4112	09/14/2009	Queens Hospital	000	1801803903	Clean Air Car Svc & Parking (NYC)	Livery-Manhattan Surcharge	A0100	SC	01/09/2018	01/09/2018	No	2	1																					Livery-Manhattan Surcharge	135882986
2504293	1167	563610950	Service	Maylene	A	Hawkinslingo	PT03668K	F	(631) 336-4112	09/14/2009	Queens Hospital	000	1801803903	Clean Air Car Svc & Parking (NYC)	Livery-Manhattan Surcharge	A0100	SC	01/09/2018	01/09/2018	No	2	1																					Livery-Manhattan Surcharge	135882987
2504293	1168	563610950	Service	Maylene	A	Hawkinslingo	PT03668K	F	(631) 336-4112	09/14/2009	Queens Hospital	000	1801803903	Clean Air Car Svc & Parking (NYC)	Mileage-Livery out of NYC	S0215	TN	01/09/2018	01/09/2018	No	2	1																					Mileage-Livery out of NYC	135882986
2504293	1169	563610950	Service	Maylene	A	Hawkinslingo	PT03668K	F	(631) 336-4112	09/14/2009	Queens Hospital	000	1801803903	Clean Air Car Svc & Parking (NYC)	Mileage-Livery out of NYC	S0215	TN	01/09/2018	01/09/2018	No	2	1																					Mileage-Livery out of NYC	135882987
2504293	1170	563618870	Leg	Cicely	I	Mclean	PF74602D	F	(202) 701-9441	09/05/1945	NY Presbyterian Hospital		1952332801	Clean Air Car Svc & Parking (NYC)	Livery/BK-Med Appt out CMMA	A0100	TN	01/10/2018	01/10/2018	No	2	1		self	(202) 701-9441	38.8	01/10/2018	1100	558 shepard ave	home 	Brooklyn	NY	11208	01/10/2018	1200	901 Stewart Ave	  main	Garden City	NY	11530	19.4			No	135885748
2504293	1171	563618870	Leg	Cicely	I	Mclean	PF74602D	F	(202) 701-9441	09/05/1945	NY Presbyterian Hospital		1952332801	Clean Air Car Svc & Parking (NYC)	Livery/BK-Med Appt out CMMA	A0100	TN	01/10/2018	01/10/2018	No	2	1		self	(202) 701-9441	38.8	01/10/2018	Call	901 Stewart Ave	 main	Garden City	NY	11530	01/10/2018	Call	558 shepard ave	home 	Brooklyn	NY	11208	19.4			No	135885751
2504293	1172	563618870	Service	Cicely	I	Mclean	PF74602D	F	(202) 701-9441	09/05/1945	NY Presbyterian Hospital		1952332801	Clean Air Car Svc & Parking (NYC)	Tolls-Universal	A0170	CG	01/10/2018	01/10/2018	No	2	1																					Tolls-Universal	135885748
2504293	1173	563618870	Service	Cicely	I	Mclean	PF74602D	F	(202) 701-9441	09/05/1945	NY Presbyterian Hospital		1952332801	Clean Air Car Svc & Parking (NYC)	Mileage-Livery out of NYC	S0215	TN	01/10/2018	01/10/2018	No	2	1																					Mileage-Livery out of NYC	135885748
2504293	1174	563618870	Service	Cicely	I	Mclean	PF74602D	F	(202) 701-9441	09/05/1945	NY Presbyterian Hospital		1952332801	Clean Air Car Svc & Parking (NYC)	Mileage-Livery out of NYC	S0215	TN	01/10/2018	01/10/2018	No	2	1																					Mileage-Livery out of NYC	135885751
2504293	1175	563627680	Leg	Cicely	I	Mclean	PF74602D	F	(202) 701-9441	09/05/1945	NY Presbyterian Hospital		1952332801	Clean Air Car Svc & Parking (NYC)	Livery/BK-Med Appt out CMMA	A0100	TN	01/12/2018	01/12/2018	No	2	1		self	(202) 701-9441	38.8	01/12/2018	1100	558 shepard ave	home 	Brooklyn	NY	11208	01/12/2018	1200	901 Stewart Ave	  main	Garden City	NY	11530	19.4			No	135888119
2504293	1176	563627680	Leg	Cicely	I	Mclean	PF74602D	F	(202) 701-9441	09/05/1945	NY Presbyterian Hospital		1952332801	Clean Air Car Svc & Parking (NYC)	Livery/BK-Med Appt out CMMA	A0100	TN	01/12/2018	01/12/2018	No	2	1		self	(202) 701-9441	38.8	01/12/2018	Call	901 Stewart Ave	 main	Garden City	NY	11530	01/12/2018	Call	558 shepard ave	home 	Brooklyn	NY	11208	19.4			No	135888127
2504293	1177	563627680	Service	Cicely	I	Mclean	PF74602D	F	(202) 701-9441	09/05/1945	NY Presbyterian Hospital		1952332801	Clean Air Car Svc & Parking (NYC)	Tolls-Universal	A0170	CG	01/12/2018	01/12/2018	No	2	1																					Tolls-Universal	135888119
2504293	1178	563627680	Service	Cicely	I	Mclean	PF74602D	F	(202) 701-9441	09/05/1945	NY Presbyterian Hospital		1952332801	Clean Air Car Svc & Parking (NYC)	Mileage-Livery out of NYC	S0215	TN	01/12/2018	01/12/2018	No	2	1																					Mileage-Livery out of NYC	135888119
2504293	1179	563627680	Service	Cicely	I	Mclean	PF74602D	F	(202) 701-9441	09/05/1945	NY Presbyterian Hospital		1952332801	Clean Air Car Svc & Parking (NYC)	Mileage-Livery out of NYC	S0215	TN	01/12/2018	01/12/2018	No	2	1																					Mileage-Livery out of NYC	135888127
2504293	1180	563661500	Leg	Reshma		Maharaj	KD54352J	F	(347) 500-4614	11/06/1980	Mcdonald Annmarie		1003976341	Clean Air Car Svc & Parking (NYC)	Livery/QN-Med Appt out CMMA	A0100	TN	01/14/2018	01/14/2018	No	2	1		self	(347) 500-4614	22.6	01/14/2018	0900	10459 121st St	 home	South Richmond Hill	NY	11419	01/14/2018	1000	185 Canal St	  main	New York	NY	10013	11.3			No	135894370
2504293	1181	563661500	Leg	Reshma		Maharaj	KD54352J	F	(347) 500-4614	11/06/1980	Mcdonald Annmarie		1003976341	Clean Air Car Svc & Parking (NYC)	Livery/QN-Med Appt out CMMA	A0100	TN	01/14/2018	01/14/2018	No	2	1		self	(347) 500-4614	22.6	01/14/2018	Call	185 Canal St	 main	New York	NY	10013	01/14/2018	Call	10459 121st St	  home	South Richmond Hill	NY	11419	11.3			No	135894371
2504293	1182	563661500	Service	Reshma		Maharaj	KD54352J	F	(347) 500-4614	11/06/1980	Mcdonald Annmarie		1003976341	Clean Air Car Svc & Parking (NYC)	Mileage-Livery in NYC	S0215		01/14/2018	01/14/2018	No	2	1																					Mileage-Livery in NYC	135894370
2504293	1183	563661500	Service	Reshma		Maharaj	KD54352J	F	(347) 500-4614	11/06/1980	Mcdonald Annmarie		1003976341	Clean Air Car Svc & Parking (NYC)	Mileage-Livery in NYC	S0215		01/14/2018	01/14/2018	No	2	1																					Mileage-Livery in NYC	135894371
2504293	1184	563661500	Service	Reshma		Maharaj	KD54352J	F	(347) 500-4614	11/06/1980	Mcdonald Annmarie		1003976341	Clean Air Car Svc & Parking (NYC)	Tolls-Universal	A0170	CG	01/14/2018	01/14/2018	No	2	1																					Tolls-Universal	135894370
2504293	1185	563661500	Service	Reshma		Maharaj	KD54352J	F	(347) 500-4614	11/06/1980	Mcdonald Annmarie		1003976341	Clean Air Car Svc & Parking (NYC)	Livery-Manhattan Surcharge	A0100	SC	01/14/2018	01/14/2018	No	2	1																					Livery-Manhattan Surcharge	135894370
2504293	1186	563661500	Service	Reshma		Maharaj	KD54352J	F	(347) 500-4614	11/06/1980	Mcdonald Annmarie		1003976341	Clean Air Car Svc & Parking (NYC)	Livery-Manhattan Surcharge	A0100	SC	01/14/2018	01/14/2018	No	2	1																					Livery-Manhattan Surcharge	135894371
2504293	1187	563668790	Leg	Reshma		Maharaj	KD54352J	F	(347) 500-4614	11/06/1980	Mcdonald Annmarie		1003976341	Clean Air Car Svc & Parking (NYC)	Livery/QN-Med Appt out CMMA	A0100	TN	01/15/2018	01/15/2018	Yes	2	1		self	(347) 500-4614	22.6	01/15/2018	0900	10459 121st St	 home	South Richmond Hill	NY	11419	01/15/2018	1000	185 Canal St	  main	New York	NY	10013	11.3	Short s/o mon,wed and sun		No	135895714
2504293	1188	563668790	Leg	Reshma		Maharaj	KD54352J	F	(347) 500-4614	11/06/1980	Mcdonald Annmarie		1003976341	Clean Air Car Svc & Parking (NYC)	Livery/QN-Med Appt out CMMA	A0100	TN	01/15/2018	01/15/2018	Yes	2	1		self	(347) 500-4614	22.6	01/15/2018	Call	185 Canal St	 main	New York	NY	10013	01/15/2018	Call	10459 121st St	  home	South Richmond Hill	NY	11419	11.3			No	135895715
2504293	1189	563668790	Service	Reshma		Maharaj	KD54352J	F	(347) 500-4614	11/06/1980	Mcdonald Annmarie		1003976341	Clean Air Car Svc & Parking (NYC)	Mileage-Livery in NYC	S0215		01/15/2018	01/15/2018	Yes	2	1																					Mileage-Livery in NYC	135895714
2504293	1190	563668790	Service	Reshma		Maharaj	KD54352J	F	(347) 500-4614	11/06/1980	Mcdonald Annmarie		1003976341	Clean Air Car Svc & Parking (NYC)	Mileage-Livery in NYC	S0215		01/15/2018	01/15/2018	Yes	2	1																					Mileage-Livery in NYC	135895715
2504293	1191	563668790	Service	Reshma		Maharaj	KD54352J	F	(347) 500-4614	11/06/1980	Mcdonald Annmarie		1003976341	Clean Air Car Svc & Parking (NYC)	Tolls-Universal	A0170	CG	01/15/2018	01/15/2018	Yes	2	1																					Tolls-Universal	135895714
2504293	1192	563668790	Service	Reshma		Maharaj	KD54352J	F	(347) 500-4614	11/06/1980	Mcdonald Annmarie		1003976341	Clean Air Car Svc & Parking (NYC)	Livery-Manhattan Surcharge	A0100	SC	01/15/2018	01/15/2018	Yes	2	1																					Livery-Manhattan Surcharge	135895714
2504293	1193	563668790	Service	Reshma		Maharaj	KD54352J	F	(347) 500-4614	11/06/1980	Mcdonald Annmarie		1003976341	Clean Air Car Svc & Parking (NYC)	Livery-Manhattan Surcharge	A0100	SC	01/15/2018	01/15/2018	Yes	2	1																					Livery-Manhattan Surcharge	135895715
2504293	1194	563672550	Leg	Reshma		Maharaj	KD54352J	F	(347) 500-4614	11/06/1980	Mcdonald Annmarie		1003976341	Clean Air Car Svc & Parking (NYC)	Livery/QN-Med Appt out CMMA	A0100	TN	01/17/2018	01/17/2018	Yes	3	1		self	(347) 500-4614	39.2	01/17/2018	1400	185 Canal St	 main	New York	NY	10013	01/17/2018	Call	10459 121st St	  fron	South Richmond Hill	NY	11419	11.3			No	135895745
2504293	1195	563672550	Leg	Reshma		Maharaj	KD54352J	F	(347) 500-4614	11/06/1980	Mcdonald Annmarie		1003976341	Clean Air Car Svc & Parking (NYC)	Livery/QN-Med Appt out CMMA	A0100	TN	01/17/2018	01/17/2018	Yes	3	1		self	(347) 500-4614	39.2	01/17/2018	0630	10459 121st St	 	South Richmond Hill	NY	11419	01/17/2018	0730	622 W 168th St	  	New York	NY	10032	17.6			No	137057537
2504293	1196	563672550	Leg	Reshma		Maharaj	KD54352J	F	(347) 500-4614	11/06/1980	Mcdonald Annmarie		1003976341	Clean Air Car Svc & Parking (NYC)	Livery/QN-Med Appt out CMMA	A0100	TN	01/17/2018	01/17/2018	Yes	3	1		self	(347) 500-4614	39.2	01/17/2018	0830	622 W 168th St	 	New York	NY	10032	01/17/2018	Call	185 Canal St	  	New York	NY	10013	10.3			No	137057538
2504293	1197	563672550	Service	Reshma		Maharaj	KD54352J	F	(347) 500-4614	11/06/1980	Mcdonald Annmarie		1003976341	Clean Air Car Svc & Parking (NYC)	Mileage-Livery in NYC	S0215		01/17/2018	01/17/2018	Yes	3	1																					Mileage-Livery in NYC	135895745
2504293	1198	563672550	Service	Reshma		Maharaj	KD54352J	F	(347) 500-4614	11/06/1980	Mcdonald Annmarie		1003976341	Clean Air Car Svc & Parking (NYC)	Livery-Manhattan Surcharge	A0100	SC	01/17/2018	01/17/2018	Yes	3	1																					Livery-Manhattan Surcharge	135895745
2504293	1199	563672550	Service	Reshma		Maharaj	KD54352J	F	(347) 500-4614	11/06/1980	Mcdonald Annmarie		1003976341	Clean Air Car Svc & Parking (NYC)	Mileage-Livery in NYC	S0215		01/17/2018	01/17/2018	Yes	3	1																					Mileage-Livery in NYC	137057537
2504293	1200	563672550	Service	Reshma		Maharaj	KD54352J	F	(347) 500-4614	11/06/1980	Mcdonald Annmarie		1003976341	Clean Air Car Svc & Parking (NYC)	Mileage-Livery in NYC	S0215		01/17/2018	01/17/2018	Yes	3	1																					Mileage-Livery in NYC	137057538
2504293	1201	563672550	Service	Reshma		Maharaj	KD54352J	F	(347) 500-4614	11/06/1980	Mcdonald Annmarie		1003976341	Clean Air Car Svc & Parking (NYC)	Livery-Manhattan Surcharge	A0100	SC	01/17/2018	01/17/2018	Yes	3	1																					Livery-Manhattan Surcharge	137057538
2504293	1202	563672550	Service	Reshma		Maharaj	KD54352J	F	(347) 500-4614	11/06/1980	Mcdonald Annmarie		1003976341	Clean Air Car Svc & Parking (NYC)	Tolls-Universal	A0170	CG	01/17/2018	01/17/2018	Yes	3	1																					Tolls-Universal	135895745
2504293	1203	563672700	Leg	Reshma		Maharaj	KD54352J	F	(347) 500-4614	11/06/1980	Mcdonald Annmarie		1003976341	Clean Air Car Svc & Parking (NYC)	Livery/QN-Med Appt out CMMA	A0100	TN	01/29/2018	01/29/2018	Yes	4	1		self	(347) 500-4614	57.8	01/29/2018	0900	10459 121st St	 home	South Richmond Hill	NY	11419	01/29/2018	1000	185 Canal St	  main	New York	NY	10013	11.3	Short s/o mon,wed and sun		No	135895756
2504293	1204	563672700	Leg	Reshma		Maharaj	KD54352J	F	(347) 500-4614	11/06/1980	Mcdonald Annmarie		1003976341	Clean Air Car Svc & Parking (NYC)	Livery/QN-Med Appt out CMMA	A0100	TN	01/29/2018	01/29/2018	Yes	4	1		self	(347) 500-4614	57.8	01/29/2018	1600	10459 121st St	 	South Richmond Hill	NY	11419	01/29/2018	Call	622 W 168th St	  	New York	NY	10032	17.6			No	135895757
2504293	1205	563672700	Leg	Reshma		Maharaj	KD54352J	F	(347) 500-4614	11/06/1980	Mcdonald Annmarie		1003976341	Clean Air Car Svc & Parking (NYC)	Livery/QN-Med Appt out CMMA	A0100	TN	01/29/2018	01/29/2018	Yes	4	1		self	(347) 500-4614	57.8	01/29/2018	Call	622 W 168th St	 	New York	NY	10032	01/29/2018	Call	10459 121st St	  	South Richmond Hill	NY	11419	17.6			No	138657338
2504293	1206	563672700	Leg	Reshma		Maharaj	KD54352J	F	(347) 500-4614	11/06/1980	Mcdonald Annmarie		1003976341	Clean Air Car Svc & Parking (NYC)	Livery/QN-Med Appt out CMMA	A0100	TN	01/29/2018	01/29/2018	Yes	4	1		self	(347) 500-4614	57.8	01/29/2018	call	185 Canal St	 	New York	NY	10013	01/29/2018	Call	10459 121st St	  	South Richmond Hill	NY	11419	11.3			No	140899426
2504293	1207	563672700	Service	Reshma		Maharaj	KD54352J	F	(347) 500-4614	11/06/1980	Mcdonald Annmarie		1003976341	Clean Air Car Svc & Parking (NYC)	Mileage-Livery in NYC	S0215		01/29/2018	01/29/2018	Yes	4	1																					Mileage-Livery in NYC	135895756
2504293	1208	563672700	Service	Reshma		Maharaj	KD54352J	F	(347) 500-4614	11/06/1980	Mcdonald Annmarie		1003976341	Clean Air Car Svc & Parking (NYC)	Mileage-Livery in NYC	S0215		01/29/2018	01/29/2018	Yes	4	1																					Mileage-Livery in NYC	135895757
2504293	1209	563672700	Service	Reshma		Maharaj	KD54352J	F	(347) 500-4614	11/06/1980	Mcdonald Annmarie		1003976341	Clean Air Car Svc & Parking (NYC)	Tolls-Universal	A0170	CG	01/29/2018	01/29/2018	Yes	4	1																					Tolls-Universal	135895756
2504293	1210	563672700	Service	Reshma		Maharaj	KD54352J	F	(347) 500-4614	11/06/1980	Mcdonald Annmarie		1003976341	Clean Air Car Svc & Parking (NYC)	Livery-Manhattan Surcharge	A0100	SC	01/29/2018	01/29/2018	Yes	4	1																					Livery-Manhattan Surcharge	135895756
2504293	1211	563672700	Service	Reshma		Maharaj	KD54352J	F	(347) 500-4614	11/06/1980	Mcdonald Annmarie		1003976341	Clean Air Car Svc & Parking (NYC)	Livery-Manhattan Surcharge	A0100	SC	01/29/2018	01/29/2018	Yes	4	1																					Livery-Manhattan Surcharge	135895757
2504293	1212	563672700	Service	Reshma		Maharaj	KD54352J	F	(347) 500-4614	11/06/1980	Mcdonald Annmarie		1003976341	Clean Air Car Svc & Parking (NYC)	Mileage-Livery in NYC	S0215		01/29/2018	01/29/2018	Yes	4	1																					Mileage-Livery in NYC	138657338
2504293	1213	563672700	Service	Reshma		Maharaj	KD54352J	F	(347) 500-4614	11/06/1980	Mcdonald Annmarie		1003976341	Clean Air Car Svc & Parking (NYC)	Mileage-Livery in NYC	S0215		01/29/2018	01/29/2018	Yes	4	1																					Mileage-Livery in NYC	140899426
2504293	1214	563672700	Service	Reshma		Maharaj	KD54352J	F	(347) 500-4614	11/06/1980	Mcdonald Annmarie		1003976341	Clean Air Car Svc & Parking (NYC)	Livery-Manhattan Surcharge	A0100	SC	01/29/2018	01/29/2018	Yes	4	1																					Livery-Manhattan Surcharge	140899426
2504293	1215	563739360	Leg	Anne	P	Goldstein	VC08846H	F	(347) 542-9808	10/21/1951	Yee Walter		1326076613	Clean Air Car Svc & Parking (NYC)	Livery/QN-Med Appt in CMMA	A0100		01/11/2018	01/11/2018	No	2	1		self	(347) 542-9808	1.4	01/11/2018	1040	140 40 Sanford Ave	rm 201 	Flushing	NY	11355	01/11/2018	1140	14601 45th Ave	  main	Flushing	NY	11355	.7	Additional Rider		No	135913876
2504293	1216	563739360	Leg	Anne	P	Goldstein	VC08846H	F	(347) 542-9808	10/21/1951	Yee Walter		1326076613	Clean Air Car Svc & Parking (NYC)	Livery/QN-Med Appt in CMMA	A0100		01/11/2018	01/11/2018	No	2	1		self	(347) 542-9808	1.4	01/11/2018	Call	14601 45th Ave	 main	Flushing	NY	11355	01/11/2018	Call	140 40 Sanford Ave	rm 201 	Flushing	NY	11355	.7			No	135913883
2504293	1217	563827480	Leg	Li		Shu	RH99515C	M	(917) 584-0803	07/15/1935	Wu, Qiong		1992763916	Clean Air Car Svc & Parking (NYC)	Livery/QN-Med Appt in CMMA	A0100		01/11/2018	01/11/2018	No	2	1		self	(917) 584-0803	5.8	01/11/2018	0800	11455 Dalian Ct	# 1FL 	College Point	NY	11356	01/11/2018	0830	13527 38th Ave	  main	Flushing	NY	11354	2.9			No	135934106
2504293	1218	563827480	Leg	Li		Shu	RH99515C	M	(917) 584-0803	07/15/1935	Wu, Qiong		1992763916	Clean Air Car Svc & Parking (NYC)	Livery/QN-Med Appt in CMMA	A0100		01/11/2018	01/11/2018	No	2	1		self	(917) 584-0803	5.8	01/11/2018	Call	13527 38th Ave	 main	Flushing	NY	11354	01/11/2018	Call	11455 Dalian Ct	# 1FL 	College Point	NY	11356	2.9			No	135934107
2504293	1219	563885640	Leg	Leslie		Burton	ZB53121Q	M	(718) 717-5343	09/06/1959	PAPPAS PHYSICAL MEDICINE		1538132154	Clean Air Car Svc & Parking (NYC)	Livery/QN-Med Appt in CMMA	A0100		01/12/2018	01/12/2018	No	2	1		self	(718) 717-5343	1.4	01/12/2018	1515	3553 12th St	Apt 2H 	Astoria	NY	11106	01/12/2018	1530	3004 36th Ave	  main	Astoria	NY	11106	.7			No	135948001
2504293	1220	563885640	Leg	Leslie		Burton	ZB53121Q	M	(718) 717-5343	09/06/1959	PAPPAS PHYSICAL MEDICINE		1538132154	Clean Air Car Svc & Parking (NYC)	Livery/QN-Med Appt in CMMA	A0100		01/12/2018	01/12/2018	No	2	1		self	(718) 717-5343	1.4	01/12/2018	Call	3004 36th Ave	 main	Astoria	NY	11106	01/12/2018	Call	3553 12th St	Apt 2H 	Astoria	NY	11106	.7			No	135948002
2504293	1221	563886620	Leg	Leslie		Burton	ZB53121Q	M	(718) 717-5343	09/06/1959	PAPPAS PHYSICAL MEDICINE		1538132154	Clean Air Car Svc & Parking (NYC)	Livery/QN-Med Appt in CMMA	A0100		01/15/2018	01/15/2018	No	2	1		self	(718) 717-5343	2.6	01/15/2018	1500	3553 12th St	Apt 2H 	Astoria	NY	11106	01/15/2018	1530	3135 31st St	  main	Astoria	NY	11106	1.3			No	135949007
2504293	1222	563886620	Leg	Leslie		Burton	ZB53121Q	M	(718) 717-5343	09/06/1959	PAPPAS PHYSICAL MEDICINE		1538132154	Clean Air Car Svc & Parking (NYC)	Livery/QN-Med Appt in CMMA	A0100		01/15/2018	01/15/2018	No	2	1		self	(718) 717-5343	2.6	01/15/2018	Call	3135 31st St	 main	Astoria	NY	11106	01/15/2018	Call	3553 12th St	Apt 2H 	Astoria	NY	11106	1.3			No	135949008
2504293	1223	563972710	Leg	Patricia		Watkins	KD28434Q	F	7182259158	01/12/1958	Forde Sandra		1356397681	Clean Air Car Svc & Parking (NYC)	Livery/QN-Med Appt out CMMA	A0100	TN	01/08/2018	01/08/2018	No	4	1		self	7182259158	17.0	01/08/2018	0630	4567 Clearview Expy	 	Bayside	NY	11361	01/08/2018	0730	450 Lakeville Rd	  	New Hyde Park	NY	11042	5.4			No	135969783
2504293	1224	563972710	Leg	Patricia		Watkins	KD28434Q	F	7182259158	01/12/1958	Forde Sandra		1356397681	Clean Air Car Svc & Parking (NYC)	Livery/QN-Med Appt out CMMA	A0100	TN	01/08/2018	01/08/2018	No	4	1		self	7182259158	17.0	01/08/2018	CALL	450 Lakeville Rd	 	New Hyde Park	NY	11042	01/08/2018	CALL	4567 Clearview Expy	  	Bayside	NY	11361	5.4			No	135969784
2504293	1225	563972710	Leg	Patricia		Watkins	KD28434Q	F	7182259158	01/12/1958	Forde Sandra		1356397681	Clean Air Car Svc & Parking (NYC)	Livery/QN-Med Appt out CMMA	A0100	TN	01/08/2018	01/08/2018	No	4	1		self	7182259158	17.0	01/08/2018	1430	4567 Clearview Expy	 mn	Bayside	NY	11361	01/08/2018	1530	14015 Sanford Ave	  mn	Flushing	NY	11355	3.1			No	135969785
2504293	1226	563972710	Leg	Patricia		Watkins	KD28434Q	F	7182259158	01/12/1958	Forde Sandra		1356397681	Clean Air Car Svc & Parking (NYC)	Livery/QN-Med Appt out CMMA	A0100	TN	01/08/2018	01/08/2018	No	4	1		self	7182259158	17.0	01/08/2018	call	14015 Sanford Ave	 	Flushing	NY	11355	01/08/2018	Call	4567 Clearview Expy	  	Bayside	NY	11361	3.1			No	139137707
2504293	1227	563972710	Service	Patricia		Watkins	KD28434Q	F	7182259158	01/12/1958	Forde Sandra		1356397681	Clean Air Car Svc & Parking (NYC)	Tolls-Universal	A0170	CG	01/08/2018	01/08/2018	No	4	1																					Tolls-Universal	135969783
2504293	1228	563972710	Service	Patricia		Watkins	KD28434Q	F	7182259158	01/12/1958	Forde Sandra		1356397681	Clean Air Car Svc & Parking (NYC)	Mileage-Livery out of NYC	S0215	TN	01/08/2018	01/08/2018	No	4	1																					Mileage-Livery out of NYC	135969783
2504293	1229	563972710	Service	Patricia		Watkins	KD28434Q	F	7182259158	01/12/1958	Forde Sandra		1356397681	Clean Air Car Svc & Parking (NYC)	Mileage-Livery out of NYC	S0215	TN	01/08/2018	01/08/2018	No	4	1																					Mileage-Livery out of NYC	135969784
2504293	1230	563978930	Leg	Hongyi		Cai	PN23626K	M	(917) 655-1992	02/27/2000	Aygun Banu	000	1235218991	Clean Air Car Svc & Parking (NYC)	Livery/QN-Med Appt out CMMA	A0100	TN	01/11/2018	01/11/2018	No	2	1		Hongyi Cai (Recipient-NYC)	(917) 655-1992	15.2	01/11/2018	0700	146-42 59th Ave	2Fl 	Flushing	NY	11355	01/11/2018	0800	26901 76th Ave	front 	New Hyde Park	NY	11040	7.6			No	135971458
2504293	1231	563978930	Leg	Hongyi		Cai	PN23626K	M	(917) 655-1992	02/27/2000	Aygun Banu	000	1235218991	Clean Air Car Svc & Parking (NYC)	Livery/QN-Med Appt out CMMA	A0100	TN	01/11/2018	01/11/2018	No	2	1		Hongyi Cai (Recipient-NYC)	(917) 655-1992	15.2	01/11/2018	CALL	26901 76th Ave	front 	New Hyde Park	NY	11040	01/11/2018	CALL	146-42 59th Ave	2Fl 	Flushing	NY	11355	7.6			No	135971459
2504293	1232	563998850	Leg	Stephanie		Chauncey	ZZ83521Q	F	(347) 488-5654	09/26/1960	Ramanathan Deepak		1306261086	Clean Air Car Svc & Parking (NYC)	Livery/QN-Med Appt in CMMA	A0100		01/10/2018	01/10/2018	No	2	1		self	(347) 488-5654	5.4	01/10/2018	1230	4102 12th St	Apt 5C 	Long Island City	NY	11101	01/10/2018	1330	520 E 70th St	  main	New York	NY	10021	2.7	Additional Rider		No	135975714
2504293	1233	563998850	Leg	Stephanie		Chauncey	ZZ83521Q	F	(347) 488-5654	09/26/1960	Ramanathan Deepak		1306261086	Clean Air Car Svc & Parking (NYC)	Livery/QN-Med Appt in CMMA	A0100		01/10/2018	01/10/2018	No	2	1		self	(347) 488-5654	5.4	01/10/2018	1430	520 E 70th St	 main	New York	NY	10021	01/10/2018	Call	4102 12th St	Apt 5C 	Long Island City	NY	11101	2.7			No	135975715
2504293	1234	563998850	Service	Stephanie		Chauncey	ZZ83521Q	F	(347) 488-5654	09/26/1960	Ramanathan Deepak		1306261086	Clean Air Car Svc & Parking (NYC)	Tolls-Universal	A0170	CG	01/10/2018	01/10/2018	No	2	1																					Tolls-Universal	135975714
2504293	1235	564001790	Leg	Stephanie		Chauncey	ZZ83521Q	F	(347) 488-5654	09/26/1960	Ramanathan Deepak		1306261086	Clean Air Car Svc & Parking (NYC)	Livery/QN-Med Appt out CMMA	A0100	TN	01/09/2018	01/09/2018	No	2	1		self	(347) 488-5654	21.0	01/09/2018	1200	4102 12th St	Apt 5C 	Long Island City	NY	11101	01/09/2018	1300	1825 Eastchester Rd	  main	Bronx	NY	10461	10.5	Additional Rider		No	135976107
2504293	1236	564001790	Leg	Stephanie		Chauncey	ZZ83521Q	F	(347) 488-5654	09/26/1960	Ramanathan Deepak		1306261086	Clean Air Car Svc & Parking (NYC)	Livery/QN-Med Appt out CMMA	A0100	TN	01/09/2018	01/09/2018	No	2	1		self	(347) 488-5654	21.0	01/09/2018	1530	1825 Eastchester Rd	 main	Bronx	NY	10461	01/09/2018	1630	4102 12th St	Apt 5C 	Long Island City	NY	11101	10.5			No	135976108
2504293	1237	564001790	Service	Stephanie		Chauncey	ZZ83521Q	F	(347) 488-5654	09/26/1960	Ramanathan Deepak		1306261086	Clean Air Car Svc & Parking (NYC)	Tolls-Universal	A0170	CG	01/09/2018	01/09/2018	No	2	1																					Tolls-Universal	135976107
2504293	1238	564001790	Service	Stephanie		Chauncey	ZZ83521Q	F	(347) 488-5654	09/26/1960	Ramanathan Deepak		1306261086	Clean Air Car Svc & Parking (NYC)	Mileage-Livery in NYC	S0215		01/09/2018	01/09/2018	No	2	1																					Mileage-Livery in NYC	135976107
2504293	1239	564001790	Service	Stephanie		Chauncey	ZZ83521Q	F	(347) 488-5654	09/26/1960	Ramanathan Deepak		1306261086	Clean Air Car Svc & Parking (NYC)	Mileage-Livery in NYC	S0215		01/09/2018	01/09/2018	No	2	1																					Mileage-Livery in NYC	135976108
2504293	1240	564006770	Leg	Patricia		Dern	XE54056B	F	(718) 799-4051	03/30/1956	FLUSHING HOSPITAL MENTAL HEALTH		1811199342	Clean Air Car Svc & Parking (NYC)	Livery/QN-Med Appt in CMMA	A0100		01/11/2018	01/11/2018	No	2	1		self	(718) 799-4051	5.6	01/11/2018	0800	1527 Murray St	# 4 	Whitestone	NY	11357	01/11/2018	0900	14601 45th Ave	  main	Flushing	NY	11355	2.8			No	135977801
2504293	1241	564006770	Leg	Patricia		Dern	XE54056B	F	(718) 799-4051	03/30/1956	FLUSHING HOSPITAL MENTAL HEALTH		1811199342	Clean Air Car Svc & Parking (NYC)	Livery/QN-Med Appt in CMMA	A0100		01/11/2018	01/11/2018	No	2	1		self	(718) 799-4051	5.6	01/11/2018	Call	14601 45th Ave	 main	Flushing	NY	11355	01/11/2018	Call	1527 Murray St	# 4 	Whitestone	NY	11357	2.8			No	135977802
2504293	1242	564007230	Leg	Victoria	A	Proanomoya	NP20722G	F	(917) 995-7315	05/03/2012	Brown Maritza		1538108006	Clean Air Car Svc & Parking (NYC)	Livery/BK-Med Appt in CMMA	A0100		01/11/2018	01/11/2018	No	2	1		rita(mother)	(917) 995-7315	4.4	01/11/2018	1500	5601 16th Ave	 main	Brooklyn	NY	11204	01/11/2018	1600	6323 7th Ave	  main	Brooklyn	NY	11220	1.9	Additional Rider		No	135977813
2504293	1243	564007230	Leg	Victoria	A	Proanomoya	NP20722G	F	(917) 995-7315	05/03/2012	Brown Maritza		1538108006	Clean Air Car Svc & Parking (NYC)	Livery/BK-Med Appt in CMMA	A0100		01/11/2018	01/11/2018	No	2	1		rita(mother)	(917) 995-7315	4.4	01/11/2018	Call	6323 7th Ave	 main	Brooklyn	NY	11220	01/11/2018	Call	313 99th St	1F 	Brooklyn	NY	11209	2.5			No	135977814
2504293	1244	564063220	Leg	Baochen		Zhu	PG19459M	M	3473722593	06/17/1934	Bronx Lebanon Hospital	000	1538230073	Clean Air Car Svc & Parking (NYC)	Livery/BX-Med Appt out CMMA	A0100	TN	01/11/2018	01/11/2018	No	3	1		self	3473722593	34.2	01/11/2018	0930	828 Gerard Ave	 	Bronx	NY	10451	01/11/2018	1030	2 Allen St	  	New York	NY	10002	11.5	1 Additional pass		No	135990028
2504293	1245	564063220	Leg	Baochen		Zhu	PG19459M	M	3473722593	06/17/1934	Bronx Lebanon Hospital	000	1538230073	Clean Air Car Svc & Parking (NYC)	Livery/BX-Med Appt out CMMA	A0100	TN	01/11/2018	01/11/2018	No	3	1		self	3473722593	34.2	01/11/2018	CALL	2 Allen St	 	New York	NY	10002	01/11/2018	1300	13620 38th Ave	  	Flushing	NY	11354	12.2			No	135990029
2504293	1246	564063220	Leg	Baochen		Zhu	PG19459M	M	3473722593	06/17/1934	Bronx Lebanon Hospital	000	1538230073	Clean Air Car Svc & Parking (NYC)	Livery/BX-Med Appt out CMMA	A0100	TN	01/11/2018	01/11/2018	No	3	1		self	3473722593	34.2	01/11/2018	CALL	13620 38th Ave	 	Flushing	NY	11354	01/11/2018	CALL	828 Gerard Ave	  	Bronx	NY	10451	10.5			No	135990030
2504293	1247	564063220	Service	Baochen		Zhu	PG19459M	M	3473722593	06/17/1934	Bronx Lebanon Hospital	000	1538230073	Clean Air Car Svc & Parking (NYC)	Tolls-Universal	A0170	CG	01/11/2018	01/11/2018	No	3	1																					Tolls-Universal	135990028
2504293	1248	564063220	Service	Baochen		Zhu	PG19459M	M	3473722593	06/17/1934	Bronx Lebanon Hospital	000	1538230073	Clean Air Car Svc & Parking (NYC)	Livery-Manhattan Surcharge	A0100	SC	01/11/2018	01/11/2018	No	3	1																					Livery-Manhattan Surcharge	135990028
2504293	1249	564063220	Service	Baochen		Zhu	PG19459M	M	3473722593	06/17/1934	Bronx Lebanon Hospital	000	1538230073	Clean Air Car Svc & Parking (NYC)	Livery-Manhattan Surcharge	A0100	SC	01/11/2018	01/11/2018	No	3	1																					Livery-Manhattan Surcharge	135990029
2504293	1250	564063220	Service	Baochen		Zhu	PG19459M	M	3473722593	06/17/1934	Bronx Lebanon Hospital	000	1538230073	Clean Air Car Svc & Parking (NYC)	Mileage-Livery in NYC	S0215		01/11/2018	01/11/2018	No	3	1																					Mileage-Livery in NYC	135990028
2504293	1251	564063220	Service	Baochen		Zhu	PG19459M	M	3473722593	06/17/1934	Bronx Lebanon Hospital	000	1538230073	Clean Air Car Svc & Parking (NYC)	Mileage-Livery in NYC	S0215		01/11/2018	01/11/2018	No	3	1																					Mileage-Livery in NYC	135990029
2504293	1252	564063220	Service	Baochen		Zhu	PG19459M	M	3473722593	06/17/1934	Bronx Lebanon Hospital	000	1538230073	Clean Air Car Svc & Parking (NYC)	Mileage-Livery in NYC	S0215		01/11/2018	01/11/2018	No	3	1																					Mileage-Livery in NYC	135990030
2504293	1253	564066940	Leg	Baochen		Zhu	PG19459M	M	3473722593	06/17/1934	Bronx Lebanon Hospital	000	1538230073	Clean Air Car Svc & Parking (NYC)	Livery/BX-Med Appt out CMMA	A0100	TN	01/18/2018	01/18/2018	No	4	1		self	3473722593	32.1	01/18/2018	0930	828 Gerard Ave	 	Bronx	NY	10451	01/18/2018	1030	80 Bowery	  	New York	NY	10013	9.6	1 Additional pass		No	135990444
2504293	1254	564066940	Leg	Baochen		Zhu	PG19459M	M	3473722593	06/17/1934	Bronx Lebanon Hospital	000	1538230073	Clean Air Car Svc & Parking (NYC)	Livery/BX-Med Appt out CMMA	A0100	TN	01/18/2018	01/18/2018	No	4	1		self	3473722593	32.1	01/18/2018	CALL	80 Bowery	 	New York	NY	10013	01/18/2018	1200	2 Allen St	  	New York	NY	10002	.7			No	135990445
2504293	1255	564066940	Leg	Baochen		Zhu	PG19459M	M	3473722593	06/17/1934	Bronx Lebanon Hospital	000	1538230073	Clean Air Car Svc & Parking (NYC)	Livery/BX-Med Appt out CMMA	A0100	TN	01/18/2018	01/18/2018	No	4	1		self	3473722593	32.1	01/18/2018	CALL	2 Allen St	 	New York	NY	10002	01/18/2018	CALL	13617 39th Ave	Ste CF 	Flushing	NY	11354	11.5			No	135990446
2504293	1256	564066940	Leg	Baochen		Zhu	PG19459M	M	3473722593	06/17/1934	Bronx Lebanon Hospital	000	1538230073	Clean Air Car Svc & Parking (NYC)	Livery/BX-Med Appt out CMMA	A0100	TN	01/18/2018	01/18/2018	No	4	1		self	3473722593	32.1	01/18/2018	Call	13617 39th Ave	Ste CF 	Flushing	NY	11354	01/18/2018	Call	828 Gerard Ave	Apt 3A 	Bronx	NY	10451	10.3			No	137273644
2504293	1257	564066940	Service	Baochen		Zhu	PG19459M	M	3473722593	06/17/1934	Bronx Lebanon Hospital	000	1538230073	Clean Air Car Svc & Parking (NYC)	Tolls-Universal	A0170	CG	01/18/2018	01/18/2018	No	4	1																					Tolls-Universal	135990444
2504293	1258	564066940	Service	Baochen		Zhu	PG19459M	M	3473722593	06/17/1934	Bronx Lebanon Hospital	000	1538230073	Clean Air Car Svc & Parking (NYC)	Livery-Manhattan Surcharge	A0100	SC	01/18/2018	01/18/2018	No	4	1																					Livery-Manhattan Surcharge	135990444
2504293	1259	564066940	Service	Baochen		Zhu	PG19459M	M	3473722593	06/17/1934	Bronx Lebanon Hospital	000	1538230073	Clean Air Car Svc & Parking (NYC)	Livery-Manhattan Surcharge	A0100	SC	01/18/2018	01/18/2018	No	4	1																					Livery-Manhattan Surcharge	135990446
2504293	1260	564066940	Service	Baochen		Zhu	PG19459M	M	3473722593	06/17/1934	Bronx Lebanon Hospital	000	1538230073	Clean Air Car Svc & Parking (NYC)	Livery/BX-Med Appt in CMMA P/S	A0100		01/18/2018	01/18/2018	No	4	1																					Livery/BX-Med Appt in CMMA P/S	135990445
2504293	1261	564066940	Service	Baochen		Zhu	PG19459M	M	3473722593	06/17/1934	Bronx Lebanon Hospital	000	1538230073	Clean Air Car Svc & Parking (NYC)	Mileage-Livery in NYC	S0215		01/18/2018	01/18/2018	No	4	1																					Mileage-Livery in NYC	135990444
2504293	1262	564066940	Service	Baochen		Zhu	PG19459M	M	3473722593	06/17/1934	Bronx Lebanon Hospital	000	1538230073	Clean Air Car Svc & Parking (NYC)	Mileage-Livery in NYC	S0215		01/18/2018	01/18/2018	No	4	1																					Mileage-Livery in NYC	135990446
2504293	1263	564066940	Service	Baochen		Zhu	PG19459M	M	3473722593	06/17/1934	Bronx Lebanon Hospital	000	1538230073	Clean Air Car Svc & Parking (NYC)	Mileage-Livery in NYC	S0215		01/18/2018	01/18/2018	No	4	1																					Mileage-Livery in NYC	137273644
2504293	1264	564214190	Leg	Reshma		Maharaj	KD54352J	F	(347) 500-4614	11/06/1980	Mcdonald Annmarie		1003976341	Clean Air Car Svc & Parking (NYC)	Livery/QN-Med Appt out CMMA	A0100	TN	01/11/2018	01/11/2018	No	4	1		self	(347) 500-4614	57.8	01/11/2018	1600	10459 121st St	 home	South Richmond Hill	NY	11419	01/11/2018	1700	185 Canal St	  main	New York	NY	10013	11.3	Short s/o mon,wed and sun		No	136025789
2504293	1265	564214190	Leg	Reshma		Maharaj	KD54352J	F	(347) 500-4614	11/06/1980	Mcdonald Annmarie		1003976341	Clean Air Car Svc & Parking (NYC)	Livery/QN-Med Appt out CMMA	A0100	TN	01/11/2018	01/11/2018	No	4	1		self	(347) 500-4614	57.8	01/11/2018	Call	185 Canal St	 main	New York	NY	10013	01/11/2018	Call	10459 121st St	  home	South Richmond Hill	NY	11419	11.3	Short s/o mon,wed and sun		No	136025790
2504293	1266	564214190	Leg	Reshma		Maharaj	KD54352J	F	(347) 500-4614	11/06/1980	Mcdonald Annmarie		1003976341	Clean Air Car Svc & Parking (NYC)	Livery/QN-Med Appt out CMMA	A0100	TN	01/11/2018	01/11/2018	No	4	1		self	(347) 500-4614	57.8	01/11/2018	0600	10459 121st St	 	South Richmond Hill	NY	11419	01/11/2018	0700	622 W 168th St	  	New York	NY	10032	17.6			No	136364610
2504293	1267	564214190	Leg	Reshma		Maharaj	KD54352J	F	(347) 500-4614	11/06/1980	Mcdonald Annmarie		1003976341	Clean Air Car Svc & Parking (NYC)	Livery/QN-Med Appt out CMMA	A0100	TN	01/11/2018	01/11/2018	No	4	1		self	(347) 500-4614	57.8	01/11/2018	Call	622 W 168th St	 	New York	NY	10032	01/11/2018	Call	10459 121st St	  	South Richmond Hill	NY	11419	17.6			No	136364612
2504293	1268	564214190	Service	Reshma		Maharaj	KD54352J	F	(347) 500-4614	11/06/1980	Mcdonald Annmarie		1003976341	Clean Air Car Svc & Parking (NYC)	Mileage-Livery in NYC	S0215		01/11/2018	01/11/2018	No	4	1																					Mileage-Livery in NYC	136025789
2504293	1269	564214190	Service	Reshma		Maharaj	KD54352J	F	(347) 500-4614	11/06/1980	Mcdonald Annmarie		1003976341	Clean Air Car Svc & Parking (NYC)	Mileage-Livery in NYC	S0215		01/11/2018	01/11/2018	No	4	1																					Mileage-Livery in NYC	136025790
2504293	1270	564214190	Service	Reshma		Maharaj	KD54352J	F	(347) 500-4614	11/06/1980	Mcdonald Annmarie		1003976341	Clean Air Car Svc & Parking (NYC)	Tolls-Universal	A0170	CG	01/11/2018	01/11/2018	No	4	1																					Tolls-Universal	136025789
2504293	1271	564214190	Service	Reshma		Maharaj	KD54352J	F	(347) 500-4614	11/06/1980	Mcdonald Annmarie		1003976341	Clean Air Car Svc & Parking (NYC)	Livery-Manhattan Surcharge	A0100	SC	01/11/2018	01/11/2018	No	4	1																					Livery-Manhattan Surcharge	136025789
2504293	1272	564214190	Service	Reshma		Maharaj	KD54352J	F	(347) 500-4614	11/06/1980	Mcdonald Annmarie		1003976341	Clean Air Car Svc & Parking (NYC)	Livery-Manhattan Surcharge	A0100	SC	01/11/2018	01/11/2018	No	4	1																					Livery-Manhattan Surcharge	136025790
2504293	1273	564214190	Service	Reshma		Maharaj	KD54352J	F	(347) 500-4614	11/06/1980	Mcdonald Annmarie		1003976341	Clean Air Car Svc & Parking (NYC)	Mileage-Livery in NYC	S0215		01/11/2018	01/11/2018	No	4	1																					Mileage-Livery in NYC	136364610
2504293	1274	564214190	Service	Reshma		Maharaj	KD54352J	F	(347) 500-4614	11/06/1980	Mcdonald Annmarie		1003976341	Clean Air Car Svc & Parking (NYC)	Mileage-Livery in NYC	S0215		01/11/2018	01/11/2018	No	4	1																					Mileage-Livery in NYC	136364612
2504293	1275	564262030	Leg	Debra		Prince	XJ75243E	F	(407) 535-9019	02/28/1971	Queens Hospital	000	1801803903	Clean Air Car Svc & Parking (NYC)	Livery/QN-Med Appt in CMMA	A0100		01/10/2018	01/10/2018	No	2	1		self	(407) 535-9019		01/10/2018	0800	17740 Baisley Blvd	 home	Jamaica	NY	11434	01/10/2018	0900	8900 Van Wyck Expwy	  main	Jamaica	NY	11418	3.8	One way only facility will call in return		No	136037532
2504293	1276	564262030	Leg	Debra		Prince	XJ75243E	F	(407) 535-9019	02/28/1971	Queens Hospital	000	1801803903	Clean Air Car Svc & Parking (NYC)	Livery/QN-Med Appt in CMMA	A0100		01/10/2018	01/10/2018	No	2	1		self	(407) 535-9019		01/10/2018	1235	8900 Van Wyck Expwy	 main	Jamaica	NY	11418	01/10/2018	Call	17740 Baisley Blvd	  home	Jamaica	NY	11434	3.8			No	136351981
2504293	1277	564263800	Leg	Debra		Prince	XJ75243E	F	(407) 535-9019	02/28/1971	Queens Hospital	000	1801803903	Clean Air Car Svc & Parking (NYC)	Livery/QN-Med Appt in CMMA	A0100		01/11/2018	01/11/2018	No	2	1		self	(407) 535-9019	7.6	01/11/2018	1500	17740 Baisley Blvd	 home	Jamaica	NY	11434	01/11/2018	1600	8900 Van Wyck Expwy	  main	Jamaica	NY	11418	3.8			No	136037770
2504293	1278	564263800	Leg	Debra		Prince	XJ75243E	F	(407) 535-9019	02/28/1971	Queens Hospital	000	1801803903	Clean Air Car Svc & Parking (NYC)	Livery/QN-Med Appt in CMMA	A0100		01/11/2018	01/11/2018	No	2	1		self	(407) 535-9019	7.6	01/11/2018	Call	8900 Van Wyck Expwy	 main	Jamaica	NY	11418	01/11/2018	Call	17740 Baisley Blvd	  home	Jamaica	NY	11434	3.8			No	136038069
2504293	1279	564268180	Leg	Cynthia		Durham	ZB21969Z	F	(718) 565-7004	05/23/1960	Huang,Hua		1578509774	Clean Air Car Svc & Parking (NYC)	Livery/QN-Med Appt in CMMA	A0100		01/10/2018	01/10/2018	No	2	1		self	(718) 565-7004	6.8	01/10/2018	0930	3245 108th St	 	East Elmhurst	NY	11369	01/10/2018	1015	9229 Queens Blvd	  	Rego Park	NY	11374	3.4			No	136038987
2504293	1280	564268180	Leg	Cynthia		Durham	ZB21969Z	F	(718) 565-7004	05/23/1960	Huang,Hua		1578509774	Clean Air Car Svc & Parking (NYC)	Livery/QN-Med Appt in CMMA	A0100		01/10/2018	01/10/2018	No	2	1		self	(718) 565-7004	6.8	01/10/2018	Call	9229 Queens Blvd	 	Rego Park	NY	11374	01/10/2018	Call	3245 108th St	  	East Elmhurst	NY	11369	3.4			No	136038988
2504293	1281	564277380	Leg	Wendy		Stevenson	XT15404E	F	(347) 530-8273	07/08/1968	BICHOTTE- LIGONDE, SOPHIA		1609815612	Clean Air Car Svc & Parking (NYC)	Livery/QN-Med Appt in CMMA	A0100		01/11/2018	01/11/2018	No	2	1		self	(347) 530-8273	5.4	01/11/2018	0900	18315 145th Rd	# 2 	Springfield Gardens	NY	11413	01/11/2018	1000	20620 Linden Blvd	  main	Cambria Heights	NY	11411	2.7	+1		No	136040576
2504293	1282	564277380	Leg	Wendy		Stevenson	XT15404E	F	(347) 530-8273	07/08/1968	BICHOTTE- LIGONDE, SOPHIA		1609815612	Clean Air Car Svc & Parking (NYC)	Livery/QN-Med Appt in CMMA	A0100		01/11/2018	01/11/2018	No	2	1		self	(347) 530-8273	5.4	01/11/2018	Call	20620 Linden Blvd	 main	Cambria Heights	NY	11411	01/11/2018	Call	18315 145th Rd	# 2 	Springfield Gardens	NY	11413	2.7			No	136040582
2504293	1283	564291160	Leg	Edward		Mattocks	XM70326W	M	3473341422	01/28/1967	Mt Sinai of Queens	00243509	1245248939	Clean Air Car Svc & Parking (NYC)	Livery/QN-Med Appt in CMMA	A0100		01/16/2018	01/16/2018	No	2	1		self	3473341422	2.6	01/16/2018	0945	4114 10th St	 	Long Island City	NY	11101	01/16/2018	1045	3160 21st St	  	Long Island City	NY	11106	1.3			No	136045247
2504293	1284	564291160	Leg	Edward		Mattocks	XM70326W	M	3473341422	01/28/1967	Mt Sinai of Queens	00243509	1245248939	Clean Air Car Svc & Parking (NYC)	Livery/QN-Med Appt in CMMA	A0100		01/16/2018	01/16/2018	No	2	1		self	3473341422	2.6	01/16/2018	CALL	3160 21st St	 	Long Island City	NY	11106	01/16/2018	CALL	4114 10th St	  	Long Island City	NY	11101	1.3			No	136045248
2504293	1285	564350270	Leg	Kim	L	Ham	YX60562V	F	5163023495	02/28/1974	Alexander Brigitte		1013096296	Clean Air Car Svc & Parking (NYC)	Livery/QN-Med Appt out CMMA	A0100	TN	01/18/2018	01/18/2018	No	2	1		Self	5163023495	7.6	01/18/2018	1030	17224 133rd Ave	 	Jamaica	NY	11434	01/18/2018	1130	260 W Sunrise Hwy	  	Valley Stream	NY	11581	3.8	+1		No	136060361
2504293	1286	564350270	Leg	Kim	L	Ham	YX60562V	F	5163023495	02/28/1974	Alexander Brigitte		1013096296	Clean Air Car Svc & Parking (NYC)	Livery/QN-Med Appt out CMMA	A0100	TN	01/18/2018	01/18/2018	No	2	1		Self	5163023495	7.6	01/18/2018	CALL	260 W Sunrise Hwy	 	Valley Stream	NY	11581	01/18/2018	1445	17224 133rd Ave	  	Jamaica	NY	11434	3.8			No	136060362
2504293	1287	564350270	Service	Kim	L	Ham	YX60562V	F	5163023495	02/28/1974	Alexander Brigitte		1013096296	Clean Air Car Svc & Parking (NYC)	Tolls-Universal	A0170	CG	01/18/2018	01/18/2018	No	2	1																					Tolls-Universal	136060361
2504293	1288	564350270	Service	Kim	L	Ham	YX60562V	F	5163023495	02/28/1974	Alexander Brigitte		1013096296	Clean Air Car Svc & Parking (NYC)	Mileage-Livery out of NYC	S0215	TN	01/18/2018	01/18/2018	No	2	1																					Mileage-Livery out of NYC	136060361
2504293	1289	564350270	Service	Kim	L	Ham	YX60562V	F	5163023495	02/28/1974	Alexander Brigitte		1013096296	Clean Air Car Svc & Parking (NYC)	Mileage-Livery out of NYC	S0215	TN	01/18/2018	01/18/2018	No	2	1																					Mileage-Livery out of NYC	136060362
2504293	1290	564378870	Leg	Kim	L	Ham	YX60562V	F	5163023495	02/28/1974	Queens Hospital	000	1801803903	Clean Air Car Svc & Parking (NYC)	Livery/QN-Med Appt out CMMA	A0100	TN	01/25/2018	01/25/2018	No	2	1		self	5163023495	43.6	01/25/2018	1445	17224 133rd Ave	 	Jamaica	NY	11434	01/25/2018	1545	121 Eileen Way	  	Syosset	NY	11791	21.8	1 added rider		No	136067953
2504293	1291	564378870	Leg	Kim	L	Ham	YX60562V	F	5163023495	02/28/1974	Queens Hospital	000	1801803903	Clean Air Car Svc & Parking (NYC)	Livery/QN-Med Appt out CMMA	A0100	TN	01/25/2018	01/25/2018	No	2	1		self	5163023495	43.6	01/25/2018	CALL	121 Eileen Way	 	Syosset	NY	11791	01/25/2018	1545	17224 133rd Ave	  	Jamaica	NY	11434	21.8			No	136067954
2504293	1292	564378870	Service	Kim	L	Ham	YX60562V	F	5163023495	02/28/1974	Queens Hospital	000	1801803903	Clean Air Car Svc & Parking (NYC)	Tolls-Universal	A0170	CG	01/25/2018	01/25/2018	No	2	1																					Tolls-Universal	136067953
2504293	1293	564378870	Service	Kim	L	Ham	YX60562V	F	5163023495	02/28/1974	Queens Hospital	000	1801803903	Clean Air Car Svc & Parking (NYC)	Mileage-Livery out of NYC	S0215	TN	01/25/2018	01/25/2018	No	2	1																					Mileage-Livery out of NYC	136067953
2504293	1294	564378870	Service	Kim	L	Ham	YX60562V	F	5163023495	02/28/1974	Queens Hospital	000	1801803903	Clean Air Car Svc & Parking (NYC)	Mileage-Livery out of NYC	S0215	TN	01/25/2018	01/25/2018	No	2	1																					Mileage-Livery out of NYC	136067954
2504293	1295	564386850	Leg	Kim	L	Ham	YX60562V	F	5163023495	02/28/1974	Queens Hospital	000	1801803903	Clean Air Car Svc & Parking (NYC)	Livery/QN-Med Appt out CMMA	A0100	TN	01/24/2018	01/24/2018	No	2	1		self	5163023495	16.6	01/24/2018	0800	17224 133rd Ave	 	Jamaica	NY	11434	01/24/2018	0900	8806 55th Ave	  	Elmhurst	NY	11373	8.3	1 added rider		No	136069563
2504293	1296	564386850	Leg	Kim	L	Ham	YX60562V	F	5163023495	02/28/1974	Queens Hospital	000	1801803903	Clean Air Car Svc & Parking (NYC)	Livery/QN-Med Appt out CMMA	A0100	TN	01/24/2018	01/24/2018	No	2	1		self	5163023495	16.6	01/24/2018	CALL	8806 55th Ave	 	Elmhurst	NY	11373	01/24/2018	0900	17224 133rd Ave	  	Jamaica	NY	11434	8.3			No	136069565
2504293	1297	564386850	Service	Kim	L	Ham	YX60562V	F	5163023495	02/28/1974	Queens Hospital	000	1801803903	Clean Air Car Svc & Parking (NYC)	Mileage-Livery in NYC	S0215		01/24/2018	01/24/2018	No	2	1																					Mileage-Livery in NYC	136069563
2504293	1298	564386850	Service	Kim	L	Ham	YX60562V	F	5163023495	02/28/1974	Queens Hospital	000	1801803903	Clean Air Car Svc & Parking (NYC)	Mileage-Livery in NYC	S0215		01/24/2018	01/24/2018	No	2	1																					Mileage-Livery in NYC	136069565
2504293	1299	564391210	Leg	Roy		Chibas	NW96450Q	M	9292896636	07/08/1943	21st CenturyDental	134647019	1720357726	Clean Air Car Svc & Parking (NYC)	Livery/BK-Med Appt in CMMA	A0100		01/16/2018	01/16/2018	No	2	1		evette	9292896636	7.2	01/16/2018	0800	591 Wyona St	 	Brooklyn	NY	11207	01/16/2018	0900	451 Clarkson Ave	  	Brooklyn	NY	11203	3.6	will call return		No	136070018
2504293	1300	564391210	Leg	Roy		Chibas	NW96450Q	M	9292896636	07/08/1943	21st CenturyDental	134647019	1720357726	Clean Air Car Svc & Parking (NYC)	Livery/BK-Med Appt in CMMA	A0100		01/16/2018	01/16/2018	No	2	1		evette	9292896636	7.2	01/16/2018	CALL	451 Clarkson Ave	 	Brooklyn	NY	11203	01/16/2018	CALL	591 Wyona St	  	Brooklyn	NY	11207	3.6			No	136070019
2504293	1301	564395360	Leg	Roy		Chibas	NW96450Q	M	9292896636	07/08/1943	21st CenturyDental	134647019	1720357726	Clean Air Car Svc & Parking (NYC)	Livery/BK-Med Appt in CMMA	A0100		01/23/2018	01/23/2018	No	2	1		evette	9292896636	7.2	01/23/2018	1240	591 Wyona St	 	Brooklyn	NY	11207	01/23/2018	1340	451 Clarkson Ave	  	Brooklyn	NY	11203	3.6	will call return		No	136070541
2504293	1302	564395360	Leg	Roy		Chibas	NW96450Q	M	9292896636	07/08/1943	21st CenturyDental	134647019	1720357726	Clean Air Car Svc & Parking (NYC)	Livery/BK-Med Appt in CMMA	A0100		01/23/2018	01/23/2018	No	2	1		evette	9292896636	7.2	01/23/2018	CALL	451 Clarkson Ave	 	Brooklyn	NY	11203	01/23/2018	CALL	591 Wyona St	  	Brooklyn	NY	11207	3.6			No	136070542
2504293	1303	564545430	Leg	Linda	L	Hagins	ZV28817E	F	(929) 287-6303	07/31/1954	Bronx Lebanon Hospital	000	1538230073	Clean Air Car Svc & Parking (NYC)	Livery/BX-Med Appt out CMMA	A0100	TN	01/12/2018	01/12/2018	No	2	1		self	(929) 287-6303		01/12/2018	1100	1805 Clinton Ave	Apt 1B 	Bronx	NY	10457	01/12/2018	1200	154 W 127th St	  main	New York	NY	10027	5.5	enrl. walks with cane		No	136113040
2504293	1304	564545430	Leg	Linda	L	Hagins	ZV28817E	F	(929) 287-6303	07/31/1954	Bronx Lebanon Hospital	000	1538230073	Clean Air Car Svc & Parking (NYC)	Livery/BX-Med Appt out CMMA	A0100	TN	01/12/2018	01/12/2018	No	2	1		self	(929) 287-6303		01/12/2018	Call	154 W 127th St	 main	New York	NY	10027	01/12/2018	Call	1805 Clinton Ave	Apt 1B 	Bronx	NY	10457	5.5			No	136113041
2504293	1305	564545430	Service	Linda	L	Hagins	ZV28817E	F	(929) 287-6303	07/31/1954	Bronx Lebanon Hospital	000	1538230073	Clean Air Car Svc & Parking (NYC)	Tolls-Universal	A0170	CG	01/12/2018	01/12/2018	No	2	1																					Tolls-Universal	136113040
2504293	1306	564570370	Leg	Tanasia	D	Young	VS85625F	F	(718) 844-1973	04/24/1989	Bronx Lebanon Hospital	000	1538230073	Clean Air Car Svc & Parking (NYC)	Livery/BX-Med Appt out CMMA	A0100	TN	01/10/2018	01/10/2018	No	2	1		Tanasia D Young	(718) 844-1973	14.6	01/10/2018	1200	3930 3rd Ave	Apt 703 	Bronx	NY	10457	01/10/2018	1300	17 E 102nd St	  ny	New York	NY	10029	7.3			No	136119204
2504293	1307	564570370	Leg	Tanasia	D	Young	VS85625F	F	(718) 844-1973	04/24/1989	Bronx Lebanon Hospital	000	1538230073	Clean Air Car Svc & Parking (NYC)	Livery/BX-Med Appt out CMMA	A0100	TN	01/10/2018	01/10/2018	No	2	1		Tanasia D Young	(718) 844-1973	14.6	01/10/2018	Call	17 E 102nd St	 ny	New York	NY	10029	01/10/2018	Call	3930 3rd Ave	Apt 703 	Bronx	NY	10457	7.3			No	136119205
2504293	1308	564570370	Service	Tanasia	D	Young	VS85625F	F	(718) 844-1973	04/24/1989	Bronx Lebanon Hospital	000	1538230073	Clean Air Car Svc & Parking (NYC)	Tolls-Universal	A0170	CG	01/10/2018	01/10/2018	No	2	1																					Tolls-Universal	136119204
2504293	1309	564570370	Service	Tanasia	D	Young	VS85625F	F	(718) 844-1973	04/24/1989	Bronx Lebanon Hospital	000	1538230073	Clean Air Car Svc & Parking (NYC)	Livery-Manhattan Surcharge	A0100	SC	01/10/2018	01/10/2018	No	2	1																					Livery-Manhattan Surcharge	136119204
2504293	1310	564570370	Service	Tanasia	D	Young	VS85625F	F	(718) 844-1973	04/24/1989	Bronx Lebanon Hospital	000	1538230073	Clean Air Car Svc & Parking (NYC)	Livery-Manhattan Surcharge	A0100	SC	01/10/2018	01/10/2018	No	2	1																					Livery-Manhattan Surcharge	136119205
2504293	1311	564707120	Leg	Yanique		Ford	SG65867E	F	6313364112	06/06/1985	NY Presbyterian Hospital		1952332801	Clean Air Car Svc & Parking (NYC)	Livery/MN-Med Appt out CMMA	A0100	TN	01/10/2018	01/10/2018	No	2	1		self	6313364112	17.6	01/10/2018	0900	25 Pine St	 	New York	NY	10005	01/10/2018	1000	2510 30th Rd	  	Long Island City	NY	11102	8.8	1 Additional rider(s). 1 Additional rider(s). 1 Additional rider(s). 1 Additional rider(s). 1 Additional rider(s). 1 other passanger		No	136152193
2504293	1312	564707120	Leg	Yanique		Ford	SG65867E	F	6313364112	06/06/1985	NY Presbyterian Hospital		1952332801	Clean Air Car Svc & Parking (NYC)	Livery/MN-Med Appt out CMMA	A0100	TN	01/10/2018	01/10/2018	No	2	1		self	6313364112	17.6	01/10/2018	Call	2510 30th Rd	 	Long Island City	NY	11102	01/10/2018	Call	25 Pine St	  	New York	NY	10005	8.8	1 Additional rider(s). 1 Additional rider(s). 1 Additional rider(s). 1 Additional rider(s). 1 Additional rider(s). 1 other passanger		No	136152194
2504293	1313	564707120	Service	Yanique		Ford	SG65867E	F	6313364112	06/06/1985	NY Presbyterian Hospital		1952332801	Clean Air Car Svc & Parking (NYC)	Mileage-Livery in NYC	S0215		01/10/2018	01/10/2018	No	2	1																					Mileage-Livery in NYC	136152193
2504293	1314	564707120	Service	Yanique		Ford	SG65867E	F	6313364112	06/06/1985	NY Presbyterian Hospital		1952332801	Clean Air Car Svc & Parking (NYC)	Mileage-Livery in NYC	S0215		01/10/2018	01/10/2018	No	2	1																					Mileage-Livery in NYC	136152194
2504293	1315	564707120	Service	Yanique		Ford	SG65867E	F	6313364112	06/06/1985	NY Presbyterian Hospital		1952332801	Clean Air Car Svc & Parking (NYC)	Tolls-Universal	A0170	CG	01/10/2018	01/10/2018	No	2	1																					Tolls-Universal	136152193
2504293	1316	564707120	Service	Yanique		Ford	SG65867E	F	6313364112	06/06/1985	NY Presbyterian Hospital		1952332801	Clean Air Car Svc & Parking (NYC)	Livery-Manhattan Surcharge	A0100	SC	01/10/2018	01/10/2018	No	2	1																					Livery-Manhattan Surcharge	136152193
2504293	1317	564707120	Service	Yanique		Ford	SG65867E	F	6313364112	06/06/1985	NY Presbyterian Hospital		1952332801	Clean Air Car Svc & Parking (NYC)	Livery-Manhattan Surcharge	A0100	SC	01/10/2018	01/10/2018	No	2	1																					Livery-Manhattan Surcharge	136152194
2504293	1318	564732220	Leg	Rosa	M	Santiago	SK42824S	F	(347) 529-4306	11/18/1953	Habal Rania		1407904741	Clean Air Car Svc & Parking (NYC)	Livery/QN-Med Appt out CMMA	A0100	TN	01/12/2018	01/12/2018	No	2	1		Self	(347) 529-4306	12.0	01/12/2018	0945	1683 Gates Ave	# 1B 	Ridgewood	NY	11385	01/12/2018	1045	11602 Queens Blvd	  Main	Forest Hills	NY	11375	6.0	+1, Additional Rider		No	136158257
2504293	1319	564732220	Leg	Rosa	M	Santiago	SK42824S	F	(347) 529-4306	11/18/1953	Habal Rania		1407904741	Clean Air Car Svc & Parking (NYC)	Livery/QN-Med Appt out CMMA	A0100	TN	01/12/2018	01/12/2018	No	2	1		Self	(347) 529-4306	12.0	01/12/2018	Call	11602 Queens Blvd	 Main	Forest Hills	NY	11375	01/12/2018	Call	1683 Gates Ave	# 1B 	Ridgewood	NY	11385	6.0			No	136158258
2504293	1320	564774250	Leg	Yareli	D	Jimenezhernandez	QF55959D	F	(347) 358-9383	09/29/2007	Miranda Rodolfo		1831164516	Clean Air Car Svc & Parking (NYC)	Livery/QN-Med Appt out CMMA	A0100	TN	01/11/2018	01/11/2018	No	2	1		jessica/ mother	(347) 358-9383	12.3	01/11/2018	1300	7224 Grand Ave	 school	Maspeth	NY	11378	01/11/2018	1400	345 E 24th St	front 	New York	NY	10010	5.8	+1 mother, Additional Rider		No	136170569
2504293	1321	564774250	Leg	Yareli	D	Jimenezhernandez	QF55959D	F	(347) 358-9383	09/29/2007	Miranda Rodolfo		1831164516	Clean Air Car Svc & Parking (NYC)	Livery/QN-Med Appt out CMMA	A0100	TN	01/11/2018	01/11/2018	No	2	1		jessica/ mother	(347) 358-9383	12.3	01/11/2018	Call	345 E 24th St	front 	New York	NY	10010	01/11/2018	Call	5461 83rd St	Fl 2 	Elmhurst	NY	11373	6.5			No	136170570
2504293	1322	564774250	Service	Yareli	D	Jimenezhernandez	QF55959D	F	(347) 358-9383	09/29/2007	Miranda Rodolfo		1831164516	Clean Air Car Svc & Parking (NYC)	Tolls-Universal	A0170	CG	01/11/2018	01/11/2018	No	2	1																					Tolls-Universal	136170569
2504293	1323	564774250	Service	Yareli	D	Jimenezhernandez	QF55959D	F	(347) 358-9383	09/29/2007	Miranda Rodolfo		1831164516	Clean Air Car Svc & Parking (NYC)	Livery-Manhattan Surcharge	A0100	SC	01/11/2018	01/11/2018	No	2	1																					Livery-Manhattan Surcharge	136170569
2504293	1324	564774250	Service	Yareli	D	Jimenezhernandez	QF55959D	F	(347) 358-9383	09/29/2007	Miranda Rodolfo		1831164516	Clean Air Car Svc & Parking (NYC)	Livery-Manhattan Surcharge	A0100	SC	01/11/2018	01/11/2018	No	2	1																					Livery-Manhattan Surcharge	136170570
2504293	1325	564834540	Leg	Maylene	A	Hawkinslingo	PT03668K	F	(631) 336-4112	09/14/2009	Asaly Michael		1760746960	Clean Air Car Svc & Parking (NYC)	Livery/MN-Med Appt out CMMA	A0100	TN	01/10/2018	01/10/2018	No	2	1		yanique/mom	(631) 336-4112	41.0	01/10/2018	1500	25 Pine St	 home	New York	NY	10005	01/10/2018	1600	1983 Marcus Ave	  	New Hyde Park	NY	11042	20.5	1 Additional rider(s). Additional Rider		No	136184169
2504293	1326	564834540	Leg	Maylene	A	Hawkinslingo	PT03668K	F	(631) 336-4112	09/14/2009	Asaly Michael		1760746960	Clean Air Car Svc & Parking (NYC)	Livery/MN-Med Appt out CMMA	A0100	TN	01/10/2018	01/10/2018	No	2	1		yanique/mom	(631) 336-4112	41.0	01/10/2018	Call	1983 Marcus Ave	 	New Hyde Park	NY	11042	01/10/2018	Call	25 Pine St	  home	New York	NY	10005	20.5	1 Additional rider(s). Additional Rider		No	136184173
2504293	1327	564834540	Service	Maylene	A	Hawkinslingo	PT03668K	F	(631) 336-4112	09/14/2009	Asaly Michael		1760746960	Clean Air Car Svc & Parking (NYC)	Tolls-Universal	A0170	CG	01/10/2018	01/10/2018	No	2	1																					Tolls-Universal	136184169
2504293	1328	564834540	Service	Maylene	A	Hawkinslingo	PT03668K	F	(631) 336-4112	09/14/2009	Asaly Michael		1760746960	Clean Air Car Svc & Parking (NYC)	Livery-Manhattan Surcharge	A0100	SC	01/10/2018	01/10/2018	No	2	1																					Livery-Manhattan Surcharge	136184169
2504293	1329	564834540	Service	Maylene	A	Hawkinslingo	PT03668K	F	(631) 336-4112	09/14/2009	Asaly Michael		1760746960	Clean Air Car Svc & Parking (NYC)	Livery-Manhattan Surcharge	A0100	SC	01/10/2018	01/10/2018	No	2	1																					Livery-Manhattan Surcharge	136184173
2504293	1330	564834540	Service	Maylene	A	Hawkinslingo	PT03668K	F	(631) 336-4112	09/14/2009	Asaly Michael		1760746960	Clean Air Car Svc & Parking (NYC)	Mileage-Livery out of NYC	S0215	TN	01/10/2018	01/10/2018	No	2	1																					Mileage-Livery out of NYC	136184169
2504293	1331	564834540	Service	Maylene	A	Hawkinslingo	PT03668K	F	(631) 336-4112	09/14/2009	Asaly Michael		1760746960	Clean Air Car Svc & Parking (NYC)	Mileage-Livery out of NYC	S0215	TN	01/10/2018	01/10/2018	No	2	1																					Mileage-Livery out of NYC	136184173
2504293	1332	564838900	Leg	Edward		Mattocks	XM70326W	M	(347) 334-1422	01/28/1967	UDUEVBO, JERRY		1740448208	Clean Air Car Svc & Parking (NYC)	Livery/QN-Med Appt in CMMA	A0100		01/17/2018	01/17/2018	No	2	1		self	(347) 334-1422	4.2	01/17/2018	0730	4114 10th St	Apt 5D 	Long Island City	NY	11101	01/17/2018	0830	2510 30th Ave	  main	Astoria	NY	11102	2.1			No	136185067
2504293	1333	564838900	Leg	Edward		Mattocks	XM70326W	M	(347) 334-1422	01/28/1967	UDUEVBO, JERRY		1740448208	Clean Air Car Svc & Parking (NYC)	Livery/QN-Med Appt in CMMA	A0100		01/17/2018	01/17/2018	No	2	1		self	(347) 334-1422	4.2	01/17/2018	Call	2510 30th Ave	 main	Astoria	NY	11102	01/17/2018	Call	4114 10th St	Apt 5D 	Long Island City	NY	11101	2.1			No	136185077
2504293	1334	564908790	Leg	Iris		Babayoff	UX68405R	F	7185706536	03/26/1971	ALLEVA MICHAEL MD	000	1730147182	Clean Air Car Svc & Parking (NYC)	Livery/QN-Med Appt in CMMA	A0100		01/11/2018	01/11/2018	No	2	1		self	7185706536	2.6	01/11/2018	0745	7135 Vleigh Pl	 	Flushing	NY	11367	01/11/2018	0815	14123 59th Ave	  	Flushing	NY	11355	1.3	aware of pickup policy		No	136202852
2504293	1335	564908790	Leg	Iris		Babayoff	UX68405R	F	7185706536	03/26/1971	ALLEVA MICHAEL MD	000	1730147182	Clean Air Car Svc & Parking (NYC)	Livery/QN-Med Appt in CMMA	A0100		01/11/2018	01/11/2018	No	2	1		self	7185706536	2.6	01/11/2018	0845	14123 59th Ave	 	Flushing	NY	11355	01/11/2018	0815	7135 Vleigh Pl	  	Flushing	NY	11367	1.3			No	136202853
2504293	1336	565001130	Leg	Rosetta		Jones	ZC05411N	F	(347) 572-3879	04/10/1948	Awwal Sabina		1669578647	Clean Air Car Svc & Parking (NYC)	Livery/QN-Med Appt in CMMA	A0100		01/11/2018	01/11/2018	No	2	1		self	(347) 572-3879	2.0	01/11/2018	1000	10816 159th St	Apt 4A 	Jamaica	NY	11433	01/11/2018	1100	9037 Parsons Blvd	  	Jamaica	NY	11432	1.0			No	136222613
2504293	1337	565001130	Leg	Rosetta		Jones	ZC05411N	F	(347) 572-3879	04/10/1948	Awwal Sabina		1669578647	Clean Air Car Svc & Parking (NYC)	Livery/QN-Med Appt in CMMA	A0100		01/11/2018	01/11/2018	No	2	1		self	(347) 572-3879	2.0	01/11/2018	Call	9037 Parsons Blvd	 	Jamaica	NY	11432	01/11/2018	Call	10816 159th St	Apt 4A 	Jamaica	NY	11433	1.0			No	136222614
2504293	1338	565014010	Leg	Xiaofang		Luo	KF17862J	F	(347) 527-8655	11/02/1945	Brooklyn Hospital Center	000	1326046467	Clean Air Car Svc & Parking (NYC)	Livery/BK-Med Appt out CMMA	A0100	TN	01/10/2018	01/10/2018	Yes	2	1		Lizzy , Daughter	(347) 527-8655	36.2	01/10/2018	1030	35 Oliver St	apt 4h 	Brooklyn	NY	11209	01/10/2018	1130	4235 Main St	  Main	Flushing	NY	11355	18.1	S/O Mon - Only, Additional Rider		No	136226385
2504293	1339	565014010	Leg	Xiaofang		Luo	KF17862J	F	(347) 527-8655	11/02/1945	Brooklyn Hospital Center	000	1326046467	Clean Air Car Svc & Parking (NYC)	Livery/BK-Med Appt out CMMA	A0100	TN	01/10/2018	01/10/2018	Yes	2	1		Lizzy , Daughter	(347) 527-8655	36.2	01/10/2018	Call	4235 Main St	 Main	Flushing	NY	11355	01/10/2018	Call	35 Oliver St	apt 4h 	Brooklyn	NY	11209	18.1	S/O Mon - Only, Additional Rider		No	136226386
2504293	1340	565014010	Service	Xiaofang		Luo	KF17862J	F	(347) 527-8655	11/02/1945	Brooklyn Hospital Center	000	1326046467	Clean Air Car Svc & Parking (NYC)	Mileage-Livery in NYC	S0215		01/10/2018	01/10/2018	Yes	2	1																					Mileage-Livery in NYC	136226385
2504293	1341	565014010	Service	Xiaofang		Luo	KF17862J	F	(347) 527-8655	11/02/1945	Brooklyn Hospital Center	000	1326046467	Clean Air Car Svc & Parking (NYC)	Mileage-Livery in NYC	S0215		01/10/2018	01/10/2018	Yes	2	1																					Mileage-Livery in NYC	136226386
2504293	1342	565014010	Service	Xiaofang		Luo	KF17862J	F	(347) 527-8655	11/02/1945	Brooklyn Hospital Center	000	1326046467	Clean Air Car Svc & Parking (NYC)	Tolls-Universal	A0170	CG	01/10/2018	01/10/2018	Yes	2	1																					Tolls-Universal	136226385
2504293	1343	565027520	Leg	Obdulia		Batista	ZG92504N	F	7188486535	12/03/1972	Goldberg Alla		1467698480	Clean Air Car Svc & Parking (NYC)	Livery/BK-Med Appt out CMMA	A0100	TN	01/12/2018	01/12/2018	No	2	1		self	7188486535		01/12/2018	0825	9823 Horace Harding Expy	- 	Corona	NY	11368	01/12/2018	0925	5645 Main St	  	Flushing	NY	11355	2.7	1 Additional rider(s). 1 Additional rider(s). 1		No	136229350
2504293	1344	565027520	Leg	Obdulia		Batista	ZG92504N	F	7188486535	12/03/1972	Goldberg Alla		1467698480	Clean Air Car Svc & Parking (NYC)	Livery/BK-Med Appt out CMMA	A0100	TN	01/12/2018	01/12/2018	No	2	1		self	7188486535		01/12/2018	Call	5645 Main St	 -	Flushing	NY	11355	01/12/2018	Call	9823 Horace Harding Expy	- 	Corona	NY	11368	2.7			No	139504122
2504293	1345	565031570	Leg	Maylene	A	Hawkinslingo	PT03668K	F	(631) 336-4112	09/14/2009	ZUCKER HILLSIDE HOSPITAL		1104990928	Clean Air Car Svc & Parking (NYC)	Livery/MN-Med Appt out CMMA	A0100	TN	01/19/2018	01/19/2018	No	2	1		same	(631) 336-4112	40.4	01/19/2018	1300	25 Pine St	 	New York	NY	10005	01/19/2018	1400	600 Northern Blvd	  	Great Neck	NY	11021	20.2	2 additional riders		No	136230898
2504293	1346	565031570	Leg	Maylene	A	Hawkinslingo	PT03668K	F	(631) 336-4112	09/14/2009	ZUCKER HILLSIDE HOSPITAL		1104990928	Clean Air Car Svc & Parking (NYC)	Livery/MN-Med Appt out CMMA	A0100	TN	01/19/2018	01/19/2018	No	2	1		same	(631) 336-4112	40.4	01/19/2018	Call	600 Northern Blvd	 	Great Neck	NY	11021	01/19/2018	Call	25 Pine St	  	New York	NY	10005	20.2			No	136230899
2504293	1347	565031570	Service	Maylene	A	Hawkinslingo	PT03668K	F	(631) 336-4112	09/14/2009	ZUCKER HILLSIDE HOSPITAL		1104990928	Clean Air Car Svc & Parking (NYC)	Tolls-Universal	A0170	CG	01/19/2018	01/19/2018	No	2	1																					Tolls-Universal	136230898
2504293	1348	565031570	Service	Maylene	A	Hawkinslingo	PT03668K	F	(631) 336-4112	09/14/2009	ZUCKER HILLSIDE HOSPITAL		1104990928	Clean Air Car Svc & Parking (NYC)	Livery-Manhattan Surcharge	A0100	SC	01/19/2018	01/19/2018	No	2	1																					Livery-Manhattan Surcharge	136230898
2504293	1349	565031570	Service	Maylene	A	Hawkinslingo	PT03668K	F	(631) 336-4112	09/14/2009	ZUCKER HILLSIDE HOSPITAL		1104990928	Clean Air Car Svc & Parking (NYC)	Livery-Manhattan Surcharge	A0100	SC	01/19/2018	01/19/2018	No	2	1																					Livery-Manhattan Surcharge	136230899
2504293	1350	565031570	Service	Maylene	A	Hawkinslingo	PT03668K	F	(631) 336-4112	09/14/2009	ZUCKER HILLSIDE HOSPITAL		1104990928	Clean Air Car Svc & Parking (NYC)	Mileage-Livery out of NYC	S0215	TN	01/19/2018	01/19/2018	No	2	1																					Mileage-Livery out of NYC	136230898
2504293	1351	565031570	Service	Maylene	A	Hawkinslingo	PT03668K	F	(631) 336-4112	09/14/2009	ZUCKER HILLSIDE HOSPITAL		1104990928	Clean Air Car Svc & Parking (NYC)	Mileage-Livery out of NYC	S0215	TN	01/19/2018	01/19/2018	No	2	1																					Mileage-Livery out of NYC	136230899
2504293	1352	565064080	Leg	Sharon		Caffey	XQ37608H	F	(718) 301-3775	09/04/1964	Bradnock Howard		1225002751	Clean Air Car Svc & Parking (NYC)	Livery/QN-Med Appt out CMMA	A0100	TN	01/10/2018	01/10/2018	No	4	1		self	(718) 301-3775	53.2	01/10/2018	0715	3441 Linden Pl	Apt 2B 	Flushing	NY	11354	01/10/2018	0830	150 55th St	  	Brooklyn	NY	11220	17.2			No	136238177
2504293	1353	565064080	Leg	Sharon		Caffey	XQ37608H	F	(718) 301-3775	09/04/1964	Bradnock Howard		1225002751	Clean Air Car Svc & Parking (NYC)	Livery/QN-Med Appt out CMMA	A0100	TN	01/10/2018	01/10/2018	No	4	1		self	(718) 301-3775	53.2	01/10/2018	Call	150 55th St	 	Brooklyn	NY	11220	01/10/2018	Call	3441 Linden Pl	Apt 2B 	Flushing	NY	11354	17.2			No	136238178
2504293	1354	565064080	Leg	Sharon		Caffey	XQ37608H	F	(718) 301-3775	09/04/1964	Bradnock Howard		1225002751	Clean Air Car Svc & Parking (NYC)	Livery/QN-Med Appt out CMMA	A0100	TN	01/10/2018	01/10/2018	No	4	1		self	(718) 301-3775	53.2	01/10/2018	1415	3441 Linden Pl	Apt 2B 	Flushing	NY	11354	01/10/2018	1530	1305 York Ave	  -	New York	NY	10021	9.4			No	136238241
2504293	1355	565064080	Leg	Sharon		Caffey	XQ37608H	F	(718) 301-3775	09/04/1964	Bradnock Howard		1225002751	Clean Air Car Svc & Parking (NYC)	Livery/QN-Med Appt out CMMA	A0100	TN	01/10/2018	01/10/2018	No	4	1		self	(718) 301-3775	53.2	01/10/2018	Call	1305 York Ave	 -	New York	NY	10021	01/10/2018	Call	3441 Linden Pl	Apt 2B 	Flushing	NY	11354	9.4			No	136238242
2504293	1356	565064080	Service	Sharon		Caffey	XQ37608H	F	(718) 301-3775	09/04/1964	Bradnock Howard		1225002751	Clean Air Car Svc & Parking (NYC)	Tolls-Universal	A0170	CG	01/10/2018	01/10/2018	No	4	1																					Tolls-Universal	136238177
2504293	1357	565064080	Service	Sharon		Caffey	XQ37608H	F	(718) 301-3775	09/04/1964	Bradnock Howard		1225002751	Clean Air Car Svc & Parking (NYC)	Mileage-Livery in NYC	S0215		01/10/2018	01/10/2018	No	4	1																					Mileage-Livery in NYC	136238177
2504293	1358	565064080	Service	Sharon		Caffey	XQ37608H	F	(718) 301-3775	09/04/1964	Bradnock Howard		1225002751	Clean Air Car Svc & Parking (NYC)	Mileage-Livery in NYC	S0215		01/10/2018	01/10/2018	No	4	1																					Mileage-Livery in NYC	136238178
2504293	1359	565064080	Service	Sharon		Caffey	XQ37608H	F	(718) 301-3775	09/04/1964	Bradnock Howard		1225002751	Clean Air Car Svc & Parking (NYC)	Mileage-Livery in NYC	S0215		01/10/2018	01/10/2018	No	4	1																					Mileage-Livery in NYC	136238241
2504293	1360	565064080	Service	Sharon		Caffey	XQ37608H	F	(718) 301-3775	09/04/1964	Bradnock Howard		1225002751	Clean Air Car Svc & Parking (NYC)	Mileage-Livery in NYC	S0215		01/10/2018	01/10/2018	No	4	1																					Mileage-Livery in NYC	136238242
2504293	1361	565064080	Service	Sharon		Caffey	XQ37608H	F	(718) 301-3775	09/04/1964	Bradnock Howard		1225002751	Clean Air Car Svc & Parking (NYC)	Livery-Manhattan Surcharge	A0100	SC	01/10/2018	01/10/2018	No	4	1																					Livery-Manhattan Surcharge	136238241
2504293	1362	565064080	Service	Sharon		Caffey	XQ37608H	F	(718) 301-3775	09/04/1964	Bradnock Howard		1225002751	Clean Air Car Svc & Parking (NYC)	Livery-Manhattan Surcharge	A0100	SC	01/10/2018	01/10/2018	No	4	1																					Livery-Manhattan Surcharge	136238242
2504293	1363	565130460	Leg	Xiaofang		Luo	KF17862J	F	(347) 527-8655	11/02/1945	Brooklyn Hospital Center	000	1326046467	Clean Air Car Svc & Parking (NYC)	Livery/BK-Med Appt out CMMA	A0100	TN	01/15/2018	01/15/2018	Yes	2	1		Lizzy , Daughter	(347) 527-8655	36.2	01/15/2018	1030	35 Oliver St	apt 4h 	Brooklyn	NY	11209	01/15/2018	1130	4235 Main St	  Main	Flushing	NY	11355	18.1	S/O Mon - Only, Additional Rider		No	136254607
2504293	1364	565130460	Leg	Xiaofang		Luo	KF17862J	F	(347) 527-8655	11/02/1945	Brooklyn Hospital Center	000	1326046467	Clean Air Car Svc & Parking (NYC)	Livery/BK-Med Appt out CMMA	A0100	TN	01/15/2018	01/15/2018	Yes	2	1		Lizzy , Daughter	(347) 527-8655	36.2	01/15/2018	Call	4235 Main St	 	Flushing	NY	11355	01/15/2018	Call	35 Oliver St	apt 4h 	Brooklyn	NY	11209	18.1	S/O Mon - Only, Additional Rider		No	136254632
2504293	1365	565130460	Service	Xiaofang		Luo	KF17862J	F	(347) 527-8655	11/02/1945	Brooklyn Hospital Center	000	1326046467	Clean Air Car Svc & Parking (NYC)	Mileage-Livery in NYC	S0215		01/15/2018	01/15/2018	Yes	2	1																					Mileage-Livery in NYC	136254607
2504293	1366	565130460	Service	Xiaofang		Luo	KF17862J	F	(347) 527-8655	11/02/1945	Brooklyn Hospital Center	000	1326046467	Clean Air Car Svc & Parking (NYC)	Tolls-Universal	A0170	CG	01/15/2018	01/15/2018	Yes	2	1																					Tolls-Universal	136254607
2504293	1367	565130460	Service	Xiaofang		Luo	KF17862J	F	(347) 527-8655	11/02/1945	Brooklyn Hospital Center	000	1326046467	Clean Air Car Svc & Parking (NYC)	Mileage-Livery in NYC	S0215		01/15/2018	01/15/2018	Yes	2	1																					Mileage-Livery in NYC	136254632
2504293	1368	565130480	Leg	Xiaofang		Luo	KF17862J	F	(347) 527-8655	11/02/1945	Brooklyn Hospital Center	000	1326046467	Clean Air Car Svc & Parking (NYC)	Livery/BK-Med Appt out CMMA	A0100	TN	01/29/2018	01/29/2018	Yes	2	1		Lizzy , Daughter	(347) 527-8655	36.2	01/29/2018	1030	35 Oliver St	apt 4h 	Brooklyn	NY	11209	01/29/2018	1130	4235 Main St	  Main	Flushing	NY	11355	18.1	S/O Mon - Only, Additional Rider		No	136254609
2504293	1369	565130480	Leg	Xiaofang		Luo	KF17862J	F	(347) 527-8655	11/02/1945	Brooklyn Hospital Center	000	1326046467	Clean Air Car Svc & Parking (NYC)	Livery/BK-Med Appt out CMMA	A0100	TN	01/29/2018	01/29/2018	Yes	2	1		Lizzy , Daughter	(347) 527-8655	36.2	01/29/2018	Call	4235 Main St	 	Flushing	NY	11355	01/29/2018	Call	35 Oliver St	apt 4h 	Brooklyn	NY	11209	18.1	S/O Mon - Only, Additional Rider		No	136254634
2504293	1370	565130480	Service	Xiaofang		Luo	KF17862J	F	(347) 527-8655	11/02/1945	Brooklyn Hospital Center	000	1326046467	Clean Air Car Svc & Parking (NYC)	Mileage-Livery in NYC	S0215		01/29/2018	01/29/2018	Yes	2	1																					Mileage-Livery in NYC	136254609
2504293	1371	565130480	Service	Xiaofang		Luo	KF17862J	F	(347) 527-8655	11/02/1945	Brooklyn Hospital Center	000	1326046467	Clean Air Car Svc & Parking (NYC)	Tolls-Universal	A0170	CG	01/29/2018	01/29/2018	Yes	2	1																					Tolls-Universal	136254609
2504293	1372	565130480	Service	Xiaofang		Luo	KF17862J	F	(347) 527-8655	11/02/1945	Brooklyn Hospital Center	000	1326046467	Clean Air Car Svc & Parking (NYC)	Mileage-Livery in NYC	S0215		01/29/2018	01/29/2018	Yes	2	1																					Mileage-Livery in NYC	136254634
2504293	1373	565507490	Leg	Georgina		Aspinall	NU31944B	F	3473395772	01/08/1991	Bronx Lebanon Hospital	000	1538230073	Clean Air Car Svc & Parking (NYC)	Livery/BX-Med Appt out CMMA	A0100	TN	01/18/2018	01/18/2018	No	2	1		Self	3473395772	15.2	01/18/2018	0750	2049 McGraw Ave	 	Bronx	NY	10462	01/18/2018	0830	1470 Madison Ave	  	New York	NY	10029	7.6			No	136339764
2504293	1374	565507490	Leg	Georgina		Aspinall	NU31944B	F	3473395772	01/08/1991	Bronx Lebanon Hospital	000	1538230073	Clean Air Car Svc & Parking (NYC)	Livery/BX-Med Appt out CMMA	A0100	TN	01/18/2018	01/18/2018	No	2	1		Self	3473395772	15.2	01/18/2018	CALL	1470 Madison Ave	 	New York	NY	10029	01/18/2018	CALL	2049 McGraw Ave	  	Bronx	NY	10462	7.6			No	136339765
2504293	1375	565507490	Service	Georgina		Aspinall	NU31944B	F	3473395772	01/08/1991	Bronx Lebanon Hospital	000	1538230073	Clean Air Car Svc & Parking (NYC)	Tolls-Universal	A0170	CG	01/18/2018	01/18/2018	No	2	1																					Tolls-Universal	136339764
2504293	1376	565507490	Service	Georgina		Aspinall	NU31944B	F	3473395772	01/08/1991	Bronx Lebanon Hospital	000	1538230073	Clean Air Car Svc & Parking (NYC)	Livery-Manhattan Surcharge	A0100	SC	01/18/2018	01/18/2018	No	2	1																					Livery-Manhattan Surcharge	136339764
2504293	1377	565507490	Service	Georgina		Aspinall	NU31944B	F	3473395772	01/08/1991	Bronx Lebanon Hospital	000	1538230073	Clean Air Car Svc & Parking (NYC)	Livery-Manhattan Surcharge	A0100	SC	01/18/2018	01/18/2018	No	2	1																					Livery-Manhattan Surcharge	136339765
2504293	1378	565539450	Leg	Leslie		Burton	ZB53121Q	M	(718) 717-5343	09/06/1959	PAPPAS PHYSICAL MEDICINE		1538132154	Clean Air Car Svc & Parking (NYC)	Livery/QN-Med Appt in CMMA	A0100		01/24/2018	01/24/2018	No	2	1		SELF	(718) 717-5343	6.6	01/24/2018	0930	3553 12th St	Apt 2H 	Astoria	NY	11106	01/24/2018	1015	1305 York Ave	  MAIN	New York	NY	10021	3.3			No	136346903
2504293	1379	565539450	Leg	Leslie		Burton	ZB53121Q	M	(718) 717-5343	09/06/1959	PAPPAS PHYSICAL MEDICINE		1538132154	Clean Air Car Svc & Parking (NYC)	Livery/QN-Med Appt in CMMA	A0100		01/24/2018	01/24/2018	No	2	1		SELF	(718) 717-5343	6.6	01/24/2018	Call	1305 York Ave	 MAIN	New York	NY	10021	01/24/2018	Call	3553 12th St	Apt 2H 	Astoria	NY	11106	3.3			No	136346904
2504293	1380	565539450	Service	Leslie		Burton	ZB53121Q	M	(718) 717-5343	09/06/1959	PAPPAS PHYSICAL MEDICINE		1538132154	Clean Air Car Svc & Parking (NYC)	Tolls-Universal	A0170	CG	01/24/2018	01/24/2018	No	2	1																					Tolls-Universal	136346903
2504293	1381	565539450	Service	Leslie		Burton	ZB53121Q	M	(718) 717-5343	09/06/1959	PAPPAS PHYSICAL MEDICINE		1538132154	Clean Air Car Svc & Parking (NYC)	Livery-Manhattan Surcharge	A0100	SC	01/24/2018	01/24/2018	No	2	1																					Livery-Manhattan Surcharge	136346903
2504293	1382	565539450	Service	Leslie		Burton	ZB53121Q	M	(718) 717-5343	09/06/1959	PAPPAS PHYSICAL MEDICINE		1538132154	Clean Air Car Svc & Parking (NYC)	Livery-Manhattan Surcharge	A0100	SC	01/24/2018	01/24/2018	No	2	1																					Livery-Manhattan Surcharge	136346904
2504293	1383	565540530	Leg	Leonora		Pena	XF63816N	F	(212) 928-9024	07/30/1928	NY Presbyterian Hospital	0000000	1952332801	Clean Air Car Svc & Parking (NYC)	Livery/MN-Med Appt out CMMA	A0100	TN	01/17/2018	01/17/2018	No	2	1		Ramon................Village care	212-377-5600 ext 6347	21.6	01/17/2018	1000	524 W 184th St	Apt # 1A 	New York	NY	10033	01/17/2018	1100	250 E Houston St	  main	New York	NY	10002	10.8	Additional Rider		No	136347533
2504293	1384	565540530	Leg	Leonora		Pena	XF63816N	F	(212) 928-9024	07/30/1928	NY Presbyterian Hospital	0000000	1952332801	Clean Air Car Svc & Parking (NYC)	Livery/MN-Med Appt out CMMA	A0100	TN	01/17/2018	01/17/2018	No	2	1		Ramon................Village care	212-377-5600 ext 6347	21.6	01/17/2018	Call	250 E Houston St	 main	New York	NY	10002	01/17/2018	Call	524 W 184th St	Apt # 1A 	New York	NY	10033	10.8			No	136347535
2504293	1385	565540530	Service	Leonora		Pena	XF63816N	F	(212) 928-9024	07/30/1928	NY Presbyterian Hospital	0000000	1952332801	Clean Air Car Svc & Parking (NYC)	Livery-Manhattan Surcharge	A0100	SC	01/17/2018	01/17/2018	No	2	1																					Livery-Manhattan Surcharge	136347533
2504293	1386	565540530	Service	Leonora		Pena	XF63816N	F	(212) 928-9024	07/30/1928	NY Presbyterian Hospital	0000000	1952332801	Clean Air Car Svc & Parking (NYC)	Livery-Manhattan Surcharge	A0100	SC	01/17/2018	01/17/2018	No	2	1																					Livery-Manhattan Surcharge	136347535
2504293	1387	565540530	Service	Leonora		Pena	XF63816N	F	(212) 928-9024	07/30/1928	NY Presbyterian Hospital	0000000	1952332801	Clean Air Car Svc & Parking (NYC)	Mileage-Livery in NYC	S0215		01/17/2018	01/17/2018	No	2	1																					Mileage-Livery in NYC	136347533
2504293	1388	565540530	Service	Leonora		Pena	XF63816N	F	(212) 928-9024	07/30/1928	NY Presbyterian Hospital	0000000	1952332801	Clean Air Car Svc & Parking (NYC)	Mileage-Livery in NYC	S0215		01/17/2018	01/17/2018	No	2	1																					Mileage-Livery in NYC	136347535
2504293	1389	565558690	Leg	Reshma		Maharaj	KD54352J	F	(347) 500-4614	11/06/1980	Mcdonald Annmarie		1003976341	Clean Air Car Svc & Parking (NYC)	Livery/QN-Med Appt out CMMA	A0100	TN	01/13/2018	01/13/2018	No	2	1		self	(347) 500-4614	35.2	01/13/2018	1101	10459 121st St	 -	South Richmond Hill	NY	11419	01/13/2018	1201	622 W 168th St	  -	New York	NY	10032	17.6	s/o tues thurs and sat		No	136350598
2504293	1390	565558690	Leg	Reshma		Maharaj	KD54352J	F	(347) 500-4614	11/06/1980	Mcdonald Annmarie		1003976341	Clean Air Car Svc & Parking (NYC)	Livery/QN-Med Appt out CMMA	A0100	TN	01/13/2018	01/13/2018	No	2	1		self	(347) 500-4614	35.2	01/13/2018	Call	622 W 168th St	 -	New York	NY	10032	01/13/2018	Call	10459 121st St	  -	South Richmond Hill	NY	11419	17.6	s/o tues thurs and sat		No	136350599
2504293	1391	565558690	Service	Reshma		Maharaj	KD54352J	F	(347) 500-4614	11/06/1980	Mcdonald Annmarie		1003976341	Clean Air Car Svc & Parking (NYC)	Mileage-Livery in NYC	S0215		01/13/2018	01/13/2018	No	2	1																					Mileage-Livery in NYC	136350598
2504293	1392	565558690	Service	Reshma		Maharaj	KD54352J	F	(347) 500-4614	11/06/1980	Mcdonald Annmarie		1003976341	Clean Air Car Svc & Parking (NYC)	Mileage-Livery in NYC	S0215		01/13/2018	01/13/2018	No	2	1																					Mileage-Livery in NYC	136350599
2504293	1393	565558690	Service	Reshma		Maharaj	KD54352J	F	(347) 500-4614	11/06/1980	Mcdonald Annmarie		1003976341	Clean Air Car Svc & Parking (NYC)	Tolls-Universal	A0170	CG	01/13/2018	01/13/2018	No	2	1																					Tolls-Universal	136350598
2504293	1394	565562460	Leg	Sheila		Keller	ZE34714D	F	(929) 307-9064	06/12/1960	Bharel Virendra		1720172042	Clean Air Car Svc & Parking (NYC)	Livery/QN-Med Appt in CMMA	A0100		01/18/2018	01/18/2018	No	2	1		self	(929) 307-9064	4.6	01/18/2018	1330	6544 Parsons Blvd	Apt 2B 	Flushing	NY	11365	01/18/2018	1430	8902 165th St	  main	Jamaica	NY	11432	2.3			No	136351188
2504293	1395	565562460	Leg	Sheila		Keller	ZE34714D	F	(929) 307-9064	06/12/1960	Bharel Virendra		1720172042	Clean Air Car Svc & Parking (NYC)	Livery/QN-Med Appt in CMMA	A0100		01/18/2018	01/18/2018	No	2	1		self	(929) 307-9064	4.6	01/18/2018	Call	8902 165th St	 main	Jamaica	NY	11432	01/18/2018	Call	6544 Parsons Blvd	Apt 2B 	Flushing	NY	11365	2.3			No	136351189
2504293	1396	565602450	Leg	John	F	Harmon	ST38406Z	M	(347) 848-5261	01/19/1961	NEWTOWN DIALYSIS CENTER		1013915222	Clean Air Car Svc & Parking (NYC)	Livery/QN-Med Appt in CMMA	A0100		01/12/2018	01/12/2018	No	2	1		self	(347) 848-5261	7.4	01/12/2018	0700	4112 10th St	Apt 2F 	Long Island City	NY	11101	01/12/2018	0800	560 1st Ave	  	New York	NY	10016	3.7	1 Additional rider(s). 1 Additional rider(s). 1 Additional rider(s). Additional Rider		No	136361435
2504293	1397	565602450	Leg	John	F	Harmon	ST38406Z	M	(347) 848-5261	01/19/1961	NEWTOWN DIALYSIS CENTER		1013915222	Clean Air Car Svc & Parking (NYC)	Livery/QN-Med Appt in CMMA	A0100		01/12/2018	01/12/2018	No	2	1		self	(347) 848-5261	7.4	01/12/2018	Call	560 1st Ave	 	New York	NY	10016	01/12/2018	Call	4112 10th St	Apt 2F 	Long Island City	NY	11101	3.7	1 Additional rider(s). 1 Additional rider(s). 1 Additional rider(s). Additional Rider		No	136361436
2504293	1398	565602450	Service	John	F	Harmon	ST38406Z	M	(347) 848-5261	01/19/1961	NEWTOWN DIALYSIS CENTER		1013915222	Clean Air Car Svc & Parking (NYC)	Tolls-Universal	A0170	CG	01/12/2018	01/12/2018	No	2	1																					Tolls-Universal	136361435
2504293	1399	565602450	Service	John	F	Harmon	ST38406Z	M	(347) 848-5261	01/19/1961	NEWTOWN DIALYSIS CENTER		1013915222	Clean Air Car Svc & Parking (NYC)	Livery-Manhattan Surcharge	A0100	SC	01/12/2018	01/12/2018	No	2	1																					Livery-Manhattan Surcharge	136361435
2504293	1400	565602450	Service	John	F	Harmon	ST38406Z	M	(347) 848-5261	01/19/1961	NEWTOWN DIALYSIS CENTER		1013915222	Clean Air Car Svc & Parking (NYC)	Livery-Manhattan Surcharge	A0100	SC	01/12/2018	01/12/2018	No	2	1																					Livery-Manhattan Surcharge	136361436
2504293	1401	565671020	Leg	Alexandros		Katechis	UZ10132J	M	(347) 612-4416	01/10/1936	BALAESCU, MIHAELA		1952414815	Clean Air Car Svc & Parking (NYC)	Livery/QN-Med Appt in CMMA	A0100		01/12/2018	01/12/2018	No	2	1			(347) 612-4416	5.6	01/12/2018	0900	96 15    41st Ave             3	 -	Corona	NY	11368	01/12/2018	1000	4701 Queens Blvd	  -	Sunnyside	NY	11104	2.8			No	136375758
2504293	1402	565671020	Leg	Alexandros		Katechis	UZ10132J	M	(347) 612-4416	01/10/1936	BALAESCU, MIHAELA		1952414815	Clean Air Car Svc & Parking (NYC)	Livery/QN-Med Appt in CMMA	A0100		01/12/2018	01/12/2018	No	2	1			(347) 612-4416	5.6	01/12/2018	Call	4701 Queens Blvd	 -	Sunnyside	NY	11104	01/12/2018	Call	96 15    41st Ave             3	  -	Corona	NY	11368	2.8			No	136375759
2504293	1403	565671950	Leg	Kiana		Mesa	UW76744U	M	(718) 292-3514 X 803	05/17/1985	Bronx Lebanon Hospital	000	1538230073	Clean Air Car Svc & Parking (NYC)	Livery/BX-Med Appt in CMMA	A0100		01/16/2018	01/16/2018	No	2	1		rita case manger	(718) 292-3514 X 803	4.4	01/16/2018	1115	514 Concord Ave	 home	Bronx	NY	10455	01/16/2018	1215	2265 3rd Ave	  main	New York	NY	10035	2.2			No	136375917
2504293	1404	565671950	Leg	Kiana		Mesa	UW76744U	M	(718) 292-3514 X 803	05/17/1985	Bronx Lebanon Hospital	000	1538230073	Clean Air Car Svc & Parking (NYC)	Livery/BX-Med Appt in CMMA	A0100		01/16/2018	01/16/2018	No	2	1		rita case manger	(718) 292-3514 X 803	4.4	01/16/2018	call	2265 3rd Ave	 main	New York	NY	10035	01/16/2018	Call	514 Concord Ave	  home	Bronx	NY	10455	2.2			No	136375918
2504293	1405	565671950	Service	Kiana		Mesa	UW76744U	M	(718) 292-3514 X 803	05/17/1985	Bronx Lebanon Hospital	000	1538230073	Clean Air Car Svc & Parking (NYC)	Tolls-Universal	A0170	CG	01/16/2018	01/16/2018	No	2	1																					Tolls-Universal	136375917
2504293	1406	565700520	Leg	Qinqing		Chen	NG13794X	M	(917) 703-1721	05/02/1962	Leali Alejandro		1306929302	Clean Air Car Svc & Parking (NYC)	Livery/QN-Med Appt out CMMA	A0100	TN	01/11/2018	01/11/2018	No	2	1		enrollee	(917) 703-1721	25.4	01/11/2018	1430	6112 37th Ave	# 1FL 	Woodside	NY	11377	01/11/2018	1530	27005 76th Ave	  main	New Hyde Park	NY	11040	12.7	Additional Rider		No	136383014
2504293	1407	565700520	Leg	Qinqing		Chen	NG13794X	M	(917) 703-1721	05/02/1962	Leali Alejandro		1306929302	Clean Air Car Svc & Parking (NYC)	Livery/QN-Med Appt out CMMA	A0100	TN	01/11/2018	01/11/2018	No	2	1		enrollee	(917) 703-1721	25.4	01/11/2018	Call	27005 76th Ave	 main	New Hyde Park	NY	11040	01/11/2018	Call	6112 37th Ave	# 1FL 	Woodside	NY	11377	12.7			No	136383016
2504293	1408	565700520	Service	Qinqing		Chen	NG13794X	M	(917) 703-1721	05/02/1962	Leali Alejandro		1306929302	Clean Air Car Svc & Parking (NYC)	Mileage-Livery in NYC	S0215		01/11/2018	01/11/2018	No	2	1																					Mileage-Livery in NYC	136383014
2504293	1409	565700520	Service	Qinqing		Chen	NG13794X	M	(917) 703-1721	05/02/1962	Leali Alejandro		1306929302	Clean Air Car Svc & Parking (NYC)	Mileage-Livery in NYC	S0215		01/11/2018	01/11/2018	No	2	1																					Mileage-Livery in NYC	136383016
2504293	1410	565884580	Leg	Maylene	A	Hawkinslingo	PT03668K	F	(631) 336-4112	09/14/2009	ZUCKER HILLSIDE HOSPITAL		1104990928	Clean Air Car Svc & Parking (NYC)	Livery/MN-Med Appt out CMMA	A0100	TN	01/11/2018	01/11/2018	No	2	1		yanique mom	(631) 336-4112	28.4	01/11/2018	1500	25 Pine St	 home	New York	NY	10005	01/11/2018	1600	8900 Van Wyck Expwy	  main	Jamaica	NY	11418	14.2	1 Additional rider(s). 1 Additional rider(s). Additional Rider		No	136428865
2504293	1411	565884580	Leg	Maylene	A	Hawkinslingo	PT03668K	F	(631) 336-4112	09/14/2009	ZUCKER HILLSIDE HOSPITAL		1104990928	Clean Air Car Svc & Parking (NYC)	Livery/MN-Med Appt out CMMA	A0100	TN	01/11/2018	01/11/2018	No	2	1		yanique mom	(631) 336-4112	28.4	01/11/2018	Call	8900 Van Wyck Expwy	 main	Jamaica	NY	11418	01/11/2018	Call	25 Pine St	  home	New York	NY	10005	14.2	1 Additional rider(s). 1 Additional rider(s). Additional Rider		No	136428866
2504293	1412	565884580	Service	Maylene	A	Hawkinslingo	PT03668K	F	(631) 336-4112	09/14/2009	ZUCKER HILLSIDE HOSPITAL		1104990928	Clean Air Car Svc & Parking (NYC)	Mileage-Livery in NYC	S0215		01/11/2018	01/11/2018	No	2	1																					Mileage-Livery in NYC	136428865
2504293	1413	565884580	Service	Maylene	A	Hawkinslingo	PT03668K	F	(631) 336-4112	09/14/2009	ZUCKER HILLSIDE HOSPITAL		1104990928	Clean Air Car Svc & Parking (NYC)	Mileage-Livery in NYC	S0215		01/11/2018	01/11/2018	No	2	1																					Mileage-Livery in NYC	136428866
2504293	1414	565884580	Service	Maylene	A	Hawkinslingo	PT03668K	F	(631) 336-4112	09/14/2009	ZUCKER HILLSIDE HOSPITAL		1104990928	Clean Air Car Svc & Parking (NYC)	Tolls-Universal	A0170	CG	01/11/2018	01/11/2018	No	2	1																					Tolls-Universal	136428865
2504293	1415	565884580	Service	Maylene	A	Hawkinslingo	PT03668K	F	(631) 336-4112	09/14/2009	ZUCKER HILLSIDE HOSPITAL		1104990928	Clean Air Car Svc & Parking (NYC)	Livery-Manhattan Surcharge	A0100	SC	01/11/2018	01/11/2018	No	2	1																					Livery-Manhattan Surcharge	136428865
2504293	1416	565884580	Service	Maylene	A	Hawkinslingo	PT03668K	F	(631) 336-4112	09/14/2009	ZUCKER HILLSIDE HOSPITAL		1104990928	Clean Air Car Svc & Parking (NYC)	Livery-Manhattan Surcharge	A0100	SC	01/11/2018	01/11/2018	No	2	1																					Livery-Manhattan Surcharge	136428866
2504293	1417	565917660	Leg	Sharon		Caffey	XQ37608H	F	(718) 301-3775	09/04/1964	Bradnock Howard		1225002751	Clean Air Car Svc & Parking (NYC)	Livery/QN-Med Appt out CMMA	A0100	TN	01/11/2018	01/11/2018	No	4	1		self	(718) 301-3775	55.4	01/11/2018	0745	3441 Linden Pl	Apt 2B 	Flushing	NY	11354	01/11/2018	0830	7517 6th Ave	  main	Brooklyn	NY	11209	18.3			No	136437178
2504293	1418	565917660	Leg	Sharon		Caffey	XQ37608H	F	(718) 301-3775	09/04/1964	Bradnock Howard		1225002751	Clean Air Car Svc & Parking (NYC)	Livery/QN-Med Appt out CMMA	A0100	TN	01/11/2018	01/11/2018	No	4	1		self	(718) 301-3775	55.4	01/11/2018	Call	7517 6th Ave	 main	Brooklyn	NY	11209	01/11/2018	Call	3441 Linden Pl	Apt 2B 	Flushing	NY	11354	18.3			No	136437179
2504293	1419	565917660	Leg	Sharon		Caffey	XQ37608H	F	(718) 301-3775	09/04/1964	Bradnock Howard		1225002751	Clean Air Car Svc & Parking (NYC)	Livery/QN-Med Appt out CMMA	A0100	TN	01/11/2018	01/11/2018	No	4	1		self	(718) 301-3775	55.4	01/11/2018	1415	3441 Linden Pl	Apt 2B 	Flushing	NY	11354	01/11/2018	1530	1305 York Ave	  main	New York	NY	10021	9.4			No	136437753
2504293	1420	565917660	Leg	Sharon		Caffey	XQ37608H	F	(718) 301-3775	09/04/1964	Bradnock Howard		1225002751	Clean Air Car Svc & Parking (NYC)	Livery/QN-Med Appt out CMMA	A0100	TN	01/11/2018	01/11/2018	No	4	1		self	(718) 301-3775	55.4	01/11/2018	call	1305 York Ave	 main	New York	NY	10021	01/11/2018	Call	3441 Linden Pl	Apt 2B 	Flushing	NY	11354	9.4			No	136438610
2504293	1421	565917660	Service	Sharon		Caffey	XQ37608H	F	(718) 301-3775	09/04/1964	Bradnock Howard		1225002751	Clean Air Car Svc & Parking (NYC)	Tolls-Universal	A0170	CG	01/11/2018	01/11/2018	No	4	1																					Tolls-Universal	136437178
2504293	1422	565917660	Service	Sharon		Caffey	XQ37608H	F	(718) 301-3775	09/04/1964	Bradnock Howard		1225002751	Clean Air Car Svc & Parking (NYC)	Mileage-Livery in NYC	S0215		01/11/2018	01/11/2018	No	4	1																					Mileage-Livery in NYC	136437178
2504293	1423	565917660	Service	Sharon		Caffey	XQ37608H	F	(718) 301-3775	09/04/1964	Bradnock Howard		1225002751	Clean Air Car Svc & Parking (NYC)	Mileage-Livery in NYC	S0215		01/11/2018	01/11/2018	No	4	1																					Mileage-Livery in NYC	136437179
2504293	1424	565917660	Service	Sharon		Caffey	XQ37608H	F	(718) 301-3775	09/04/1964	Bradnock Howard		1225002751	Clean Air Car Svc & Parking (NYC)	Mileage-Livery in NYC	S0215		01/11/2018	01/11/2018	No	4	1																					Mileage-Livery in NYC	136437753
2504293	1425	565917660	Service	Sharon		Caffey	XQ37608H	F	(718) 301-3775	09/04/1964	Bradnock Howard		1225002751	Clean Air Car Svc & Parking (NYC)	Livery-Manhattan Surcharge	A0100	SC	01/11/2018	01/11/2018	No	4	1																					Livery-Manhattan Surcharge	136437753
2504293	1426	565917660	Service	Sharon		Caffey	XQ37608H	F	(718) 301-3775	09/04/1964	Bradnock Howard		1225002751	Clean Air Car Svc & Parking (NYC)	Mileage-Livery in NYC	S0215		01/11/2018	01/11/2018	No	4	1																					Mileage-Livery in NYC	136438610
2504293	1427	565917660	Service	Sharon		Caffey	XQ37608H	F	(718) 301-3775	09/04/1964	Bradnock Howard		1225002751	Clean Air Car Svc & Parking (NYC)	Livery-Manhattan Surcharge	A0100	SC	01/11/2018	01/11/2018	No	4	1																					Livery-Manhattan Surcharge	136438610
2504293	1428	565919660	Leg	Paul		Kingsley	YX10234D	M	7185095052	04/21/1960	Brooklyn Hospital Center	000	1326046467	Clean Air Car Svc & Parking (NYC)	Livery/BK-Med Appt in CMMA	A0100		01/12/2018	01/12/2018	No	2	1		Ramone-Care Manager	7185095052	9.8	01/12/2018	1400	1784 Linden Blvd	 	Brooklyn	NY	11207	01/12/2018	1515	6108 Linden St	  	Ridgewood	NY	11385	4.9			No	136437763
2504293	1429	565919660	Leg	Paul		Kingsley	YX10234D	M	7185095052	04/21/1960	Brooklyn Hospital Center	000	1326046467	Clean Air Car Svc & Parking (NYC)	Livery/BK-Med Appt in CMMA	A0100		01/12/2018	01/12/2018	No	2	1		Ramone-Care Manager	7185095052	9.8	01/12/2018	CALL	6108 Linden St	 	Ridgewood	NY	11385	01/12/2018	CALL	1784 Linden Blvd	  	Brooklyn	NY	11207	4.9			No	136437764
2504293	1430	565919660	Service	Paul		Kingsley	YX10234D	M	7185095052	04/21/1960	Brooklyn Hospital Center	000	1326046467	Clean Air Car Svc & Parking (NYC)	Tolls-Universal	A0170	CG	01/12/2018	01/12/2018	No	2	1																					Tolls-Universal	136437763
2504293	1431	565927870	Leg	Ingrid		Rastogi	QY13671Z	F	(646) 418-9657	02/26/1983	Queens Hospital	000	1801803903	Clean Air Car Svc & Parking (NYC)	Livery/QN-Med Appt in CMMA	A0100		01/11/2018	01/11/2018	No	2	1		self	(646) 418-9657	1.2	01/11/2018	0830	8534 148th St	 home	Jamaica	NY	11435	01/11/2018	0930	9027 Sutphin Blvd	  main	Jamaica	NY	11435	.6	s/o tue,wed, thur		No	136438507
2504293	1432	565927870	Leg	Ingrid		Rastogi	QY13671Z	F	(646) 418-9657	02/26/1983	Queens Hospital	000	1801803903	Clean Air Car Svc & Parking (NYC)	Livery/QN-Med Appt in CMMA	A0100		01/11/2018	01/11/2018	No	2	1		self	(646) 418-9657	1.2	01/11/2018	Call	9027 Sutphin Blvd	 main	Jamaica	NY	11435	01/11/2018	Call	8534 148th St	  home	Jamaica	NY	11435	.6	s/o tue,wed, thur		No	136438508
2504293	1433	566135910	Leg	Leonel	A	Ortiz	XX50118N	M	7188468188	03/27/1967	Perez Xavier		1558555649	Clean Air Car Svc & Parking (NYC)	Livery/QN-Med Appt out CMMA	A0100	TN	01/20/2018	01/20/2018	No	2	1		martha-sister	7188468188	11.0	01/20/2018	1030	8751 108th St	 	Richmond Hill	NY	11418	01/20/2018	1130	3764 72nd St	  	Jackson Heights	NY	11372	5.5			No	136487137
2504293	1434	566135910	Leg	Leonel	A	Ortiz	XX50118N	M	7188468188	03/27/1967	Perez Xavier		1558555649	Clean Air Car Svc & Parking (NYC)	Livery/QN-Med Appt out CMMA	A0100	TN	01/20/2018	01/20/2018	No	2	1		martha-sister	7188468188	11.0	01/20/2018	CALL	3764 72nd St	 	Jackson Heights	NY	11372	01/20/2018	CALL	8751 108th St	  	Richmond Hill	NY	11418	5.5			No	136487138
2504293	1435	566136290	Leg	Leonel	A	Ortiz	XX50118N	M	7188468188	03/27/1967	Perez Xavier		1558555649	Clean Air Car Svc & Parking (NYC)	Livery/QN-Med Appt out CMMA	A0100	TN	01/25/2018	01/25/2018	No	2	1		martha-sister	7188468188	11.0	01/25/2018	1100	8751 108th St	 	Richmond Hill	NY	11418	01/25/2018	1200	3764 72nd St	  	Jackson Heights	NY	11372	5.5			No	136487172
2504293	1436	566136290	Leg	Leonel	A	Ortiz	XX50118N	M	7188468188	03/27/1967	Perez Xavier		1558555649	Clean Air Car Svc & Parking (NYC)	Livery/QN-Med Appt out CMMA	A0100	TN	01/25/2018	01/25/2018	No	2	1		martha-sister	7188468188	11.0	01/25/2018	CALL	3764 72nd St	 	Jackson Heights	NY	11372	01/25/2018	CALL	8751 108th St	  	Richmond Hill	NY	11418	5.5			No	136487173
2504293	1437	566156480	Leg	Christina		Traboulsy	ZA17590R	F	(347) 312-6824	08/16/1960	Brooklyn Hospital Center	000	1326046467	Clean Air Car Svc & Parking (NYC)	Livery/BK-Med Appt in CMMA	A0100		01/19/2018	01/19/2018	No	2	1		self	(347) 312-6824	4.8	01/19/2018	1000	1728 W 11th St	 Home	Brooklyn	NY	11223	01/19/2018	1100	1250 57th St	  Main	Brooklyn	NY	11219	2.4	1 Additional rider(s). 1 Additional rider(s).		No	136492392
2504293	1438	566156480	Leg	Christina		Traboulsy	ZA17590R	F	(347) 312-6824	08/16/1960	Brooklyn Hospital Center	000	1326046467	Clean Air Car Svc & Parking (NYC)	Livery/BK-Med Appt in CMMA	A0100		01/19/2018	01/19/2018	No	2	1		self	(347) 312-6824	4.8	01/19/2018	Call	1250 57th St	 Main	Brooklyn	NY	11219	01/19/2018	Call	1728 W 11th St	  Home	Brooklyn	NY	11223	2.4	1 Additional rider(s). 1 Additional rider(s).		No	136492393
2504293	1439	566365280	Leg	Vivian	D	Leslie	YU42365Z	F	(347) 998-2235	07/22/1963	Ramis, Carmen		1740204833	Clean Air Car Svc & Parking (NYC)	Livery/QN-Med Appt in CMMA	A0100		01/16/2018	01/16/2018	No	2	1		self	(347) 998-2235	6.2	01/16/2018	1400	3520 24th St	3f 	Astoria	NY	11106	01/16/2018	1500	7901 Broadway	  me	Elmhurst	NY	11373	3.1			No	136542404
2504293	1440	566365280	Leg	Vivian	D	Leslie	YU42365Z	F	(347) 998-2235	07/22/1963	Ramis, Carmen		1740204833	Clean Air Car Svc & Parking (NYC)	Livery/QN-Med Appt in CMMA	A0100		01/16/2018	01/16/2018	No	2	1		self	(347) 998-2235	6.2	01/16/2018	Call	7901 Broadway	 me	Elmhurst	NY	11373	01/16/2018	Call	3520 24th St	3f 	Astoria	NY	11106	3.1			No	136542405
2504293	1441	566376800	Leg	Yeung		Law	UY12084B	F	(917) 699-3902	08/13/1927	Lee Sicy		1861466260	Clean Air Car Svc & Parking (NYC)	Livery/QN-Med Appt out CMMA	A0100	TN	01/17/2018	01/17/2018	No	2	1		fanny-Daughter	(917) 699-3902	17.8	01/17/2018	0845	6125 97th St	Apt 9J 	Rego Park	NY	11374	01/17/2018	0945	268 Canal St	  Main	New York	NY	10013	8.9	1 Additional rider(s). +1- daughter, Additional Rider		No	136543976
2504293	1442	566376800	Leg	Yeung		Law	UY12084B	F	(917) 699-3902	08/13/1927	Lee Sicy		1861466260	Clean Air Car Svc & Parking (NYC)	Livery/QN-Med Appt out CMMA	A0100	TN	01/17/2018	01/17/2018	No	2	1		fanny-Daughter	(917) 699-3902	17.8	01/17/2018	Call	268 Canal St	 Main	New York	NY	10013	01/17/2018	Call	6125 97th St	Apt 9J 	Rego Park	NY	11374	8.9	1 Additional rider(s). +1- daughter, Additional Rider		No	136543977
2504293	1443	566376800	Service	Yeung		Law	UY12084B	F	(917) 699-3902	08/13/1927	Lee Sicy		1861466260	Clean Air Car Svc & Parking (NYC)	Mileage-Livery in NYC	S0215		01/17/2018	01/17/2018	No	2	1																					Mileage-Livery in NYC	136543976
2504293	1444	566376800	Service	Yeung		Law	UY12084B	F	(917) 699-3902	08/13/1927	Lee Sicy		1861466260	Clean Air Car Svc & Parking (NYC)	Mileage-Livery in NYC	S0215		01/17/2018	01/17/2018	No	2	1																					Mileage-Livery in NYC	136543977
2504293	1445	566376800	Service	Yeung		Law	UY12084B	F	(917) 699-3902	08/13/1927	Lee Sicy		1861466260	Clean Air Car Svc & Parking (NYC)	Tolls-Universal	A0170	CG	01/17/2018	01/17/2018	No	2	1																					Tolls-Universal	136543976
2504293	1446	566376800	Service	Yeung		Law	UY12084B	F	(917) 699-3902	08/13/1927	Lee Sicy		1861466260	Clean Air Car Svc & Parking (NYC)	Livery-Manhattan Surcharge	A0100	SC	01/17/2018	01/17/2018	No	2	1																					Livery-Manhattan Surcharge	136543976
2504293	1447	566376800	Service	Yeung		Law	UY12084B	F	(917) 699-3902	08/13/1927	Lee Sicy		1861466260	Clean Air Car Svc & Parking (NYC)	Livery-Manhattan Surcharge	A0100	SC	01/17/2018	01/17/2018	No	2	1																					Livery-Manhattan Surcharge	136543977
2504293	1448	566402960	Leg	Brenda		Youmans	ZH20819E	F	(347) 785-2308	03/11/1955	Brooklyn Hospital Center	000	1326046467	Clean Air Car Svc & Parking (NYC)	Livery/BK-Med Appt in CMMA	A0100		01/30/2018	01/30/2018	No	2	1		Yvette Cortez/Care Managet	212-337-5600 X 2679	7.4	01/30/2018	1230	569 Vermont St	# 3A 	Brooklyn	NY	11207	01/30/2018	1330	470 Clarkson Ave	  Main Entrance	Brooklyn	NY	11203	3.7			No	136553821
2504293	1449	566402960	Leg	Brenda		Youmans	ZH20819E	F	(347) 785-2308	03/11/1955	Brooklyn Hospital Center	000	1326046467	Clean Air Car Svc & Parking (NYC)	Livery/BK-Med Appt in CMMA	A0100		01/30/2018	01/30/2018	No	2	1		Yvette Cortez/Care Managet	212-337-5600 X 2679	7.4	01/30/2018	Call	470 Clarkson Ave	 Main Entrance	Brooklyn	NY	11203	01/30/2018	Call	569 Vermont St	# 3A 	Brooklyn	NY	11207	3.7			No	136553822
2504293	1450	566429600	Leg	Latavia		Hedgespeth	QT22311G	F	6317039947	08/04/1996	Abraham Bessie		1710084538	Clean Air Car Svc & Parking (NYC)	Livery/MN-Med Appt out CMMA	A0100	TN	01/19/2018	01/19/2018	No	2	1		self	6317039947	48.8	01/19/2018	1300	17708 Liberty Ave	 	Jamaica	NY	11433	01/19/2018	1400	1080 Sunrise Hwy	  	Amityville	NY	11701	24.4	+2		No	136559791
2504293	1451	566429600	Leg	Latavia		Hedgespeth	QT22311G	F	6317039947	08/04/1996	Abraham Bessie		1710084538	Clean Air Car Svc & Parking (NYC)	Livery/MN-Med Appt out CMMA	A0100	TN	01/19/2018	01/19/2018	No	2	1		self	6317039947	48.8	01/19/2018	CALL	1080 Sunrise Hwy	 	Amityville	NY	11701	01/19/2018	CALL	17708 Liberty Ave	  	Jamaica	NY	11433	24.4			No	136559792
2504293	1452	566429600	Service	Latavia		Hedgespeth	QT22311G	F	6317039947	08/04/1996	Abraham Bessie		1710084538	Clean Air Car Svc & Parking (NYC)	Mileage-Livery out of NYC	S0215	TN	01/19/2018	01/19/2018	No	2	1																					Mileage-Livery out of NYC	136559791
2504293	1453	566429600	Service	Latavia		Hedgespeth	QT22311G	F	6317039947	08/04/1996	Abraham Bessie		1710084538	Clean Air Car Svc & Parking (NYC)	Mileage-Livery out of NYC	S0215	TN	01/19/2018	01/19/2018	No	2	1																					Mileage-Livery out of NYC	136559792
2504293	1454	566689750	Leg	Maylene	A	Hawkinslingo	PT03668K	F	(631) 336-4112	09/14/2009	ZUCKER HILLSIDE HOSPITAL		1104990928	Clean Air Car Svc & Parking (NYC)	Livery/MN-Med Appt out CMMA	A0100	TN	01/12/2018	01/12/2018	No	2	1		yanike   from north shore medical center	7184073500  ext 4	39.2	01/12/2018	1200	25 Pine St	 home	New York	NY	10005	01/12/2018	1300	7559 263rd St	  main	Glen Oaks	NY	11004	19.6	+2 enrl traveling w parent		No	136627207
2504293	1455	566689750	Leg	Maylene	A	Hawkinslingo	PT03668K	F	(631) 336-4112	09/14/2009	ZUCKER HILLSIDE HOSPITAL		1104990928	Clean Air Car Svc & Parking (NYC)	Livery/MN-Med Appt out CMMA	A0100	TN	01/12/2018	01/12/2018	No	2	1		yanike   from north shore medical center	7184073500  ext 4	39.2	01/12/2018	Call	7559 263rd St	 main	Glen Oaks	NY	11004	01/12/2018	Call	25 Pine St	  home	New York	NY	10005	19.6			No	136627209
2504293	1456	566689750	Service	Maylene	A	Hawkinslingo	PT03668K	F	(631) 336-4112	09/14/2009	ZUCKER HILLSIDE HOSPITAL		1104990928	Clean Air Car Svc & Parking (NYC)	Mileage-Livery in NYC	S0215		01/12/2018	01/12/2018	No	2	1																					Mileage-Livery in NYC	136627207
2504293	1457	566689750	Service	Maylene	A	Hawkinslingo	PT03668K	F	(631) 336-4112	09/14/2009	ZUCKER HILLSIDE HOSPITAL		1104990928	Clean Air Car Svc & Parking (NYC)	Mileage-Livery in NYC	S0215		01/12/2018	01/12/2018	No	2	1																					Mileage-Livery in NYC	136627209
2504293	1458	566689750	Service	Maylene	A	Hawkinslingo	PT03668K	F	(631) 336-4112	09/14/2009	ZUCKER HILLSIDE HOSPITAL		1104990928	Clean Air Car Svc & Parking (NYC)	Tolls-Universal	A0170	CG	01/12/2018	01/12/2018	No	2	1																					Tolls-Universal	136627207
2504293	1459	566689750	Service	Maylene	A	Hawkinslingo	PT03668K	F	(631) 336-4112	09/14/2009	ZUCKER HILLSIDE HOSPITAL		1104990928	Clean Air Car Svc & Parking (NYC)	Livery-Manhattan Surcharge	A0100	SC	01/12/2018	01/12/2018	No	2	1																					Livery-Manhattan Surcharge	136627207
2504293	1460	566689750	Service	Maylene	A	Hawkinslingo	PT03668K	F	(631) 336-4112	09/14/2009	ZUCKER HILLSIDE HOSPITAL		1104990928	Clean Air Car Svc & Parking (NYC)	Livery-Manhattan Surcharge	A0100	SC	01/12/2018	01/12/2018	No	2	1																					Livery-Manhattan Surcharge	136627209
2504293	1461	566782760	Leg	Yanique		Ford	SG65867E	F	6313364112	06/06/1985	NY Presbyterian Hospital		1952332801	Clean Air Car Svc & Parking (NYC)	Livery/MN-Med Appt out CMMA	A0100	TN	01/12/2018	01/12/2018	No	2	1		self	6313364112	17.6	01/12/2018	0900	25 Pine St	 	New York	NY	10005	01/12/2018	1000	2510 30th Rd	  	Long Island City	NY	11102	8.8	1 Additional rider(s). 1 Additional rider(s). 1 Additional rider(s). 1 Additional rider(s). 1 Additional rider(s). 1 Additional rider(s). 1 other pass		No	136648215
2504293	1462	566782760	Leg	Yanique		Ford	SG65867E	F	6313364112	06/06/1985	NY Presbyterian Hospital		1952332801	Clean Air Car Svc & Parking (NYC)	Livery/MN-Med Appt out CMMA	A0100	TN	01/12/2018	01/12/2018	No	2	1		self	6313364112	17.6	01/12/2018	Call	2510 30th Rd	 	Long Island City	NY	11102	01/12/2018	Call	25 Pine St	  	New York	NY	10005	8.8	1 Additional rider(s). 1 Additional rider(s). 1 Additional rider(s). 1 Additional rider(s). 1 Additional rider(s). 1 Additional rider(s). 1 other pass		No	136648216
2504293	1463	566782760	Service	Yanique		Ford	SG65867E	F	6313364112	06/06/1985	NY Presbyterian Hospital		1952332801	Clean Air Car Svc & Parking (NYC)	Mileage-Livery in NYC	S0215		01/12/2018	01/12/2018	No	2	1																					Mileage-Livery in NYC	136648215
2504293	1464	566782760	Service	Yanique		Ford	SG65867E	F	6313364112	06/06/1985	NY Presbyterian Hospital		1952332801	Clean Air Car Svc & Parking (NYC)	Mileage-Livery in NYC	S0215		01/12/2018	01/12/2018	No	2	1																					Mileage-Livery in NYC	136648216
2504293	1465	566782760	Service	Yanique		Ford	SG65867E	F	6313364112	06/06/1985	NY Presbyterian Hospital		1952332801	Clean Air Car Svc & Parking (NYC)	Tolls-Universal	A0170	CG	01/12/2018	01/12/2018	No	2	1																					Tolls-Universal	136648215
2504293	1466	566782760	Service	Yanique		Ford	SG65867E	F	6313364112	06/06/1985	NY Presbyterian Hospital		1952332801	Clean Air Car Svc & Parking (NYC)	Livery-Manhattan Surcharge	A0100	SC	01/12/2018	01/12/2018	No	2	1																					Livery-Manhattan Surcharge	136648215
2504293	1467	566782760	Service	Yanique		Ford	SG65867E	F	6313364112	06/06/1985	NY Presbyterian Hospital		1952332801	Clean Air Car Svc & Parking (NYC)	Livery-Manhattan Surcharge	A0100	SC	01/12/2018	01/12/2018	No	2	1																					Livery-Manhattan Surcharge	136648216
2504293	1468	566899270	Leg	Frances	E	Batista	ZN65296Z	F	7186787588	02/22/1962	DELIA, JOANNA		1821245689	Clean Air Car Svc & Parking (NYC)	Livery/QN-Med Appt out CMMA	A0100	TN	01/12/2018	01/12/2018	No	4	1		self	7186787588	45.2	01/12/2018	0800	25964 149th Ave	 	Rosedale	NY	11422	01/12/2018	0900	5445 Main St	  	Flushing	NY	11355	11.4	additional rider		No	136673741
2504293	1469	566899270	Leg	Frances	E	Batista	ZN65296Z	F	7186787588	02/22/1962	DELIA, JOANNA		1821245689	Clean Air Car Svc & Parking (NYC)	Livery/QN-Med Appt out CMMA	A0100	TN	01/12/2018	01/12/2018	No	4	1		self	7186787588	45.2	01/12/2018	CALL	5445 Main St	 	Flushing	NY	11355	01/12/2018	CALL	25964 149th Ave	  	Rosedale	NY	11422	11.4			No	136673742
2504293	1470	566899270	Leg	Frances	E	Batista	ZN65296Z	F	7186787588	02/22/1962	DELIA, JOANNA		1821245689	Clean Air Car Svc & Parking (NYC)	Livery/QN-Med Appt out CMMA	A0100	TN	01/12/2018	01/12/2018	No	4	1		self	7186787588	45.2	01/12/2018	1200	25964 149th Ave	# 2 	Rosedale	NY	11422	01/12/2018	1300	9131 Queens Blvd	  main ent	Elmhurst	NY	11373	11.2			No	136697332
2504293	1471	566899270	Leg	Frances	E	Batista	ZN65296Z	F	7186787588	02/22/1962	DELIA, JOANNA		1821245689	Clean Air Car Svc & Parking (NYC)	Livery/QN-Med Appt out CMMA	A0100	TN	01/12/2018	01/12/2018	No	4	1		self	7186787588	45.2	01/12/2018	Call	9131 Queens Blvd	 main ent	Elmhurst	NY	11373	01/12/2018	Call	25964 149th Ave	# 2 	Rosedale	NY	11422	11.2			No	136697333
2504293	1472	566899270	Service	Frances	E	Batista	ZN65296Z	F	7186787588	02/22/1962	DELIA, JOANNA		1821245689	Clean Air Car Svc & Parking (NYC)	Mileage-Livery in NYC	S0215		01/12/2018	01/12/2018	No	4	1																					Mileage-Livery in NYC	136673741
2504293	1473	566899270	Service	Frances	E	Batista	ZN65296Z	F	7186787588	02/22/1962	DELIA, JOANNA		1821245689	Clean Air Car Svc & Parking (NYC)	Mileage-Livery in NYC	S0215		01/12/2018	01/12/2018	No	4	1																					Mileage-Livery in NYC	136673742
2504293	1474	566899270	Service	Frances	E	Batista	ZN65296Z	F	7186787588	02/22/1962	DELIA, JOANNA		1821245689	Clean Air Car Svc & Parking (NYC)	Mileage-Livery in NYC	S0215		01/12/2018	01/12/2018	No	4	1																					Mileage-Livery in NYC	136697332
2504293	1475	566899270	Service	Frances	E	Batista	ZN65296Z	F	7186787588	02/22/1962	DELIA, JOANNA		1821245689	Clean Air Car Svc & Parking (NYC)	Mileage-Livery in NYC	S0215		01/12/2018	01/12/2018	No	4	1																					Mileage-Livery in NYC	136697333
2504293	1476	566961620	Leg	Sharon		Caffey	XQ37608H	F	7183013775	09/04/1964	Bradnock Howard		1225002751	Clean Air Car Svc & Parking (NYC)	Livery/QN-Med Appt out CMMA	A0100	TN	01/12/2018	01/12/2018	No	4	1		self	7183013775	56.8	01/12/2018	1430	3441 Linden Pl	 	Flushing	NY	11354	01/12/2018	1530	1305 York Ave	  	New York	NY	10021	9.4			No	136687948
2504293	1477	566961620	Leg	Sharon		Caffey	XQ37608H	F	7183013775	09/04/1964	Bradnock Howard		1225002751	Clean Air Car Svc & Parking (NYC)	Livery/QN-Med Appt out CMMA	A0100	TN	01/12/2018	01/12/2018	No	4	1		self	7183013775	56.8	01/12/2018	CALL	1305 York Ave	 	New York	NY	10021	01/12/2018	CALL	3441 Linden Pl	  	Flushing	NY	11354	9.4			No	136687949
2504293	1478	566961620	Leg	Sharon		Caffey	XQ37608H	F	7183013775	09/04/1964	Bradnock Howard		1225002751	Clean Air Car Svc & Parking (NYC)	Livery/QN-Med Appt out CMMA	A0100	TN	01/12/2018	01/12/2018	No	4	1		self	7183013775	56.8	01/12/2018	0730	3441 Linden Pl	Apt 2B 	Flushing	NY	11354	01/12/2018	0830	8714 5th Ave	This trip contains a 	Brooklyn	NY	11209	19.0			No	136687950
2504293	1479	566961620	Leg	Sharon		Caffey	XQ37608H	F	7183013775	09/04/1964	Bradnock Howard		1225002751	Clean Air Car Svc & Parking (NYC)	Livery/QN-Med Appt out CMMA	A0100	TN	01/12/2018	01/12/2018	No	4	1		self	7183013775	56.8	01/12/2018	Call	8714 5th Ave	This trip contains a 	Brooklyn	NY	11209	01/12/2018	Call	3441 Linden Pl	Apt 2B 	Flushing	NY	11354	19.0			No	136687951
2504293	1480	566961620	Service	Sharon		Caffey	XQ37608H	F	7183013775	09/04/1964	Bradnock Howard		1225002751	Clean Air Car Svc & Parking (NYC)	Mileage-Livery in NYC	S0215		01/12/2018	01/12/2018	No	4	1																					Mileage-Livery in NYC	136687948
2504293	1481	566961620	Service	Sharon		Caffey	XQ37608H	F	7183013775	09/04/1964	Bradnock Howard		1225002751	Clean Air Car Svc & Parking (NYC)	Mileage-Livery in NYC	S0215		01/12/2018	01/12/2018	No	4	1																					Mileage-Livery in NYC	136687949
2504293	1482	566961620	Service	Sharon		Caffey	XQ37608H	F	7183013775	09/04/1964	Bradnock Howard		1225002751	Clean Air Car Svc & Parking (NYC)	Mileage-Livery in NYC	S0215		01/12/2018	01/12/2018	No	4	1																					Mileage-Livery in NYC	136687950
2504293	1483	566961620	Service	Sharon		Caffey	XQ37608H	F	7183013775	09/04/1964	Bradnock Howard		1225002751	Clean Air Car Svc & Parking (NYC)	Mileage-Livery in NYC	S0215		01/12/2018	01/12/2018	No	4	1																					Mileage-Livery in NYC	136687951
2504293	1484	566961620	Service	Sharon		Caffey	XQ37608H	F	7183013775	09/04/1964	Bradnock Howard		1225002751	Clean Air Car Svc & Parking (NYC)	Tolls-Universal	A0170	CG	01/12/2018	01/12/2018	No	4	1																					Tolls-Universal	136687948
2504293	1485	566961620	Service	Sharon		Caffey	XQ37608H	F	7183013775	09/04/1964	Bradnock Howard		1225002751	Clean Air Car Svc & Parking (NYC)	Livery-Manhattan Surcharge	A0100	SC	01/12/2018	01/12/2018	No	4	1																					Livery-Manhattan Surcharge	136687948
2504293	1486	566961620	Service	Sharon		Caffey	XQ37608H	F	7183013775	09/04/1964	Bradnock Howard		1225002751	Clean Air Car Svc & Parking (NYC)	Livery-Manhattan Surcharge	A0100	SC	01/12/2018	01/12/2018	No	4	1																					Livery-Manhattan Surcharge	136687949
2504293	1487	566962740	Leg	Fungsin		Chiu	NA77401H	F	(646) 705-5501	07/12/1944	Hon, King-Chen		1447281738	Clean Air Car Svc & Parking (NYC)	Livery/QN-Med Appt in CMMA	A0100		01/15/2018	01/15/2018	No	2	1		grandson	(646) 705-5501	6.4	01/15/2018	0900	18819 Underhill Ave	 -	Fresh Meadows	NY	11365	01/15/2018	1000	13511 40th Rd	  -	Flushing	NY	11354	3.2	1 Additional rider(s). 1 Additional rider(s). 1 Additional rider(s). s/o thur fri, Additional Rider		No	136688528
2504293	1488	566962740	Leg	Fungsin		Chiu	NA77401H	F	(646) 705-5501	07/12/1944	Hon, King-Chen		1447281738	Clean Air Car Svc & Parking (NYC)	Livery/QN-Med Appt in CMMA	A0100		01/15/2018	01/15/2018	No	2	1		grandson	(646) 705-5501	6.4	01/15/2018	Call	13511 40th Rd	 -	Flushing	NY	11354	01/15/2018	Call	18819 Underhill Ave	  -	Fresh Meadows	NY	11365	3.2	1 Additional rider(s). 1 Additional rider(s). 1 Additional rider(s). s/o thur fri, Additional Rider		No	136688529
2504293	1489	566965880	Leg	Fungsin		Chiu	NA77401H	F	(646) 705-5501	07/12/1944	Hon, King-Chen		1447281738	Clean Air Car Svc & Parking (NYC)	Livery/QN-Med Appt in CMMA	A0100		01/16/2018	01/16/2018	No	2	1		grandson	(646) 705-5501	3.4	01/16/2018	0900	18819 Underhill Ave	 -	Fresh Meadows	NY	11365	01/16/2018	1000	16303 Horace Harding Expy	  	Fresh Meadows	NY	11365	1.7	1 Additional rider(s). 1 Additional rider(s). 1 Additional rider(s). 1 Additional rider(s). s/o thur fri, Additional Rider		No	136689137
2504293	1490	566965880	Leg	Fungsin		Chiu	NA77401H	F	(646) 705-5501	07/12/1944	Hon, King-Chen		1447281738	Clean Air Car Svc & Parking (NYC)	Livery/QN-Med Appt in CMMA	A0100		01/16/2018	01/16/2018	No	2	1		grandson	(646) 705-5501	3.4	01/16/2018	Call	16303 Horace Harding Expy	 	Fresh Meadows	NY	11365	01/16/2018	Call	18819 Underhill Ave	  -	Fresh Meadows	NY	11365	1.7	1 Additional rider(s). 1 Additional rider(s). 1 Additional rider(s). 1 Additional rider(s). s/o thur fri, Additional Rider		No	136689138
2504293	1491	566967340	Leg	Fungsin		Chiu	NA77401H	F	(646) 705-5501	07/12/1944	Hon, King-Chen		1447281738	Clean Air Car Svc & Parking (NYC)	Livery/QN-Med Appt in CMMA	A0100		01/17/2018	01/17/2018	No	2	1		grandson	(646) 705-5501	6.4	01/17/2018	0900	18819 Underhill Ave	 -	Fresh Meadows	NY	11365	01/17/2018	1000	13511 40th Rd	  -	Flushing	NY	11354	3.2	1 Additional rider(s). 1 Additional rider(s). 1 Additional rider(s). 1 Additional rider(s). s/o thur fri, Additional Rider		No	136689460
2504293	1492	566967340	Leg	Fungsin		Chiu	NA77401H	F	(646) 705-5501	07/12/1944	Hon, King-Chen		1447281738	Clean Air Car Svc & Parking (NYC)	Livery/QN-Med Appt in CMMA	A0100		01/17/2018	01/17/2018	No	2	1		grandson	(646) 705-5501	6.4	01/17/2018	Call	13511 40th Rd	 -	Flushing	NY	11354	01/17/2018	Call	18819 Underhill Ave	  -	Fresh Meadows	NY	11365	3.2	1 Additional rider(s). 1 Additional rider(s). 1 Additional rider(s). 1 Additional rider(s). s/o thur fri, Additional Rider		No	136689461
2504293	1493	566968050	Leg	Fungsin		Chiu	NA77401H	F	(646) 705-5501	07/12/1944	Hon, King-Chen		1447281738	Clean Air Car Svc & Parking (NYC)	Livery/QN-Med Appt in CMMA	A0100		01/18/2018	01/18/2018	No	2	1		grandson	(646) 705-5501	3.4	01/18/2018	0900	18819 Underhill Ave	 -	Fresh Meadows	NY	11365	01/18/2018	1000	16303 Horace Harding Expy	  	Fresh Meadows	NY	11365	1.7	1 Additional rider(s). 1 Additional rider(s). 1 Additional rider(s). 1 Additional rider(s). 1 Additional rider(s). s/o thur fri, Additional Rider		No	136690208
2504293	1494	566968050	Leg	Fungsin		Chiu	NA77401H	F	(646) 705-5501	07/12/1944	Hon, King-Chen		1447281738	Clean Air Car Svc & Parking (NYC)	Livery/QN-Med Appt in CMMA	A0100		01/18/2018	01/18/2018	No	2	1		grandson	(646) 705-5501	3.4	01/18/2018	Call	16303 Horace Harding Expy	 	Fresh Meadows	NY	11365	01/18/2018	Call	18819 Underhill Ave	  -	Fresh Meadows	NY	11365	1.7	1 Additional rider(s). 1 Additional rider(s). 1 Additional rider(s). 1 Additional rider(s). 1 Additional rider(s). s/o thur fri, Additional Rider		No	136690209
2504293	1495	566970920	Leg	Ingrid		Rastogi	QY13671Z	F	(646) 418-9657	02/26/1983	JHAVER, RITA		1073554721	Clean Air Car Svc & Parking (NYC)	Livery/QN-Med Appt in CMMA	A0100		01/16/2018	01/16/2018	Yes	2	1		self	(646) 418-9657	1.2	01/16/2018	0915	8534 148th St	 home	Jamaica	NY	11435	01/16/2018	0930	9027 Sutphin Blvd	  main entrance	Jamaica	NY	11435	.6	S/O Tuesday Wednesday Thursday		No	136690447
2504293	1496	566970920	Leg	Ingrid		Rastogi	QY13671Z	F	(646) 418-9657	02/26/1983	JHAVER, RITA		1073554721	Clean Air Car Svc & Parking (NYC)	Livery/QN-Med Appt in CMMA	A0100		01/16/2018	01/16/2018	Yes	2	1		self	(646) 418-9657	1.2	01/16/2018	Call	9027 Sutphin Blvd	 main entrance	Jamaica	NY	11435	01/16/2018	Call	8534 148th St	  home	Jamaica	NY	11435	.6			No	136690448
2504293	1497	566972260	Leg	Ingrid		Rastogi	QY13671Z	F	(646) 418-9657	02/26/1983	JHAVER, RITA		1073554721	Clean Air Car Svc & Parking (NYC)	Livery/QN-Med Appt in CMMA	A0100		01/17/2018	01/17/2018	Yes	2	1		self	(646) 418-9657	1.2	01/17/2018	0915	8534 148th St	 home	Jamaica	NY	11435	01/17/2018	0930	9027 Sutphin Blvd	  main entrance	Jamaica	NY	11435	.6	S/O Tuesday Wednesday Thursday		No	136690451
2504293	1498	566972260	Leg	Ingrid		Rastogi	QY13671Z	F	(646) 418-9657	02/26/1983	JHAVER, RITA		1073554721	Clean Air Car Svc & Parking (NYC)	Livery/QN-Med Appt in CMMA	A0100		01/17/2018	01/17/2018	Yes	2	1		self	(646) 418-9657	1.2	01/17/2018	Call	9027 Sutphin Blvd	 main entrance	Jamaica	NY	11435	01/17/2018	Call	8534 148th St	  home	Jamaica	NY	11435	.6			No	136690452
2504293	1499	566972280	Leg	Ingrid		Rastogi	QY13671Z	F	(646) 418-9657	02/26/1983	JHAVER, RITA		1073554721	Clean Air Car Svc & Parking (NYC)	Livery/QN-Med Appt in CMMA	A0100		01/18/2018	01/18/2018	Yes	2	1		self	(646) 418-9657	1.2	01/18/2018	0915	8534 148th St	 home	Jamaica	NY	11435	01/18/2018	0930	9027 Sutphin Blvd	  main entrance	Jamaica	NY	11435	.6	S/O Tuesday Wednesday Thursday		No	136690453
2504293	1500	566972280	Leg	Ingrid		Rastogi	QY13671Z	F	(646) 418-9657	02/26/1983	JHAVER, RITA		1073554721	Clean Air Car Svc & Parking (NYC)	Livery/QN-Med Appt in CMMA	A0100		01/18/2018	01/18/2018	Yes	2	1		self	(646) 418-9657	1.2	01/18/2018	Call	9027 Sutphin Blvd	 main entrance	Jamaica	NY	11435	01/18/2018	Call	8534 148th St	  home	Jamaica	NY	11435	.6			No	136690454
2504293	1501	566972290	Leg	Ingrid		Rastogi	QY13671Z	F	(646) 418-9657	02/26/1983	JHAVER, RITA		1073554721	Clean Air Car Svc & Parking (NYC)	Livery/QN-Med Appt in CMMA	A0100		01/23/2018	01/23/2018	Yes	2	1		self	(646) 418-9657	1.2	01/23/2018	0915	8534 148th St	 home	Jamaica	NY	11435	01/23/2018	0930	9027 Sutphin Blvd	  main entrance	Jamaica	NY	11435	.6	S/O Tuesday Wednesday Thursday		No	136690455
2504293	1502	566972290	Leg	Ingrid		Rastogi	QY13671Z	F	(646) 418-9657	02/26/1983	JHAVER, RITA		1073554721	Clean Air Car Svc & Parking (NYC)	Livery/QN-Med Appt in CMMA	A0100		01/23/2018	01/23/2018	Yes	2	1		self	(646) 418-9657	1.2	01/23/2018	Call	9027 Sutphin Blvd	 main entrance	Jamaica	NY	11435	01/23/2018	Call	8534 148th St	  home	Jamaica	NY	11435	.6			No	136690456
2504293	1503	566972300	Leg	Ingrid		Rastogi	QY13671Z	F	(646) 418-9657	02/26/1983	JHAVER, RITA		1073554721	Clean Air Car Svc & Parking (NYC)	Livery/QN-Med Appt in CMMA	A0100		01/24/2018	01/24/2018	Yes	2	1		self	(646) 418-9657	1.2	01/24/2018	0915	8534 148th St	 home	Jamaica	NY	11435	01/24/2018	0930	9027 Sutphin Blvd	  main entrance	Jamaica	NY	11435	.6	S/O Tuesday Wednesday Thursday		No	136690457
2504293	1504	566972300	Leg	Ingrid		Rastogi	QY13671Z	F	(646) 418-9657	02/26/1983	JHAVER, RITA		1073554721	Clean Air Car Svc & Parking (NYC)	Livery/QN-Med Appt in CMMA	A0100		01/24/2018	01/24/2018	Yes	2	1		self	(646) 418-9657	1.2	01/24/2018	Call	9027 Sutphin Blvd	 main entrance	Jamaica	NY	11435	01/24/2018	Call	8534 148th St	  home	Jamaica	NY	11435	.6			No	136690458
2504293	1505	566972320	Leg	Ingrid		Rastogi	QY13671Z	F	(646) 418-9657	02/26/1983	JHAVER, RITA		1073554721	Clean Air Car Svc & Parking (NYC)	Livery/QN-Med Appt in CMMA	A0100		01/30/2018	01/30/2018	Yes	4	1		self	(646) 418-9657	3.0	01/30/2018	0915	8534 148th St	 home	Jamaica	NY	11435	01/30/2018	0930	9027 Sutphin Blvd	  main entrance	Jamaica	NY	11435	.6	S/O Tuesday Wednesday Thursday		No	136690461
2504293	1506	566972320	Leg	Ingrid		Rastogi	QY13671Z	F	(646) 418-9657	02/26/1983	JHAVER, RITA		1073554721	Clean Air Car Svc & Parking (NYC)	Livery/QN-Med Appt in CMMA	A0100		01/30/2018	01/30/2018	Yes	4	1		self	(646) 418-9657	3.0	01/30/2018	Call	9027 Sutphin Blvd	 main entrance	Jamaica	NY	11435	01/30/2018	Call	8534 148th St	  home	Jamaica	NY	11435	.6			No	136690462
2504293	1507	566972320	Leg	Ingrid		Rastogi	QY13671Z	F	(646) 418-9657	02/26/1983	JHAVER, RITA		1073554721	Clean Air Car Svc & Parking (NYC)	Livery/QN-Med Appt in CMMA	A0100		01/30/2018	01/30/2018	Yes	4	1		self	(646) 418-9657	3.0	01/30/2018	1415	8534 148th St	 	Jamaica	NY	11435	01/30/2018	1500	13420 Jamaica Ave	  	Jamaica	NY	11418	.9			No	138135255
2504293	1508	566972320	Leg	Ingrid		Rastogi	QY13671Z	F	(646) 418-9657	02/26/1983	JHAVER, RITA		1073554721	Clean Air Car Svc & Parking (NYC)	Livery/QN-Med Appt in CMMA	A0100		01/30/2018	01/30/2018	Yes	4	1		self	(646) 418-9657	3.0	01/30/2018	Call	13420 Jamaica Ave	 	Jamaica	NY	11418	01/30/2018	Call	8534 148th St	  	Jamaica	NY	11435	.9			No	138135256
2504293	1509	566972330	Leg	Ingrid		Rastogi	QY13671Z	F	(646) 418-9657	02/26/1983	JHAVER, RITA		1073554721	Clean Air Car Svc & Parking (NYC)	Livery/QN-Med Appt in CMMA	A0100		01/31/2018	01/31/2018	Yes	2	1		self	(646) 418-9657	1.2	01/31/2018	0915	8534 148th St	 home	Jamaica	NY	11435	01/31/2018	0930	9027 Sutphin Blvd	  main entrance	Jamaica	NY	11435	.6	S/O Tuesday Wednesday Thursday		No	136690463
2504293	1510	566972330	Leg	Ingrid		Rastogi	QY13671Z	F	(646) 418-9657	02/26/1983	JHAVER, RITA		1073554721	Clean Air Car Svc & Parking (NYC)	Livery/QN-Med Appt in CMMA	A0100		01/31/2018	01/31/2018	Yes	2	1		self	(646) 418-9657	1.2	01/31/2018	Call	9027 Sutphin Blvd	 main entrance	Jamaica	NY	11435	01/31/2018	Call	8534 148th St	  home	Jamaica	NY	11435	.6			No	136690464
2504293	1511	566974900	Leg	Fungsin		Chiu	NA77401H	F	(646) 705-5501	07/12/1944	Hon, King-Chen		1447281738	Clean Air Car Svc & Parking (NYC)	Livery/QN-Med Appt out CMMA	A0100	TN	01/19/2018	01/19/2018	No	2	1		same	(646) 705-5501	26.0	01/19/2018	1000	18819 Underhill Ave	 	Fresh Meadows	NY	11365	01/19/2018	1100	217 Grand St	  	New York	NY	10013	13.0	Additional Rider		No	136691728
2504293	1512	566974900	Leg	Fungsin		Chiu	NA77401H	F	(646) 705-5501	07/12/1944	Hon, King-Chen		1447281738	Clean Air Car Svc & Parking (NYC)	Livery/QN-Med Appt out CMMA	A0100	TN	01/19/2018	01/19/2018	No	2	1		same	(646) 705-5501	26.0	01/19/2018	Call	217 Grand St	 	New York	NY	10013	01/19/2018	Call	18819 Underhill Ave	  	Fresh Meadows	NY	11365	13.0			No	136691729
2504293	1513	566974900	Service	Fungsin		Chiu	NA77401H	F	(646) 705-5501	07/12/1944	Hon, King-Chen		1447281738	Clean Air Car Svc & Parking (NYC)	Tolls-Universal	A0170	CG	01/19/2018	01/19/2018	No	2	1																					Tolls-Universal	136691728
2504293	1514	566974900	Service	Fungsin		Chiu	NA77401H	F	(646) 705-5501	07/12/1944	Hon, King-Chen		1447281738	Clean Air Car Svc & Parking (NYC)	Livery-Manhattan Surcharge	A0100	SC	01/19/2018	01/19/2018	No	2	1																					Livery-Manhattan Surcharge	136691728
2504293	1515	566974900	Service	Fungsin		Chiu	NA77401H	F	(646) 705-5501	07/12/1944	Hon, King-Chen		1447281738	Clean Air Car Svc & Parking (NYC)	Livery-Manhattan Surcharge	A0100	SC	01/19/2018	01/19/2018	No	2	1																					Livery-Manhattan Surcharge	136691729
2504293	1516	566974900	Service	Fungsin		Chiu	NA77401H	F	(646) 705-5501	07/12/1944	Hon, King-Chen		1447281738	Clean Air Car Svc & Parking (NYC)	Mileage-Livery in NYC	S0215		01/19/2018	01/19/2018	No	2	1																					Mileage-Livery in NYC	136691728
2504293	1517	566974900	Service	Fungsin		Chiu	NA77401H	F	(646) 705-5501	07/12/1944	Hon, King-Chen		1447281738	Clean Air Car Svc & Parking (NYC)	Mileage-Livery in NYC	S0215		01/19/2018	01/19/2018	No	2	1																					Mileage-Livery in NYC	136691729
2504293	1518	567096730	Leg	Zhenhua		Yu	NQ17938R	M	(646) 961-6897	06/18/1940	WEI, LIHONG		1861574576	Clean Air Car Svc & Parking (NYC)	Livery/QN-Med Appt in CMMA	A0100		01/17/2018	01/17/2018	No	2	1		s	(646) 961-6897	2.0	01/17/2018	1400	4344 Kissena Blvd	 	Flushing	NY	11355	01/17/2018	1430	13620 38th Ave	Suite 51 	Flushing	NY	11354	1.0	Additional Rider		No	136719209
2504293	1519	567096730	Leg	Zhenhua		Yu	NQ17938R	M	(646) 961-6897	06/18/1940	WEI, LIHONG		1861574576	Clean Air Car Svc & Parking (NYC)	Livery/QN-Med Appt in CMMA	A0100		01/17/2018	01/17/2018	No	2	1		s	(646) 961-6897	2.0	01/17/2018	Call	13620 38th Ave	Suite 51 	Flushing	NY	11354	01/17/2018	Call	4344 Kissena Blvd	  	Flushing	NY	11355	1.0			No	136719685
2504293	1520	567119390	Leg	Debjani		Dutta  Gupta	NT50720D	F	7185916410	02/17/1937	TLC Clove Lake Physical Therapy		1659549715	Clean Air Car Svc & Parking (NYC)	Livery/QN-Med Appt out CMMA	A0100	TN	01/25/2018	01/25/2018	No	2	1		SHAMITA/DAUGHTER	7185916410	14.2	01/25/2018	0830	18215 69th Ave	 	Fresh Meadows	NY	11365	01/25/2018	0930	6110 Queens Blvd	  	Woodside	NY	11377	7.1	ADDTIONAL RIDER/WOULD LIKE DRIVER #B88		No	136723167
2504293	1521	567119390	Leg	Debjani		Dutta  Gupta	NT50720D	F	7185916410	02/17/1937	TLC Clove Lake Physical Therapy		1659549715	Clean Air Car Svc & Parking (NYC)	Livery/QN-Med Appt out CMMA	A0100	TN	01/25/2018	01/25/2018	No	2	1		SHAMITA/DAUGHTER	7185916410	14.2	01/25/2018	1100	6110 Queens Blvd	 	Woodside	NY	11377	01/25/2018	CALL	18215 69th Ave	  	Fresh Meadows	NY	11365	7.1			No	136723168
2504293	1522	567150890	Leg	Yareli	D	Jimenezhernandez	QF55959D	F	(347) 358-9383	09/29/2007	Miranda Rodolfo		1831164516	Clean Air Car Svc & Parking (NYC)	Livery/MN-Med Appt out CMMA	A0100	TN	01/17/2018	01/17/2018	No	2	1		Jessica Hernandez / Mother	(347) 358-9383	13.7	01/17/2018	1300	7224 Grand Ave	 main entrance	Maspeth	NY	11378	01/17/2018	1400	10 Union Sq E	  Fl 2	New York	NY	10003	6.5			No	136729073
2504293	1523	567150890	Leg	Yareli	D	Jimenezhernandez	QF55959D	F	(347) 358-9383	09/29/2007	Miranda Rodolfo		1831164516	Clean Air Car Svc & Parking (NYC)	Livery/MN-Med Appt out CMMA	A0100	TN	01/17/2018	01/17/2018	No	2	1		Jessica Hernandez / Mother	(347) 358-9383	13.7	01/17/2018	call	10 Union Sq E	 main entrance	New York	NY	10003	01/17/2018	Call	5461 83rd St	Fl 2 	Elmhurst	NY	11373	7.2			No	136729174
2504293	1524	567150890	Service	Yareli	D	Jimenezhernandez	QF55959D	F	(347) 358-9383	09/29/2007	Miranda Rodolfo		1831164516	Clean Air Car Svc & Parking (NYC)	Livery-Manhattan Surcharge	A0100	SC	01/17/2018	01/17/2018	No	2	1																					Livery-Manhattan Surcharge	136729073
2504293	1525	567150890	Service	Yareli	D	Jimenezhernandez	QF55959D	F	(347) 358-9383	09/29/2007	Miranda Rodolfo		1831164516	Clean Air Car Svc & Parking (NYC)	Tolls-Universal	A0170	CG	01/17/2018	01/17/2018	No	2	1																					Tolls-Universal	136729073
2504293	1526	567150890	Service	Yareli	D	Jimenezhernandez	QF55959D	F	(347) 358-9383	09/29/2007	Miranda Rodolfo		1831164516	Clean Air Car Svc & Parking (NYC)	Livery-Manhattan Surcharge	A0100	SC	01/17/2018	01/17/2018	No	2	1																					Livery-Manhattan Surcharge	136729174
2504293	1527	567304050	Leg	Wendy		Stevenson	XT15404E	F	(347) 530-8273	07/08/1968	BICHOTTE- LIGONDE, SOPHIA		1609815612	Clean Air Car Svc & Parking (NYC)	Livery/QN-Med Appt out CMMA	A0100	TN	01/17/2018	01/17/2018	No	2	1		self	(347) 530-8273	13.8	01/17/2018	1000	18315 145th Rd	# 2 	Springfield Gardens	NY	11413	01/17/2018	1100	11129 Queens Blvd	  	Forest Hills	NY	11375	6.9			No	136763818
2504293	1528	567304050	Leg	Wendy		Stevenson	XT15404E	F	(347) 530-8273	07/08/1968	BICHOTTE- LIGONDE, SOPHIA		1609815612	Clean Air Car Svc & Parking (NYC)	Livery/QN-Med Appt out CMMA	A0100	TN	01/17/2018	01/17/2018	No	2	1		self	(347) 530-8273	13.8	01/17/2018	Call	11129 Queens Blvd	 	Forest Hills	NY	11375	01/17/2018	Call	18315 145th Rd	# 2 	Springfield Gardens	NY	11413	6.9			No	136763819
2504293	1529	567320050	Leg	Sharon		Caffey	XQ37608H	F	(718) 301-3775	09/04/1964	Bradnock Howard		1225002751	Clean Air Car Svc & Parking (NYC)	Livery/QN-Med Appt out CMMA	A0100	TN	01/13/2018	01/13/2018	No	4	1		self	(718) 301-3775	56.4	01/13/2018	0830	3441 Linden Pl	Apt 2B 	Flushing	NY	11354	01/13/2018	0900	849 57th St	  	Brooklyn	NY	11220	18.7			No	136767108
2504293	1530	567320050	Leg	Sharon		Caffey	XQ37608H	F	(718) 301-3775	09/04/1964	Bradnock Howard		1225002751	Clean Air Car Svc & Parking (NYC)	Livery/QN-Med Appt out CMMA	A0100	TN	01/13/2018	01/13/2018	No	4	1		self	(718) 301-3775	56.4	01/13/2018	Call	849 57th St	 	Brooklyn	NY	11220	01/13/2018	Call	3441 Linden Pl	Apt 2B 	Flushing	NY	11354	18.7			No	136767109
2504293	1531	567320050	Leg	Sharon		Caffey	XQ37608H	F	(718) 301-3775	09/04/1964	Bradnock Howard		1225002751	Clean Air Car Svc & Parking (NYC)	Livery/QN-Med Appt out CMMA	A0100	TN	01/13/2018	01/13/2018	No	4	1		self	(718) 301-3775	56.4	01/13/2018	1430	3441 Linden Pl	Apt 2B 	Flushing	NY	11354	01/13/2018	1530	520 E 70th St	  	New York	NY	10021	9.5			No	136767138
2504293	1532	567320050	Leg	Sharon		Caffey	XQ37608H	F	(718) 301-3775	09/04/1964	Bradnock Howard		1225002751	Clean Air Car Svc & Parking (NYC)	Livery/QN-Med Appt out CMMA	A0100	TN	01/13/2018	01/13/2018	No	4	1		self	(718) 301-3775	56.4	01/13/2018	Call	520 E 70th St	 	New York	NY	10021	01/13/2018	Call	3441 Linden Pl	Apt 2B 	Flushing	NY	11354	9.5			No	136767139
2504293	1533	567320050	Service	Sharon		Caffey	XQ37608H	F	(718) 301-3775	09/04/1964	Bradnock Howard		1225002751	Clean Air Car Svc & Parking (NYC)	Tolls-Universal	A0170	CG	01/13/2018	01/13/2018	No	4	1																					Tolls-Universal	136767108
2504293	1534	567320050	Service	Sharon		Caffey	XQ37608H	F	(718) 301-3775	09/04/1964	Bradnock Howard		1225002751	Clean Air Car Svc & Parking (NYC)	Mileage-Livery in NYC	S0215		01/13/2018	01/13/2018	No	4	1																					Mileage-Livery in NYC	136767108
2504293	1535	567320050	Service	Sharon		Caffey	XQ37608H	F	(718) 301-3775	09/04/1964	Bradnock Howard		1225002751	Clean Air Car Svc & Parking (NYC)	Mileage-Livery in NYC	S0215		01/13/2018	01/13/2018	No	4	1																					Mileage-Livery in NYC	136767109
2504293	1536	567320050	Service	Sharon		Caffey	XQ37608H	F	(718) 301-3775	09/04/1964	Bradnock Howard		1225002751	Clean Air Car Svc & Parking (NYC)	Mileage-Livery in NYC	S0215		01/13/2018	01/13/2018	No	4	1																					Mileage-Livery in NYC	136767138
2504293	1537	567320050	Service	Sharon		Caffey	XQ37608H	F	(718) 301-3775	09/04/1964	Bradnock Howard		1225002751	Clean Air Car Svc & Parking (NYC)	Mileage-Livery in NYC	S0215		01/13/2018	01/13/2018	No	4	1																					Mileage-Livery in NYC	136767139
2504293	1538	567320050	Service	Sharon		Caffey	XQ37608H	F	(718) 301-3775	09/04/1964	Bradnock Howard		1225002751	Clean Air Car Svc & Parking (NYC)	Livery-Manhattan Surcharge	A0100	SC	01/13/2018	01/13/2018	No	4	1																					Livery-Manhattan Surcharge	136767138
2504293	1539	567320050	Service	Sharon		Caffey	XQ37608H	F	(718) 301-3775	09/04/1964	Bradnock Howard		1225002751	Clean Air Car Svc & Parking (NYC)	Livery-Manhattan Surcharge	A0100	SC	01/13/2018	01/13/2018	No	4	1																					Livery-Manhattan Surcharge	136767139
2504293	1540	567325440	Leg	Yimha		Ng	SY11089M	F	(347) 698-3330	10/21/1961	NYC Health and Hospital Corp	00246039	1073535027	Clean Air Car Svc & Parking (NYC)	Livery/BK-Med Appt out CMMA	A0100	TN	01/17/2018	01/17/2018	Yes	2	1		self	(347) 698-3330	22.6	01/17/2018	1230	1056 E 16th St	Ph 	Brooklyn	NY	11230	01/17/2018	1330	240 E 38th St	  	New York	NY	10016	11.3	S/O Every Wed .Additional Rider Request S39 car .Driver Ms Chen		No	136768484
2504293	1541	567325440	Leg	Yimha		Ng	SY11089M	F	(347) 698-3330	10/21/1961	NYC Health and Hospital Corp	00246039	1073535027	Clean Air Car Svc & Parking (NYC)	Livery/BK-Med Appt out CMMA	A0100	TN	01/17/2018	01/17/2018	Yes	2	1		self	(347) 698-3330	22.6	01/17/2018	Call	240 E 38th St	 	New York	NY	10016	01/17/2018	Call	1056 E 16th St	Ph 	Brooklyn	NY	11230	11.3			No	136768485
2504293	1542	567325440	Service	Yimha		Ng	SY11089M	F	(347) 698-3330	10/21/1961	NYC Health and Hospital Corp	00246039	1073535027	Clean Air Car Svc & Parking (NYC)	Mileage-Livery in NYC	S0215		01/17/2018	01/17/2018	Yes	2	1																					Mileage-Livery in NYC	136768484
2504293	1543	567325440	Service	Yimha		Ng	SY11089M	F	(347) 698-3330	10/21/1961	NYC Health and Hospital Corp	00246039	1073535027	Clean Air Car Svc & Parking (NYC)	Mileage-Livery in NYC	S0215		01/17/2018	01/17/2018	Yes	2	1																					Mileage-Livery in NYC	136768485
2504293	1544	567325440	Service	Yimha		Ng	SY11089M	F	(347) 698-3330	10/21/1961	NYC Health and Hospital Corp	00246039	1073535027	Clean Air Car Svc & Parking (NYC)	Tolls-Universal	A0170	CG	01/17/2018	01/17/2018	Yes	2	1																					Tolls-Universal	136768484
2504293	1545	567325440	Service	Yimha		Ng	SY11089M	F	(347) 698-3330	10/21/1961	NYC Health and Hospital Corp	00246039	1073535027	Clean Air Car Svc & Parking (NYC)	Livery-Manhattan Surcharge	A0100	SC	01/17/2018	01/17/2018	Yes	2	1																					Livery-Manhattan Surcharge	136768484
2504293	1546	567325440	Service	Yimha		Ng	SY11089M	F	(347) 698-3330	10/21/1961	NYC Health and Hospital Corp	00246039	1073535027	Clean Air Car Svc & Parking (NYC)	Livery-Manhattan Surcharge	A0100	SC	01/17/2018	01/17/2018	Yes	2	1																					Livery-Manhattan Surcharge	136768485
2504293	1547	567325650	Leg	Wendy		Stevenson	XT15404E	F	3475308273	07/08/1968	WEINGARTEN, ALEXANDER		1558353078	Clean Air Car Svc & Parking (NYC)	Livery/QN-Med Appt out CMMA	A0100	TN	01/19/2018	01/19/2018	No	2	1		self	3475308273	11.6	01/19/2018	1545	18315 145th Rd	 	Springfield Gardens	NY	11413	01/19/2018	1645	529 Beach 20th St	  	Far Rockaway	NY	11691	5.8	+1		No	136768497
2504293	1548	567325650	Leg	Wendy		Stevenson	XT15404E	F	3475308273	07/08/1968	WEINGARTEN, ALEXANDER		1558353078	Clean Air Car Svc & Parking (NYC)	Livery/QN-Med Appt out CMMA	A0100	TN	01/19/2018	01/19/2018	No	2	1		self	3475308273	11.6	01/19/2018	CALL	529 Beach 20th St	 	Far Rockaway	NY	11691	01/19/2018	CALL	18315 145th Rd	  	Springfield Gardens	NY	11413	5.8			No	136768498
2504293	1549	567331480	Leg	Keona	T	Lewis	ZZ57060C	F	(718) 788-5919	03/19/1972	Brooklyn Hospital Center	000	1326046467	Clean Air Car Svc & Parking (NYC)	Livery/BK-Med Appt out CMMA	A0100	TN	01/26/2018	01/26/2018	No	2	1		self	(718) 788-5919	31.2	01/26/2018	0730	1242 E 80th St	# 17 	Brooklyn	NY	11236	01/26/2018	0830	5 E 98th St	  main	New York	NY	10029	15.6			No	136768907
2504293	1550	567331480	Leg	Keona	T	Lewis	ZZ57060C	F	(718) 788-5919	03/19/1972	Brooklyn Hospital Center	000	1326046467	Clean Air Car Svc & Parking (NYC)	Livery/BK-Med Appt out CMMA	A0100	TN	01/26/2018	01/26/2018	No	2	1		self	(718) 788-5919	31.2	01/26/2018	Call	5 E 98th St	 main	New York	NY	10029	01/26/2018	Call	1242 E 80th St	# 17 	Brooklyn	NY	11236	15.6			No	136768908
2504293	1551	567331480	Service	Keona	T	Lewis	ZZ57060C	F	(718) 788-5919	03/19/1972	Brooklyn Hospital Center	000	1326046467	Clean Air Car Svc & Parking (NYC)	Mileage-Livery in NYC	S0215		01/26/2018	01/26/2018	No	2	1																					Mileage-Livery in NYC	136768907
2504293	1552	567331480	Service	Keona	T	Lewis	ZZ57060C	F	(718) 788-5919	03/19/1972	Brooklyn Hospital Center	000	1326046467	Clean Air Car Svc & Parking (NYC)	Mileage-Livery in NYC	S0215		01/26/2018	01/26/2018	No	2	1																					Mileage-Livery in NYC	136768908
2504293	1553	567331480	Service	Keona	T	Lewis	ZZ57060C	F	(718) 788-5919	03/19/1972	Brooklyn Hospital Center	000	1326046467	Clean Air Car Svc & Parking (NYC)	Tolls-Universal	A0170	CG	01/26/2018	01/26/2018	No	2	1																					Tolls-Universal	136768907
2504293	1554	567331480	Service	Keona	T	Lewis	ZZ57060C	F	(718) 788-5919	03/19/1972	Brooklyn Hospital Center	000	1326046467	Clean Air Car Svc & Parking (NYC)	Livery-Manhattan Surcharge	A0100	SC	01/26/2018	01/26/2018	No	2	1																					Livery-Manhattan Surcharge	136768907
2504293	1555	567331480	Service	Keona	T	Lewis	ZZ57060C	F	(718) 788-5919	03/19/1972	Brooklyn Hospital Center	000	1326046467	Clean Air Car Svc & Parking (NYC)	Livery-Manhattan Surcharge	A0100	SC	01/26/2018	01/26/2018	No	2	1																					Livery-Manhattan Surcharge	136768908
2504293	1556	567333870	Leg	Yimha		Ng	SY11089M	F	(347) 698-3330	10/21/1961	NYC Health and Hospital Corp	00246039	1073535027	Clean Air Car Svc & Parking (NYC)	Livery/BK-Med Appt out CMMA	A0100	TN	01/24/2018	01/24/2018	Yes	2	1		self	(347) 698-3330	22.6	01/24/2018	1230	1056 E 16th St	Ph 	Brooklyn	NY	11230	01/24/2018	1330	240 E 38th St	  	New York	NY	10016	11.3	S/O Every Wed .Additional Rider Request S39 car .Driver Ms Chen		No	136768749
2504293	1557	567333870	Leg	Yimha		Ng	SY11089M	F	(347) 698-3330	10/21/1961	NYC Health and Hospital Corp	00246039	1073535027	Clean Air Car Svc & Parking (NYC)	Livery/BK-Med Appt out CMMA	A0100	TN	01/24/2018	01/24/2018	Yes	2	1		self	(347) 698-3330	22.6	01/24/2018	Call	240 E 38th St	 	New York	NY	10016	01/24/2018	Call	1056 E 16th St	Ph 	Brooklyn	NY	11230	11.3			No	136768761
2504293	1558	567333870	Service	Yimha		Ng	SY11089M	F	(347) 698-3330	10/21/1961	NYC Health and Hospital Corp	00246039	1073535027	Clean Air Car Svc & Parking (NYC)	Mileage-Livery in NYC	S0215		01/24/2018	01/24/2018	Yes	2	1																					Mileage-Livery in NYC	136768749
2504293	1559	567333870	Service	Yimha		Ng	SY11089M	F	(347) 698-3330	10/21/1961	NYC Health and Hospital Corp	00246039	1073535027	Clean Air Car Svc & Parking (NYC)	Mileage-Livery in NYC	S0215		01/24/2018	01/24/2018	Yes	2	1																					Mileage-Livery in NYC	136768761
2504293	1560	567333870	Service	Yimha		Ng	SY11089M	F	(347) 698-3330	10/21/1961	NYC Health and Hospital Corp	00246039	1073535027	Clean Air Car Svc & Parking (NYC)	Tolls-Universal	A0170	CG	01/24/2018	01/24/2018	Yes	2	1																					Tolls-Universal	136768749
2504293	1561	567333870	Service	Yimha		Ng	SY11089M	F	(347) 698-3330	10/21/1961	NYC Health and Hospital Corp	00246039	1073535027	Clean Air Car Svc & Parking (NYC)	Livery-Manhattan Surcharge	A0100	SC	01/24/2018	01/24/2018	Yes	2	1																					Livery-Manhattan Surcharge	136768749
2504293	1562	567333870	Service	Yimha		Ng	SY11089M	F	(347) 698-3330	10/21/1961	NYC Health and Hospital Corp	00246039	1073535027	Clean Air Car Svc & Parking (NYC)	Livery-Manhattan Surcharge	A0100	SC	01/24/2018	01/24/2018	Yes	2	1																					Livery-Manhattan Surcharge	136768761
2504293	1563	567333880	Leg	Yimha		Ng	SY11089M	F	(347) 698-3330	10/21/1961	NYC Health and Hospital Corp	00246039	1073535027	Clean Air Car Svc & Parking (NYC)	Livery/BK-Med Appt out CMMA	A0100	TN	01/31/2018	01/31/2018	Yes	2	1		self	(347) 698-3330	22.6	01/31/2018	1230	1056 E 16th St	Ph 	Brooklyn	NY	11230	01/31/2018	1330	240 E 38th St	  	New York	NY	10016	11.3	S/O Every Wed .Additional Rider Request S39 car .Driver Ms Chen		No	136768750
2504293	1564	567333880	Leg	Yimha		Ng	SY11089M	F	(347) 698-3330	10/21/1961	NYC Health and Hospital Corp	00246039	1073535027	Clean Air Car Svc & Parking (NYC)	Livery/BK-Med Appt out CMMA	A0100	TN	01/31/2018	01/31/2018	Yes	2	1		self	(347) 698-3330	22.6	01/31/2018	Call	240 E 38th St	 	New York	NY	10016	01/31/2018	Call	1056 E 16th St	Ph 	Brooklyn	NY	11230	11.3			No	136768762
2504293	1565	567333880	Service	Yimha		Ng	SY11089M	F	(347) 698-3330	10/21/1961	NYC Health and Hospital Corp	00246039	1073535027	Clean Air Car Svc & Parking (NYC)	Mileage-Livery in NYC	S0215		01/31/2018	01/31/2018	Yes	2	1																					Mileage-Livery in NYC	136768750
2504293	1566	567333880	Service	Yimha		Ng	SY11089M	F	(347) 698-3330	10/21/1961	NYC Health and Hospital Corp	00246039	1073535027	Clean Air Car Svc & Parking (NYC)	Mileage-Livery in NYC	S0215		01/31/2018	01/31/2018	Yes	2	1																					Mileage-Livery in NYC	136768762
2504293	1567	567333880	Service	Yimha		Ng	SY11089M	F	(347) 698-3330	10/21/1961	NYC Health and Hospital Corp	00246039	1073535027	Clean Air Car Svc & Parking (NYC)	Tolls-Universal	A0170	CG	01/31/2018	01/31/2018	Yes	2	1																					Tolls-Universal	136768750
2504293	1568	567333880	Service	Yimha		Ng	SY11089M	F	(347) 698-3330	10/21/1961	NYC Health and Hospital Corp	00246039	1073535027	Clean Air Car Svc & Parking (NYC)	Livery-Manhattan Surcharge	A0100	SC	01/31/2018	01/31/2018	Yes	2	1																					Livery-Manhattan Surcharge	136768750
2504293	1569	567333880	Service	Yimha		Ng	SY11089M	F	(347) 698-3330	10/21/1961	NYC Health and Hospital Corp	00246039	1073535027	Clean Air Car Svc & Parking (NYC)	Livery-Manhattan Surcharge	A0100	SC	01/31/2018	01/31/2018	Yes	2	1																					Livery-Manhattan Surcharge	136768762
2504293	1570	567408120	Leg	Aida		Lopez	YA01825N	F	(917) 587-3471	11/15/1964	Queens Hospital	000	1801803903	Clean Air Car Svc & Parking (NYC)	Livery/QN-Med Appt out CMMA	A0100	TN	01/19/2018	01/19/2018	No	2	1		self	(917) 587-3471		01/19/2018	0900	7215 Cooper Ave	 Fl 2	Glendale	NY	11385	01/19/2018	1030	310 E 14th St	  main	New York	NY	10003	7.4			No	136787927
2504293	1571	567408120	Leg	Aida		Lopez	YA01825N	F	(917) 587-3471	11/15/1964	Queens Hospital	000	1801803903	Clean Air Car Svc & Parking (NYC)	Livery/QN-Med Appt out CMMA	A0100	TN	01/19/2018	01/19/2018	No	2	1		self	(917) 587-3471		01/19/2018	Call	310 E 14th St	 main	New York	NY	10003	01/19/2018	Call	7215 Cooper Ave	  Fl 2	Glendale	NY	11385	7.4			No	136787928
2504293	1572	567408120	Service	Aida		Lopez	YA01825N	F	(917) 587-3471	11/15/1964	Queens Hospital	000	1801803903	Clean Air Car Svc & Parking (NYC)	Tolls-Universal	A0170	CG	01/19/2018	01/19/2018	No	2	1																					Tolls-Universal	136787927
2504293	1573	567408120	Service	Aida		Lopez	YA01825N	F	(917) 587-3471	11/15/1964	Queens Hospital	000	1801803903	Clean Air Car Svc & Parking (NYC)	Livery-Manhattan Surcharge	A0100	SC	01/19/2018	01/19/2018	No	2	1																					Livery-Manhattan Surcharge	136787927
2504293	1574	567408120	Service	Aida		Lopez	YA01825N	F	(917) 587-3471	11/15/1964	Queens Hospital	000	1801803903	Clean Air Car Svc & Parking (NYC)	Livery-Manhattan Surcharge	A0100	SC	01/19/2018	01/19/2018	No	2	1																					Livery-Manhattan Surcharge	136787928
2504293	1575	567514830	Leg	Amelia		Carmona	TQ45378K	F	(917) 743-6109	07/31/1936	NY Presbyterian Hospital	0000000	1952332801	Clean Air Car Svc & Parking (NYC)	Livery/MN-Med Appt in CMMA	A0100		01/15/2018	01/15/2018	No	1	1		Ramon	212 337-5600		01/15/2018	1100	2091 Amsterdam Ave	 -	New York	NY	10032	01/15/2018	1200	353 Central Park W	  -	New York	NY	10025	4.3	plus 1, has a cane		No	136820487
2504293	1576	567514830	Leg	Amelia		Carmona	TQ45378K	F	(917) 743-6109	07/31/1936	NY Presbyterian Hospital	0000000	1952332801	Clean Air Car Svc & Parking (NYC)	Livery/MN-Med Appt in CMMA	A0100		01/15/2018	01/15/2018	No	1	1		Ramon	212 337-5600		01/15/2018	Call	353 Central Park W	 -	New York	NY	10025	01/15/2018	Call	2091 Amsterdam Ave	  -	New York	NY	10032	4.3			No	136820488
2504293	1577	567514830	Service	Amelia		Carmona	TQ45378K	F	(917) 743-6109	07/31/1936	NY Presbyterian Hospital	0000000	1952332801	Clean Air Car Svc & Parking (NYC)	Livery-Manhattan Surcharge	A0100	SC	01/15/2018	01/15/2018	No	1	1																					Livery-Manhattan Surcharge	136820487
2504293	1578	567514830	Service	Amelia		Carmona	TQ45378K	F	(917) 743-6109	07/31/1936	NY Presbyterian Hospital	0000000	1952332801	Clean Air Car Svc & Parking (NYC)	Livery-Manhattan Surcharge	A0100	SC	01/15/2018	01/15/2018	No	1	1																					Livery-Manhattan Surcharge	136820488
2504293	1579	567521090	Leg	Amelia		Carmona	TQ45378K	F	(917) 743-6109	07/31/1936	NY Presbyterian Hospital	0000000	1952332801	Clean Air Car Svc & Parking (NYC)	Livery/MN-Med Appt in CMMA	A0100		01/22/2018	01/22/2018	No	2	1		Ramon	212 337-5600	6.0	01/22/2018	0800	2091 Amsterdam Ave	 home	New York	NY	10032	01/22/2018	0900	1111 Amsterdam Ave	  main	New York	NY	10025	3.0	plus 1, has a cane		No	136821616
2504293	1580	567521090	Leg	Amelia		Carmona	TQ45378K	F	(917) 743-6109	07/31/1936	NY Presbyterian Hospital	0000000	1952332801	Clean Air Car Svc & Parking (NYC)	Livery/MN-Med Appt in CMMA	A0100		01/22/2018	01/22/2018	No	2	1		Ramon	212 337-5600	6.0	01/22/2018	Call	1111 Amsterdam Ave	 main	New York	NY	10025	01/22/2018	Call	2091 Amsterdam Ave	  home	New York	NY	10032	3.0			No	136821617
2504293	1581	567732640	Leg	Priscilla	E	Moran	YV70188N	F	(718) 699-1251	08/15/1955	Kolanuvada Bangaruarju	00228890	1689648545	Clean Air Car Svc & Parking (NYC)	Livery/QN-Med Appt in CMMA	A0100		01/16/2018	01/16/2018	No	2	1			(718) 699-1251	4.8	01/16/2018	1300	10815 Corona Ave	Fl 2 	Corona	NY	11368	01/16/2018	1400	7901 Broadway	bldg H 145 	Elmhurst	NY	11373	2.4	1 Additional rider(s). 1 Additional rider(s).		No	136870387
2504293	1582	567732640	Leg	Priscilla	E	Moran	YV70188N	F	(718) 699-1251	08/15/1955	Kolanuvada Bangaruarju	00228890	1689648545	Clean Air Car Svc & Parking (NYC)	Livery/QN-Med Appt in CMMA	A0100		01/16/2018	01/16/2018	No	2	1			(718) 699-1251	4.8	01/16/2018	Call	7901 Broadway	bldg H 145 	Elmhurst	NY	11373	01/16/2018	Call	10815 Corona Ave	Fl 2 	Corona	NY	11368	2.4	1 Additional rider(s). 1 Additional rider(s).		No	136870388
2504293	1583	567817830	Leg	Cicely	I	Mclean	PF74602D	F	2027019441	09/05/1945	NY Presbyterian Hospital		1952332801	Clean Air Car Svc & Parking (NYC)	Livery/BK-Med Appt in CMMA	A0100		01/22/2018	01/22/2018	No	2	1		self	2027019441	4.2	01/22/2018	1130	558 Shepherd Ave	 	Brooklyn	NY	11208	01/22/2018	1230	408 Rockaway Ave	  	Brooklyn	NY	11212	2.1			No	136889578
2504293	1584	567817830	Leg	Cicely	I	Mclean	PF74602D	F	2027019441	09/05/1945	NY Presbyterian Hospital		1952332801	Clean Air Car Svc & Parking (NYC)	Livery/BK-Med Appt in CMMA	A0100		01/22/2018	01/22/2018	No	2	1		self	2027019441	4.2	01/22/2018	CALL	408 Rockaway Ave	 	Brooklyn	NY	11212	01/22/2018	CALL	558 Shepherd Ave	  	Brooklyn	NY	11208	2.1			No	136889579
2504293	1585	567822210	Leg	Cicely	I	Mclean	PF74602D	F	(202) 701-9441	09/05/1945	NY Presbyterian Hospital		1952332801	Clean Air Car Svc & Parking (NYC)	Livery/BK-Med Appt out CMMA	A0100	TN	01/17/2018	01/17/2018	No	2	1		self	(202) 701-9441	38.8	01/17/2018	1100	558 shepard ave	home 	Brooklyn	NY	11208	01/17/2018	1200	901 Stewart Ave	  main	Garden City	NY	11530	19.4			No	136890241
2504293	1586	567822210	Leg	Cicely	I	Mclean	PF74602D	F	(202) 701-9441	09/05/1945	NY Presbyterian Hospital		1952332801	Clean Air Car Svc & Parking (NYC)	Livery/BK-Med Appt out CMMA	A0100	TN	01/17/2018	01/17/2018	No	2	1		self	(202) 701-9441	38.8	01/17/2018	Call	901 Stewart Ave	 main	Garden City	NY	11530	01/17/2018	Call	558 shepard ave	home 	Brooklyn	NY	11208	19.4			No	136890242
2504293	1587	567822210	Service	Cicely	I	Mclean	PF74602D	F	(202) 701-9441	09/05/1945	NY Presbyterian Hospital		1952332801	Clean Air Car Svc & Parking (NYC)	Tolls-Universal	A0170	CG	01/17/2018	01/17/2018	No	2	1																					Tolls-Universal	136890241
2504293	1588	567822210	Service	Cicely	I	Mclean	PF74602D	F	(202) 701-9441	09/05/1945	NY Presbyterian Hospital		1952332801	Clean Air Car Svc & Parking (NYC)	Mileage-Livery out of NYC	S0215	TN	01/17/2018	01/17/2018	No	2	1																					Mileage-Livery out of NYC	136890241
2504293	1589	567822210	Service	Cicely	I	Mclean	PF74602D	F	(202) 701-9441	09/05/1945	NY Presbyterian Hospital		1952332801	Clean Air Car Svc & Parking (NYC)	Mileage-Livery out of NYC	S0215	TN	01/17/2018	01/17/2018	No	2	1																					Mileage-Livery out of NYC	136890242
2504293	1590	567822500	Leg	Cicely	I	Mclean	PF74602D	F	(202) 701-9441	09/05/1945	NY Presbyterian Hospital		1952332801	Clean Air Car Svc & Parking (NYC)	Livery/BK-Med Appt in CMMA	A0100		01/26/2018	01/26/2018	No	2	1		Self	(202) 701-9441		01/26/2018	1000	558 shepard ave	home 	Brooklyn	NY	11208	01/26/2018	1100	885 Park Ave	  front	New York	NY	10075	4.3			No	136890487
2504293	1591	567822500	Leg	Cicely	I	Mclean	PF74602D	F	(202) 701-9441	09/05/1945	NY Presbyterian Hospital		1952332801	Clean Air Car Svc & Parking (NYC)	Livery/BK-Med Appt in CMMA	A0100		01/26/2018	01/26/2018	No	2	1		Self	(202) 701-9441		01/26/2018	Call	885 Park Ave	 front	New York	NY	10075	01/26/2018	Call	558 shepard ave	home 	Brooklyn	NY	11208	4.3			No	136890488
2504293	1592	567822500	Service	Cicely	I	Mclean	PF74602D	F	(202) 701-9441	09/05/1945	NY Presbyterian Hospital		1952332801	Clean Air Car Svc & Parking (NYC)	Tolls-Universal	A0170	CG	01/26/2018	01/26/2018	No	2	1																					Tolls-Universal	136890487
2504293	1593	567822500	Service	Cicely	I	Mclean	PF74602D	F	(202) 701-9441	09/05/1945	NY Presbyterian Hospital		1952332801	Clean Air Car Svc & Parking (NYC)	Livery-Manhattan Surcharge	A0100	SC	01/26/2018	01/26/2018	No	2	1																					Livery-Manhattan Surcharge	136890487
2504293	1594	567822500	Service	Cicely	I	Mclean	PF74602D	F	(202) 701-9441	09/05/1945	NY Presbyterian Hospital		1952332801	Clean Air Car Svc & Parking (NYC)	Livery-Manhattan Surcharge	A0100	SC	01/26/2018	01/26/2018	No	2	1																					Livery-Manhattan Surcharge	136890488
2504293	1595	567853840	Leg	Teri	L	Miller	ZW58156B	F	7327490644	08/15/1959	Alvarez,Dimitri		1114184637	Clean Air Car Svc & Parking (NYC)	Livery/QN-Med Appt out CMMA	A0100	TN	01/16/2018	01/16/2018	No	2	1		Self	7327490644	15.8	01/16/2018	1300	3505 94th St	 	Jackson Heights	NY	11372	01/16/2018	1400	15 W 136th St	  	New York	NY	10037	7.9			No	136896899
2504293	1596	567853840	Leg	Teri	L	Miller	ZW58156B	F	7327490644	08/15/1959	Alvarez,Dimitri		1114184637	Clean Air Car Svc & Parking (NYC)	Livery/QN-Med Appt out CMMA	A0100	TN	01/16/2018	01/16/2018	No	2	1		Self	7327490644	15.8	01/16/2018	CALL	15 W 136th St	 	New York	NY	10037	01/16/2018	CALL	3505 94th St	  	Jackson Heights	NY	11372	7.9			No	136896900
2504293	1597	567853840	Service	Teri	L	Miller	ZW58156B	F	7327490644	08/15/1959	Alvarez,Dimitri		1114184637	Clean Air Car Svc & Parking (NYC)	Tolls-Universal	A0170	CG	01/16/2018	01/16/2018	No	2	1																					Tolls-Universal	136896899
2504293	1598	567854830	Leg	Teri	L	Miller	ZW58156B	F	7327490644	08/15/1959	Alvarez,Dimitri		1114184637	Clean Air Car Svc & Parking (NYC)	Livery/QN-Med Appt out CMMA	A0100	TN	01/18/2018	01/18/2018	No	2	1		Self	7327490644	15.8	01/18/2018	1230	3505 94th St	 	Jackson Heights	NY	11372	01/18/2018	1330	15 W 136th St	  	New York	NY	10037	7.9			No	136897043
2504293	1599	567854830	Leg	Teri	L	Miller	ZW58156B	F	7327490644	08/15/1959	Alvarez,Dimitri		1114184637	Clean Air Car Svc & Parking (NYC)	Livery/QN-Med Appt out CMMA	A0100	TN	01/18/2018	01/18/2018	No	2	1		Self	7327490644	15.8	01/18/2018	CALL	15 W 136th St	 	New York	NY	10037	01/18/2018	CALL	3505 94th St	  	Jackson Heights	NY	11372	7.9			No	136897044
2504293	1600	567854830	Service	Teri	L	Miller	ZW58156B	F	7327490644	08/15/1959	Alvarez,Dimitri		1114184637	Clean Air Car Svc & Parking (NYC)	Tolls-Universal	A0170	CG	01/18/2018	01/18/2018	No	2	1																					Tolls-Universal	136897043
2504293	1601	567933900	Leg	Henrickson		Francois	XF05691E	M	(718) 931-3573	07/05/1957	Masci Joseph		1891709648	Clean Air Car Svc & Parking (NYC)	Livery/QN-Med Appt in CMMA	A0100		01/15/2018	01/15/2018	No	2	1		self	(718) 931-3573	9.4	01/15/2018	1430	43-44 Kissena Bld             2n	 front	Flushing	NY	11355	01/15/2018	1530	18016 Wexford Ter	  main	Jamaica	NY	11432	4.7			No	136914896
2504293	1602	567933900	Leg	Henrickson		Francois	XF05691E	M	(718) 931-3573	07/05/1957	Masci Joseph		1891709648	Clean Air Car Svc & Parking (NYC)	Livery/QN-Med Appt in CMMA	A0100		01/15/2018	01/15/2018	No	2	1		self	(718) 931-3573	9.4	01/15/2018	Call	18016 Wexford Ter	 main	Jamaica	NY	11432	01/15/2018	Call	43-44 Kissena Bld             2n	  front	Flushing	NY	11355	4.7			No	136914897
2504293	1603	567956520	Leg	Qin		Jiang	UM79948S	F	(917) 605-2881	04/09/1989	Queens Hospital	000	1801803903	Clean Air Car Svc & Parking (NYC)	Livery/QN-Med Appt out CMMA	A0100	TN	01/19/2018	01/19/2018	No	2	1		Self	(917) 605-2881	28.6	01/19/2018	1000	1922 76th St	 hme	East Elmhurst	NY	11370	01/19/2018	1100	1 Dakota Dr	  Main	New Hyde Park	NY	11042	14.3	+1, Additional Rider		No	136919104
2504293	1604	567956520	Leg	Qin		Jiang	UM79948S	F	(917) 605-2881	04/09/1989	Queens Hospital	000	1801803903	Clean Air Car Svc & Parking (NYC)	Livery/QN-Med Appt out CMMA	A0100	TN	01/19/2018	01/19/2018	No	2	1		Self	(917) 605-2881	28.6	01/19/2018	Call	1 Dakota Dr	 Main	New Hyde Park	NY	11042	01/19/2018	Call	1922 76th St	  hme	East Elmhurst	NY	11370	14.3			No	136919105
2504293	1605	567956520	Service	Qin		Jiang	UM79948S	F	(917) 605-2881	04/09/1989	Queens Hospital	000	1801803903	Clean Air Car Svc & Parking (NYC)	Tolls-Universal	A0170	CG	01/19/2018	01/19/2018	No	2	1																					Tolls-Universal	136919104
2504293	1606	567956520	Service	Qin		Jiang	UM79948S	F	(917) 605-2881	04/09/1989	Queens Hospital	000	1801803903	Clean Air Car Svc & Parking (NYC)	Mileage-Livery out of NYC	S0215	TN	01/19/2018	01/19/2018	No	2	1																					Mileage-Livery out of NYC	136919104
2504293	1607	567956520	Service	Qin		Jiang	UM79948S	F	(917) 605-2881	04/09/1989	Queens Hospital	000	1801803903	Clean Air Car Svc & Parking (NYC)	Mileage-Livery out of NYC	S0215	TN	01/19/2018	01/19/2018	No	2	1																					Mileage-Livery out of NYC	136919105
2504293	1608	567971930	Leg	Sharon		Caffey	XQ37608H	F	7183013775	09/04/1964	Bradnock Howard		1225002751	Clean Air Car Svc & Parking (NYC)	Livery/QN-Med Appt out CMMA	A0100	TN	01/15/2018	01/15/2018	No	4	1		self	7183013775	55.4	01/15/2018	0800	3441 Linden Pl	 	Flushing	NY	11354	01/15/2018	0900	7517 6th Ave	  	Brooklyn	NY	11209	18.3			No	136921997
2504293	1609	567971930	Leg	Sharon		Caffey	XQ37608H	F	7183013775	09/04/1964	Bradnock Howard		1225002751	Clean Air Car Svc & Parking (NYC)	Livery/QN-Med Appt out CMMA	A0100	TN	01/15/2018	01/15/2018	No	4	1		self	7183013775	55.4	01/15/2018	call	7517 6th Ave	 	Brooklyn	NY	11209	01/15/2018	call	3441 Linden Pl	  	Flushing	NY	11354	18.3			No	136921998
2504293	1610	567971930	Leg	Sharon		Caffey	XQ37608H	F	7183013775	09/04/1964	Bradnock Howard		1225002751	Clean Air Car Svc & Parking (NYC)	Livery/QN-Med Appt out CMMA	A0100	TN	01/15/2018	01/15/2018	No	4	1		self	7183013775	55.4	01/15/2018	1430	3441 Linden Pl	Apt 2B 	Flushing	NY	11354	01/15/2018	1530	1305 York Ave	  	New York	NY	10021	9.4			No	137090326
2504293	1611	567971930	Leg	Sharon		Caffey	XQ37608H	F	7183013775	09/04/1964	Bradnock Howard		1225002751	Clean Air Car Svc & Parking (NYC)	Livery/QN-Med Appt out CMMA	A0100	TN	01/15/2018	01/15/2018	No	4	1		self	7183013775	55.4	01/15/2018	Call	1305 York Ave	 	New York	NY	10021	01/15/2018	Call	3441 Linden Pl	Apt 2B 	Flushing	NY	11354	9.4			No	137090327
2504293	1612	567971930	Service	Sharon		Caffey	XQ37608H	F	7183013775	09/04/1964	Bradnock Howard		1225002751	Clean Air Car Svc & Parking (NYC)	Tolls-Universal	A0170	CG	01/15/2018	01/15/2018	No	4	1																					Tolls-Universal	136921997
2504293	1613	567971930	Service	Sharon		Caffey	XQ37608H	F	7183013775	09/04/1964	Bradnock Howard		1225002751	Clean Air Car Svc & Parking (NYC)	Mileage-Livery in NYC	S0215		01/15/2018	01/15/2018	No	4	1																					Mileage-Livery in NYC	136921997
2504293	1614	567971930	Service	Sharon		Caffey	XQ37608H	F	7183013775	09/04/1964	Bradnock Howard		1225002751	Clean Air Car Svc & Parking (NYC)	Mileage-Livery in NYC	S0215		01/15/2018	01/15/2018	No	4	1																					Mileage-Livery in NYC	136921998
2504293	1615	567971930	Service	Sharon		Caffey	XQ37608H	F	7183013775	09/04/1964	Bradnock Howard		1225002751	Clean Air Car Svc & Parking (NYC)	Mileage-Livery in NYC	S0215		01/15/2018	01/15/2018	No	4	1																					Mileage-Livery in NYC	137090326
2504293	1616	567971930	Service	Sharon		Caffey	XQ37608H	F	7183013775	09/04/1964	Bradnock Howard		1225002751	Clean Air Car Svc & Parking (NYC)	Mileage-Livery in NYC	S0215		01/15/2018	01/15/2018	No	4	1																					Mileage-Livery in NYC	137090327
2504293	1617	567971930	Service	Sharon		Caffey	XQ37608H	F	7183013775	09/04/1964	Bradnock Howard		1225002751	Clean Air Car Svc & Parking (NYC)	Livery-Manhattan Surcharge	A0100	SC	01/15/2018	01/15/2018	No	4	1																					Livery-Manhattan Surcharge	137090326
2504293	1618	567971930	Service	Sharon		Caffey	XQ37608H	F	7183013775	09/04/1964	Bradnock Howard		1225002751	Clean Air Car Svc & Parking (NYC)	Livery-Manhattan Surcharge	A0100	SC	01/15/2018	01/15/2018	No	4	1																					Livery-Manhattan Surcharge	137090327
2504293	1619	567974320	Leg	Sharon		Caffey	XQ37608H	F	7183013775	09/04/1964	Bradnock Howard		1225002751	Clean Air Car Svc & Parking (NYC)	Livery/QN-Med Appt out CMMA	A0100	TN	01/16/2018	01/16/2018	No	4	1		self	7183013775	56.2	01/16/2018	0730	3441 Linden Pl	 	Flushing	NY	11354	01/16/2018	0830	849 57th St	  	Brooklyn	NY	11220	18.7			No	136922753
2504293	1620	567974320	Leg	Sharon		Caffey	XQ37608H	F	7183013775	09/04/1964	Bradnock Howard		1225002751	Clean Air Car Svc & Parking (NYC)	Livery/QN-Med Appt out CMMA	A0100	TN	01/16/2018	01/16/2018	No	4	1		self	7183013775	56.2	01/16/2018	call	849 57th St	 	Brooklyn	NY	11220	01/16/2018	call	3441 Linden Pl	  	Flushing	NY	11354	18.7			No	136922754
2504293	1621	567974320	Leg	Sharon		Caffey	XQ37608H	F	7183013775	09/04/1964	Bradnock Howard		1225002751	Clean Air Car Svc & Parking (NYC)	Livery/QN-Med Appt out CMMA	A0100	TN	01/16/2018	01/16/2018	No	4	1		self	7183013775	56.2	01/16/2018	1430	3441 Linden Pl	Apt 2B 	Flushing	NY	11354	01/16/2018	1530	1305 York Ave	  	New York	NY	10021	9.4			No	137090368
2504293	1622	567974320	Leg	Sharon		Caffey	XQ37608H	F	7183013775	09/04/1964	Bradnock Howard		1225002751	Clean Air Car Svc & Parking (NYC)	Livery/QN-Med Appt out CMMA	A0100	TN	01/16/2018	01/16/2018	No	4	1		self	7183013775	56.2	01/16/2018	Call	1305 York Ave	 	New York	NY	10021	01/16/2018	Call	3441 Linden Pl	Apt 2B 	Flushing	NY	11354	9.4			No	137090369
2504293	1623	567974320	Service	Sharon		Caffey	XQ37608H	F	7183013775	09/04/1964	Bradnock Howard		1225002751	Clean Air Car Svc & Parking (NYC)	Tolls-Universal	A0170	CG	01/16/2018	01/16/2018	No	4	1																					Tolls-Universal	136922753
2504293	1624	567974320	Service	Sharon		Caffey	XQ37608H	F	7183013775	09/04/1964	Bradnock Howard		1225002751	Clean Air Car Svc & Parking (NYC)	Mileage-Livery in NYC	S0215		01/16/2018	01/16/2018	No	4	1																					Mileage-Livery in NYC	136922753
2504293	1625	567974320	Service	Sharon		Caffey	XQ37608H	F	7183013775	09/04/1964	Bradnock Howard		1225002751	Clean Air Car Svc & Parking (NYC)	Mileage-Livery in NYC	S0215		01/16/2018	01/16/2018	No	4	1																					Mileage-Livery in NYC	136922754
2504293	1626	567974320	Service	Sharon		Caffey	XQ37608H	F	7183013775	09/04/1964	Bradnock Howard		1225002751	Clean Air Car Svc & Parking (NYC)	Mileage-Livery in NYC	S0215		01/16/2018	01/16/2018	No	4	1																					Mileage-Livery in NYC	137090368
2504293	1627	567974320	Service	Sharon		Caffey	XQ37608H	F	7183013775	09/04/1964	Bradnock Howard		1225002751	Clean Air Car Svc & Parking (NYC)	Livery-Manhattan Surcharge	A0100	SC	01/16/2018	01/16/2018	No	4	1																					Livery-Manhattan Surcharge	137090368
2504293	1628	567974320	Service	Sharon		Caffey	XQ37608H	F	7183013775	09/04/1964	Bradnock Howard		1225002751	Clean Air Car Svc & Parking (NYC)	Mileage-Livery in NYC	S0215		01/16/2018	01/16/2018	No	4	1																					Mileage-Livery in NYC	137090369
2504293	1629	567974320	Service	Sharon		Caffey	XQ37608H	F	7183013775	09/04/1964	Bradnock Howard		1225002751	Clean Air Car Svc & Parking (NYC)	Livery-Manhattan Surcharge	A0100	SC	01/16/2018	01/16/2018	No	4	1																					Livery-Manhattan Surcharge	137090369
2504293	1630	568004430	Leg	Anita		Narine	NC09839N	F	(347) 595-1081	05/24/1966	Queens Hospital	000	1801803903	Clean Air Car Svc & Parking (NYC)	Livery/QN-Med Appt in CMMA	A0100		01/17/2018	01/17/2018	No	2	1		self	(347) 595-1081	6.8	01/17/2018	0600	11017 101st Ave	 -	South Richmond Hill	NY	11419	01/17/2018	0700	9610 Metropolitan Ave	  main	Forest Hills	NY	11375	3.4			No	136929649
2504293	1631	568004430	Leg	Anita		Narine	NC09839N	F	(347) 595-1081	05/24/1966	Queens Hospital	000	1801803903	Clean Air Car Svc & Parking (NYC)	Livery/QN-Med Appt in CMMA	A0100		01/17/2018	01/17/2018	No	2	1		self	(347) 595-1081	6.8	01/17/2018	Call	9610 Metropolitan Ave	 main	Forest Hills	NY	11375	01/17/2018	Call	11017 101st Ave	  -	South Richmond Hill	NY	11419	3.4			No	136929650
2504293	1632	568110300	Leg	Leonel	A	Ortiz	XX50118N	M	(718) 846-8188	03/27/1967	Queens Hospital	000	1801803903	Clean Air Car Svc & Parking (NYC)	Livery/QN-Med Appt in CMMA	A0100		01/17/2018	01/17/2018	Yes	2	1		martha/ sister	917-282-0173	4.2	01/17/2018	0830	8751 108th St	Fl 1 	Richmond Hill	NY	11418	01/17/2018	0930	15010 Hillside Ave	  	Jamaica	NY	11432	2.1	s/o mon, wed and frid		No	136956508
2504293	1633	568110300	Leg	Leonel	A	Ortiz	XX50118N	M	(718) 846-8188	03/27/1967	Queens Hospital	000	1801803903	Clean Air Car Svc & Parking (NYC)	Livery/QN-Med Appt in CMMA	A0100		01/17/2018	01/17/2018	Yes	2	1		martha/ sister	917-282-0173	4.2	01/17/2018	Call	15010 Hillside Ave	 	Jamaica	NY	11432	01/17/2018	Call	8751 108th St	Fl 1 	Richmond Hill	NY	11418	2.1			No	136956509
2504293	1634	568110750	Leg	Leonel	A	Ortiz	XX50118N	M	(718) 846-8188	03/27/1967	Queens Hospital	000	1801803903	Clean Air Car Svc & Parking (NYC)	Livery/QN-Med Appt in CMMA	A0100		01/19/2018	01/19/2018	Yes	2	1		martha/ sister	917-282-0173	4.2	01/19/2018	0830	8751 108th St	Fl 1 	Richmond Hill	NY	11418	01/19/2018	0930	15010 Hillside Ave	  	Jamaica	NY	11432	2.1	s/o mon, wed and frid		No	136956510
2504293	1635	568110750	Leg	Leonel	A	Ortiz	XX50118N	M	(718) 846-8188	03/27/1967	Queens Hospital	000	1801803903	Clean Air Car Svc & Parking (NYC)	Livery/QN-Med Appt in CMMA	A0100		01/19/2018	01/19/2018	Yes	2	1		martha/ sister	917-282-0173	4.2	01/19/2018	Call	15010 Hillside Ave	 	Jamaica	NY	11432	01/19/2018	Call	8751 108th St	Fl 1 	Richmond Hill	NY	11418	2.1			No	136956511
2504293	1636	568110760	Leg	Leonel	A	Ortiz	XX50118N	M	(718) 846-8188	03/27/1967	Queens Hospital	000	1801803903	Clean Air Car Svc & Parking (NYC)	Livery/QN-Med Appt in CMMA	A0100		01/22/2018	01/22/2018	Yes	2	1		martha/ sister	917-282-0173	4.2	01/22/2018	0830	8751 108th St	Fl 1 	Richmond Hill	NY	11418	01/22/2018	0930	15010 Hillside Ave	  	Jamaica	NY	11432	2.1	s/o mon, wed and frid		No	136956512
2504293	1637	568110760	Leg	Leonel	A	Ortiz	XX50118N	M	(718) 846-8188	03/27/1967	Queens Hospital	000	1801803903	Clean Air Car Svc & Parking (NYC)	Livery/QN-Med Appt in CMMA	A0100		01/22/2018	01/22/2018	Yes	2	1		martha/ sister	917-282-0173	4.2	01/22/2018	Call	15010 Hillside Ave	 	Jamaica	NY	11432	01/22/2018	Call	8751 108th St	Fl 1 	Richmond Hill	NY	11418	2.1			No	136956513
2504293	1638	568110770	Leg	Leonel	A	Ortiz	XX50118N	M	(718) 846-8188	03/27/1967	Queens Hospital	000	1801803903	Clean Air Car Svc & Parking (NYC)	Livery/QN-Med Appt in CMMA	A0100		01/24/2018	01/24/2018	Yes	2	1		martha/ sister	917-282-0173	4.2	01/24/2018	0830	8751 108th St	Fl 1 	Richmond Hill	NY	11418	01/24/2018	0930	15010 Hillside Ave	  	Jamaica	NY	11432	2.1	s/o mon, wed and frid		No	136956514
2504293	1639	568110770	Leg	Leonel	A	Ortiz	XX50118N	M	(718) 846-8188	03/27/1967	Queens Hospital	000	1801803903	Clean Air Car Svc & Parking (NYC)	Livery/QN-Med Appt in CMMA	A0100		01/24/2018	01/24/2018	Yes	2	1		martha/ sister	917-282-0173	4.2	01/24/2018	Call	15010 Hillside Ave	 	Jamaica	NY	11432	01/24/2018	Call	8751 108th St	Fl 1 	Richmond Hill	NY	11418	2.1			No	136956515
2504293	1640	568110780	Leg	Leonel	A	Ortiz	XX50118N	M	(718) 846-8188	03/27/1967	Queens Hospital	000	1801803903	Clean Air Car Svc & Parking (NYC)	Livery/QN-Med Appt in CMMA	A0100		01/26/2018	01/26/2018	Yes	2	1		martha/ sister	917-282-0173	4.2	01/26/2018	0830	8751 108th St	Fl 1 	Richmond Hill	NY	11418	01/26/2018	0930	15010 Hillside Ave	  	Jamaica	NY	11432	2.1	s/o mon, wed and frid		No	136956516
2504293	1641	568110780	Leg	Leonel	A	Ortiz	XX50118N	M	(718) 846-8188	03/27/1967	Queens Hospital	000	1801803903	Clean Air Car Svc & Parking (NYC)	Livery/QN-Med Appt in CMMA	A0100		01/26/2018	01/26/2018	Yes	2	1		martha/ sister	917-282-0173	4.2	01/26/2018	Call	15010 Hillside Ave	 	Jamaica	NY	11432	01/26/2018	Call	8751 108th St	Fl 1 	Richmond Hill	NY	11418	2.1			No	136956517
2504293	1642	568110790	Leg	Leonel	A	Ortiz	XX50118N	M	(718) 846-8188	03/27/1967	Queens Hospital	000	1801803903	Clean Air Car Svc & Parking (NYC)	Livery/QN-Med Appt in CMMA	A0100		01/29/2018	01/29/2018	Yes	2	1		martha/ sister	917-282-0173	4.2	01/29/2018	0830	8751 108th St	Fl 1 	Richmond Hill	NY	11418	01/29/2018	0930	15010 Hillside Ave	  	Jamaica	NY	11432	2.1	s/o mon, wed and frid		No	136956518
2504293	1643	568110790	Leg	Leonel	A	Ortiz	XX50118N	M	(718) 846-8188	03/27/1967	Queens Hospital	000	1801803903	Clean Air Car Svc & Parking (NYC)	Livery/QN-Med Appt in CMMA	A0100		01/29/2018	01/29/2018	Yes	2	1		martha/ sister	917-282-0173	4.2	01/29/2018	Call	15010 Hillside Ave	 	Jamaica	NY	11432	01/29/2018	Call	8751 108th St	Fl 1 	Richmond Hill	NY	11418	2.1			No	136956519
2504293	1644	568110810	Leg	Leonel	A	Ortiz	XX50118N	M	(718) 846-8188	03/27/1967	Queens Hospital	000	1801803903	Clean Air Car Svc & Parking (NYC)	Livery/QN-Med Appt in CMMA	A0100		01/31/2018	01/31/2018	Yes	2	1		martha/ sister	917-282-0173	4.2	01/31/2018	0830	8751 108th St	Fl 1 	Richmond Hill	NY	11418	01/31/2018	0930	15010 Hillside Ave	  	Jamaica	NY	11432	2.1	s/o mon, wed and frid		No	136956520
2504293	1645	568110810	Leg	Leonel	A	Ortiz	XX50118N	M	(718) 846-8188	03/27/1967	Queens Hospital	000	1801803903	Clean Air Car Svc & Parking (NYC)	Livery/QN-Med Appt in CMMA	A0100		01/31/2018	01/31/2018	Yes	2	1		martha/ sister	917-282-0173	4.2	01/31/2018	Call	15010 Hillside Ave	 	Jamaica	NY	11432	01/31/2018	Call	8751 108th St	Fl 1 	Richmond Hill	NY	11418	2.1			No	136956521
2504293	1646	568194330	Leg	Angela		Melvin	XQ93651N	F	3472390282	05/20/1966	Mamoon Yusufal		1881811495	Clean Air Car Svc & Parking (NYC)	Livery/QN-Med Appt out CMMA	A0100	TN	01/17/2018	01/17/2018	No	2	1		self	3472390282	10.8	01/17/2018	0800	10930 160th St	 	Jamaica	NY	11433	01/17/2018	0900	4402 Francis Lewis Blvd	  	Bayside	NY	11361	5.4			No	136974011
2504293	1647	568194330	Leg	Angela		Melvin	XQ93651N	F	3472390282	05/20/1966	Mamoon Yusufal		1881811495	Clean Air Car Svc & Parking (NYC)	Livery/QN-Med Appt out CMMA	A0100	TN	01/17/2018	01/17/2018	No	2	1		self	3472390282	10.8	01/17/2018	0800	4402 Francis Lewis Blvd	 	Bayside	NY	11361	01/17/2018	0900	10930 160th St	  	Jamaica	NY	11433	5.4			No	136974012
2504293	1648	568388870	Leg	Maylene	A	Hawkinslingo	PT03668K	F	(631) 336-4112	09/14/2009	Abadi Maria	00000000	1376612549	Clean Air Car Svc & Parking (NYC)	Livery/MN-Med Appt out CMMA	A0100	TN	01/16/2018	01/16/2018	No	2	1		Unique/Mother	(631) 336-4112	41.0	01/16/2018	1500	25 Pine St	 	New York	NY	10005	01/16/2018	1600	1983 Marcus Ave	  	New Hyde Park	NY	11042	20.5	1 Additional rider(s). 1 Additional rider(s). 1 Additional rider(s). Additional Rider		No	137019003
2504293	1649	568388870	Leg	Maylene	A	Hawkinslingo	PT03668K	F	(631) 336-4112	09/14/2009	Abadi Maria	00000000	1376612549	Clean Air Car Svc & Parking (NYC)	Livery/MN-Med Appt out CMMA	A0100	TN	01/16/2018	01/16/2018	No	2	1		Unique/Mother	(631) 336-4112	41.0	01/16/2018	Call	1983 Marcus Ave	 	New Hyde Park	NY	11042	01/16/2018	Call	25 Pine St	  	New York	NY	10005	20.5	1 Additional rider(s). 1 Additional rider(s). 1 Additional rider(s). Additional Rider		No	137019004
2504293	1650	568388870	Service	Maylene	A	Hawkinslingo	PT03668K	F	(631) 336-4112	09/14/2009	Abadi Maria	00000000	1376612549	Clean Air Car Svc & Parking (NYC)	Tolls-Universal	A0170	CG	01/16/2018	01/16/2018	No	2	1																					Tolls-Universal	137019003
2504293	1651	568388870	Service	Maylene	A	Hawkinslingo	PT03668K	F	(631) 336-4112	09/14/2009	Abadi Maria	00000000	1376612549	Clean Air Car Svc & Parking (NYC)	Livery-Manhattan Surcharge	A0100	SC	01/16/2018	01/16/2018	No	2	1																					Livery-Manhattan Surcharge	137019003
2504293	1652	568388870	Service	Maylene	A	Hawkinslingo	PT03668K	F	(631) 336-4112	09/14/2009	Abadi Maria	00000000	1376612549	Clean Air Car Svc & Parking (NYC)	Livery-Manhattan Surcharge	A0100	SC	01/16/2018	01/16/2018	No	2	1																					Livery-Manhattan Surcharge	137019004
2504293	1653	568388870	Service	Maylene	A	Hawkinslingo	PT03668K	F	(631) 336-4112	09/14/2009	Abadi Maria	00000000	1376612549	Clean Air Car Svc & Parking (NYC)	Mileage-Livery out of NYC	S0215	TN	01/16/2018	01/16/2018	No	2	1																					Mileage-Livery out of NYC	137019003
2504293	1654	568388870	Service	Maylene	A	Hawkinslingo	PT03668K	F	(631) 336-4112	09/14/2009	Abadi Maria	00000000	1376612549	Clean Air Car Svc & Parking (NYC)	Mileage-Livery out of NYC	S0215	TN	01/16/2018	01/16/2018	No	2	1																					Mileage-Livery out of NYC	137019004
2504293	1655	568471370	Leg	Samuel		Fierstein	VX81030M	M	(718) 961-8972	09/01/1954	BLEULER PSYCHOTHERAPY CENTER		1801949706	Clean Air Car Svc & Parking (NYC)	Livery/QN-Med Appt in CMMA	A0100		01/15/2018	01/15/2018	Yes	2	1		Rob-Therapist	7182756010ext205	6.6	01/15/2018	1430	13815 Franklin Ave	Apt 412 	Flushing	NY	11355	01/15/2018	1530	10470 Queens Blvd	  main	Forest Hills	NY	11375	3.3	have a cain		No	137038562
2504293	1656	568471370	Leg	Samuel		Fierstein	VX81030M	M	(718) 961-8972	09/01/1954	BLEULER PSYCHOTHERAPY CENTER		1801949706	Clean Air Car Svc & Parking (NYC)	Livery/QN-Med Appt in CMMA	A0100		01/15/2018	01/15/2018	Yes	2	1		Rob-Therapist	7182756010ext205	6.6	01/15/2018	Call	10470 Queens Blvd	 main	Forest Hills	NY	11375	01/15/2018	Call	13815 Franklin Ave	Apt 412 	Flushing	NY	11355	3.3			No	137038563
2504293	1657	568475830	Leg	Samuel		Fierstein	VX81030M	M	(718) 961-8972	09/01/1954	BLEULER PSYCHOTHERAPY CENTER		1801949706	Clean Air Car Svc & Parking (NYC)	Livery/QN-Med Appt in CMMA	A0100		01/22/2018	01/22/2018	Yes	1	1		Rob-Therapist	7182756010ext205	3.3	01/22/2018	1345	13815 Franklin Ave	Apt 412 	Flushing	NY	11355	01/22/2018	1445	10470 Queens Blvd	  main	Forest Hills	NY	11375	3.3	have a cain		No	137038569
2504293	1658	568475830	Leg	Samuel		Fierstein	VX81030M	M	(718) 961-8972	09/01/1954	BLEULER PSYCHOTHERAPY CENTER		1801949706	Clean Air Car Svc & Parking (NYC)	Livery/QN-Med Appt in CMMA	A0100		01/22/2018	01/22/2018	Yes	1	1		Rob-Therapist	7182756010ext205	3.3	01/22/2018	Call	10470 Queens Blvd	 main	Forest Hills	NY	11375	01/22/2018	Call	13815 Franklin Ave	Apt 412 	Flushing	NY	11355	3.3			No	137038570
2504293	1659	568475840	Leg	Samuel		Fierstein	VX81030M	M	(718) 961-8972	09/01/1954	BLEULER PSYCHOTHERAPY CENTER		1801949706	Clean Air Car Svc & Parking (NYC)	Livery/QN-Med Appt in CMMA	A0100		01/29/2018	01/29/2018	Yes	2	1		Rob-Therapist	7182756010ext205	6.6	01/29/2018	1345	13815 Franklin Ave	Apt 412 	Flushing	NY	11355	01/29/2018	1445	10470 Queens Blvd	  main	Forest Hills	NY	11375	3.3	have a cain		No	137038571
2504293	1660	568475840	Leg	Samuel		Fierstein	VX81030M	M	(718) 961-8972	09/01/1954	BLEULER PSYCHOTHERAPY CENTER		1801949706	Clean Air Car Svc & Parking (NYC)	Livery/QN-Med Appt in CMMA	A0100		01/29/2018	01/29/2018	Yes	2	1		Rob-Therapist	7182756010ext205	6.6	01/29/2018	Call	10470 Queens Blvd	 main	Forest Hills	NY	11375	01/29/2018	Call	13815 Franklin Ave	Apt 412 	Flushing	NY	11355	3.3			No	137038572
2504293	1661	568552660	Leg	Reshma		Maharaj	KD54352J	F	(347) 500-4614	11/06/1980	Mcdonald Annmarie		1003976341	Clean Air Car Svc & Parking (NYC)	Livery/QN-Med Appt out CMMA	A0100	TN	01/23/2018	01/23/2018	Yes	3	1		self	(347) 500-4614	53.8	01/23/2018	0630	10459 121st St	 .	South Richmond Hill	NY	11419	01/23/2018	0730	177 Fort Washington Ave	  .	New York	NY	10032	18.1			No	137058633
2504293	1662	568552660	Leg	Reshma		Maharaj	KD54352J	F	(347) 500-4614	11/06/1980	Mcdonald Annmarie		1003976341	Clean Air Car Svc & Parking (NYC)	Livery/QN-Med Appt out CMMA	A0100	TN	01/23/2018	01/23/2018	Yes	3	1		self	(347) 500-4614	53.8	01/23/2018	0830	177 Fort Washington Ave	 .	New York	NY	10032	01/23/2018	0900	10459 121st St	  .	South Richmond Hill	NY	11419	18.1	s/o every tuesday		No	137058707
2504293	1663	568552660	Leg	Reshma		Maharaj	KD54352J	F	(347) 500-4614	11/06/1980	Mcdonald Annmarie		1003976341	Clean Air Car Svc & Parking (NYC)	Livery/QN-Med Appt out CMMA	A0100	TN	01/23/2018	01/23/2018	Yes	3	1		self	(347) 500-4614	53.8	01/23/2018	1115	10459 121st St	 .	South Richmond Hill	NY	11419	01/23/2018	1200	622 W 168th St	  .	New York	NY	10032	17.6	s/o every tuesday		No	137058964
2504293	1664	568552660	Leg	Reshma		Maharaj	KD54352J	F	(347) 500-4614	11/06/1980	Mcdonald Annmarie		1003976341	Clean Air Car Svc & Parking (NYC)	Livery/QN-Med Appt out CMMA	A0100	TN	01/23/2018	01/23/2018	Yes	3	1		self	(347) 500-4614	53.8	01/23/2018	1300	622 W 168th St	 .	New York	NY	10032	01/23/2018	1400	10459 121st St	  .	South Richmond Hill	NY	11419	17.6			No	137058965
2504293	1665	568552660	Service	Reshma		Maharaj	KD54352J	F	(347) 500-4614	11/06/1980	Mcdonald Annmarie		1003976341	Clean Air Car Svc & Parking (NYC)	Mileage-Livery in NYC	S0215		01/23/2018	01/23/2018	Yes	3	1																					Mileage-Livery in NYC	137058633
2504293	1666	568552660	Service	Reshma		Maharaj	KD54352J	F	(347) 500-4614	11/06/1980	Mcdonald Annmarie		1003976341	Clean Air Car Svc & Parking (NYC)	Mileage-Livery in NYC	S0215		01/23/2018	01/23/2018	Yes	3	1																					Mileage-Livery in NYC	137058707
2504293	1667	568552660	Service	Reshma		Maharaj	KD54352J	F	(347) 500-4614	11/06/1980	Mcdonald Annmarie		1003976341	Clean Air Car Svc & Parking (NYC)	Mileage-Livery in NYC	S0215		01/23/2018	01/23/2018	Yes	3	1																					Mileage-Livery in NYC	137058964
2504293	1668	568552660	Service	Reshma		Maharaj	KD54352J	F	(347) 500-4614	11/06/1980	Mcdonald Annmarie		1003976341	Clean Air Car Svc & Parking (NYC)	Mileage-Livery in NYC	S0215		01/23/2018	01/23/2018	Yes	3	1																					Mileage-Livery in NYC	137058965
2504293	1669	568552660	Service	Reshma		Maharaj	KD54352J	F	(347) 500-4614	11/06/1980	Mcdonald Annmarie		1003976341	Clean Air Car Svc & Parking (NYC)	Tolls-Universal	A0170	CG	01/23/2018	01/23/2018	Yes	3	1																					Tolls-Universal	137058633
2504293	1670	568552700	Leg	Iris		Babayoff	UX68405R	F	(718) 570-6536	03/26/1971	ALLEVA MICHAEL MD	000	1730147182	Clean Air Car Svc & Parking (NYC)	Livery/QN-Med Appt out CMMA	A0100	TN	01/17/2018	01/17/2018	No	2	1		self	(718) 570-6536	21.0	01/17/2018	1230	7135 Vleigh Pl	 	Flushing	NY	11367	01/17/2018	1330	504 Central Ave	  	Cedarhurst	NY	11516	10.5			No	137058699
2504293	1671	568552700	Leg	Iris		Babayoff	UX68405R	F	(718) 570-6536	03/26/1971	ALLEVA MICHAEL MD	000	1730147182	Clean Air Car Svc & Parking (NYC)	Livery/QN-Med Appt out CMMA	A0100	TN	01/17/2018	01/17/2018	No	2	1		self	(718) 570-6536	21.0	01/17/2018	1430	504 Central Ave	 	Cedarhurst	NY	11516	01/17/2018	1530	7135 Vleigh Pl	  	Flushing	NY	11367	10.5			No	137058700
2504293	1672	568552700	Service	Iris		Babayoff	UX68405R	F	(718) 570-6536	03/26/1971	ALLEVA MICHAEL MD	000	1730147182	Clean Air Car Svc & Parking (NYC)	Tolls-Universal	A0170	CG	01/17/2018	01/17/2018	No	2	1																					Tolls-Universal	137058699
2504293	1673	568552700	Service	Iris		Babayoff	UX68405R	F	(718) 570-6536	03/26/1971	ALLEVA MICHAEL MD	000	1730147182	Clean Air Car Svc & Parking (NYC)	Mileage-Livery out of NYC	S0215	TN	01/17/2018	01/17/2018	No	2	1																					Mileage-Livery out of NYC	137058699
2504293	1674	568552700	Service	Iris		Babayoff	UX68405R	F	(718) 570-6536	03/26/1971	ALLEVA MICHAEL MD	000	1730147182	Clean Air Car Svc & Parking (NYC)	Mileage-Livery out of NYC	S0215	TN	01/17/2018	01/17/2018	No	2	1																					Mileage-Livery out of NYC	137058700
2504293	1675	568562400	Leg	Reshma		Maharaj	KD54352J	F	(347) 500-4614	11/06/1980	Mcdonald Annmarie		1003976341	Clean Air Car Svc & Parking (NYC)	Livery/QN-Med Appt out CMMA	A0100	TN	01/24/2018	01/24/2018	Yes	4	1		self	(347) 500-4614	57.8	01/24/2018	0630	10459 121st St	 .	South Richmond Hill	NY	11419	01/24/2018	0730	622 W 168th St	  .	New York	NY	10032	17.6	s/o every wednesday		No	137060758
2504293	1676	568562400	Leg	Reshma		Maharaj	KD54352J	F	(347) 500-4614	11/06/1980	Mcdonald Annmarie		1003976341	Clean Air Car Svc & Parking (NYC)	Livery/QN-Med Appt out CMMA	A0100	TN	01/24/2018	01/24/2018	Yes	4	1		self	(347) 500-4614	57.8	01/24/2018	0830	622 W 168th St	 .	New York	NY	10032	01/24/2018	0930	10459 121st St	  .	South Richmond Hill	NY	11419	17.6			No	137060759
2504293	1677	568562400	Leg	Reshma		Maharaj	KD54352J	F	(347) 500-4614	11/06/1980	Mcdonald Annmarie		1003976341	Clean Air Car Svc & Parking (NYC)	Livery/QN-Med Appt out CMMA	A0100	TN	01/24/2018	01/24/2018	Yes	4	1		self	(347) 500-4614	57.8	01/24/2018	1200	10459 121st St	 .	South Richmond Hill	NY	11419	01/24/2018	1300	185 Canal St	  .	New York	NY	10013	11.3	s/o every wednesday		No	137061327
2504293	1678	568562400	Leg	Reshma		Maharaj	KD54352J	F	(347) 500-4614	11/06/1980	Mcdonald Annmarie		1003976341	Clean Air Car Svc & Parking (NYC)	Livery/QN-Med Appt out CMMA	A0100	TN	01/24/2018	01/24/2018	Yes	4	1		self	(347) 500-4614	57.8	01/24/2018	1400	185 Canal St	 .	New York	NY	10013	01/24/2018	1500	10459 121st St	  .	South Richmond Hill	NY	11419	11.3			No	137061328
2504293	1679	568562400	Service	Reshma		Maharaj	KD54352J	F	(347) 500-4614	11/06/1980	Mcdonald Annmarie		1003976341	Clean Air Car Svc & Parking (NYC)	Mileage-Livery in NYC	S0215		01/24/2018	01/24/2018	Yes	4	1																					Mileage-Livery in NYC	137060758
2504293	1680	568562400	Service	Reshma		Maharaj	KD54352J	F	(347) 500-4614	11/06/1980	Mcdonald Annmarie		1003976341	Clean Air Car Svc & Parking (NYC)	Mileage-Livery in NYC	S0215		01/24/2018	01/24/2018	Yes	4	1																					Mileage-Livery in NYC	137060759
2504293	1681	568562400	Service	Reshma		Maharaj	KD54352J	F	(347) 500-4614	11/06/1980	Mcdonald Annmarie		1003976341	Clean Air Car Svc & Parking (NYC)	Mileage-Livery in NYC	S0215		01/24/2018	01/24/2018	Yes	4	1																					Mileage-Livery in NYC	137061327
2504293	1682	568562400	Service	Reshma		Maharaj	KD54352J	F	(347) 500-4614	11/06/1980	Mcdonald Annmarie		1003976341	Clean Air Car Svc & Parking (NYC)	Mileage-Livery in NYC	S0215		01/24/2018	01/24/2018	Yes	4	1																					Mileage-Livery in NYC	137061328
2504293	1683	568562400	Service	Reshma		Maharaj	KD54352J	F	(347) 500-4614	11/06/1980	Mcdonald Annmarie		1003976341	Clean Air Car Svc & Parking (NYC)	Tolls-Universal	A0170	CG	01/24/2018	01/24/2018	Yes	4	1																					Tolls-Universal	137060758
2504293	1684	568562400	Service	Reshma		Maharaj	KD54352J	F	(347) 500-4614	11/06/1980	Mcdonald Annmarie		1003976341	Clean Air Car Svc & Parking (NYC)	Livery-Manhattan Surcharge	A0100	SC	01/24/2018	01/24/2018	Yes	4	1																					Livery-Manhattan Surcharge	137061327
2504293	1685	568562400	Service	Reshma		Maharaj	KD54352J	F	(347) 500-4614	11/06/1980	Mcdonald Annmarie		1003976341	Clean Air Car Svc & Parking (NYC)	Livery-Manhattan Surcharge	A0100	SC	01/24/2018	01/24/2018	Yes	4	1																					Livery-Manhattan Surcharge	137061328
2504293	1686	568566890	Leg	Reshma		Maharaj	KD54352J	F	(347) 500-4614	11/06/1980	Mcdonald Annmarie		1003976341	Clean Air Car Svc & Parking (NYC)	Livery/QN-Med Appt out CMMA	A0100	TN	01/31/2018	01/31/2018	Yes	4	1		self	(347) 500-4614	57.8	01/31/2018	0630	10459 121st St	 .	South Richmond Hill	NY	11419	01/31/2018	0730	622 W 168th St	  .	New York	NY	10032	17.6	s/o every wednesday		No	137060760
2504293	1687	568566890	Leg	Reshma		Maharaj	KD54352J	F	(347) 500-4614	11/06/1980	Mcdonald Annmarie		1003976341	Clean Air Car Svc & Parking (NYC)	Livery/QN-Med Appt out CMMA	A0100	TN	01/31/2018	01/31/2018	Yes	4	1		self	(347) 500-4614	57.8	01/31/2018	0830	622 W 168th St	 .	New York	NY	10032	01/31/2018	0930	10459 121st St	  .	South Richmond Hill	NY	11419	17.6			No	137060761
2504293	1688	568566890	Leg	Reshma		Maharaj	KD54352J	F	(347) 500-4614	11/06/1980	Mcdonald Annmarie		1003976341	Clean Air Car Svc & Parking (NYC)	Livery/QN-Med Appt out CMMA	A0100	TN	01/31/2018	01/31/2018	Yes	4	1		self	(347) 500-4614	57.8	01/31/2018	1200	10459 121st St	 .	South Richmond Hill	NY	11419	01/31/2018	1300	185 Canal St	  .	New York	NY	10013	11.3	s/o every wednesday		No	137061329
2504293	1689	568566890	Leg	Reshma		Maharaj	KD54352J	F	(347) 500-4614	11/06/1980	Mcdonald Annmarie		1003976341	Clean Air Car Svc & Parking (NYC)	Livery/QN-Med Appt out CMMA	A0100	TN	01/31/2018	01/31/2018	Yes	4	1		self	(347) 500-4614	57.8	01/31/2018	1400	185 Canal St	 .	New York	NY	10013	01/31/2018	1500	10459 121st St	  .	South Richmond Hill	NY	11419	11.3			No	137061330
2504293	1690	568566890	Service	Reshma		Maharaj	KD54352J	F	(347) 500-4614	11/06/1980	Mcdonald Annmarie		1003976341	Clean Air Car Svc & Parking (NYC)	Mileage-Livery in NYC	S0215		01/31/2018	01/31/2018	Yes	4	1																					Mileage-Livery in NYC	137060760
2504293	1691	568566890	Service	Reshma		Maharaj	KD54352J	F	(347) 500-4614	11/06/1980	Mcdonald Annmarie		1003976341	Clean Air Car Svc & Parking (NYC)	Mileage-Livery in NYC	S0215		01/31/2018	01/31/2018	Yes	4	1																					Mileage-Livery in NYC	137060761
2504293	1692	568566890	Service	Reshma		Maharaj	KD54352J	F	(347) 500-4614	11/06/1980	Mcdonald Annmarie		1003976341	Clean Air Car Svc & Parking (NYC)	Mileage-Livery in NYC	S0215		01/31/2018	01/31/2018	Yes	4	1																					Mileage-Livery in NYC	137061329
2504293	1693	568566890	Service	Reshma		Maharaj	KD54352J	F	(347) 500-4614	11/06/1980	Mcdonald Annmarie		1003976341	Clean Air Car Svc & Parking (NYC)	Mileage-Livery in NYC	S0215		01/31/2018	01/31/2018	Yes	4	1																					Mileage-Livery in NYC	137061330
2504293	1694	568566890	Service	Reshma		Maharaj	KD54352J	F	(347) 500-4614	11/06/1980	Mcdonald Annmarie		1003976341	Clean Air Car Svc & Parking (NYC)	Tolls-Universal	A0170	CG	01/31/2018	01/31/2018	Yes	4	1																					Tolls-Universal	137060760
2504293	1695	568566890	Service	Reshma		Maharaj	KD54352J	F	(347) 500-4614	11/06/1980	Mcdonald Annmarie		1003976341	Clean Air Car Svc & Parking (NYC)	Livery-Manhattan Surcharge	A0100	SC	01/31/2018	01/31/2018	Yes	4	1																					Livery-Manhattan Surcharge	137061329
2504293	1696	568566890	Service	Reshma		Maharaj	KD54352J	F	(347) 500-4614	11/06/1980	Mcdonald Annmarie		1003976341	Clean Air Car Svc & Parking (NYC)	Livery-Manhattan Surcharge	A0100	SC	01/31/2018	01/31/2018	Yes	4	1																					Livery-Manhattan Surcharge	137061330
2504293	1697	568601510	Leg	Gloria		Yung	UA10312F	F	(212) 349-5035	12/20/1998	NY Presbyterian Hospital	0000000	1952332801	Clean Air Car Svc & Parking (NYC)	Livery/MN-Med Appt in CMMA	A0100		01/18/2018	01/18/2018	No	2	1		SAME	(212) 349-5035	6.8	01/18/2018	1500	275 South St	Apt 13J 	New York	NY	10002	01/18/2018	1600	240 E 38th St	- 	New York	NY	10016	3.4	PLUS 2 , Additional Rider		No	137069555
2504293	1698	568601510	Leg	Gloria		Yung	UA10312F	F	(212) 349-5035	12/20/1998	NY Presbyterian Hospital	0000000	1952332801	Clean Air Car Svc & Parking (NYC)	Livery/MN-Med Appt in CMMA	A0100		01/18/2018	01/18/2018	No	2	1		SAME	(212) 349-5035	6.8	01/18/2018	Call	240 E 38th St	- 	New York	NY	10016	01/18/2018	Call	275 South St	Apt 13J 	New York	NY	10002	3.4			No	137069556
2504293	1699	568601510	Service	Gloria		Yung	UA10312F	F	(212) 349-5035	12/20/1998	NY Presbyterian Hospital	0000000	1952332801	Clean Air Car Svc & Parking (NYC)	Livery-Manhattan Surcharge	A0100	SC	01/18/2018	01/18/2018	No	2	1																					Livery-Manhattan Surcharge	137069555
2504293	1700	568601510	Service	Gloria		Yung	UA10312F	F	(212) 349-5035	12/20/1998	NY Presbyterian Hospital	0000000	1952332801	Clean Air Car Svc & Parking (NYC)	Livery-Manhattan Surcharge	A0100	SC	01/18/2018	01/18/2018	No	2	1																					Livery-Manhattan Surcharge	137069556
2504293	1701	568609910	Leg	Nydia		Vasquez	ZR93788C	F	3476311085	08/09/1953	Staten Island Drug Rehab		1407877137	Clean Air Car Svc & Parking (NYC)	Livery/BK-Med Appt out CMMA	A0100	TN	01/17/2018	01/17/2018	No	2	1		self	3476311085	19.0	01/17/2018	0600	463 Avenue Y	 	Brooklyn	NY	11223	01/17/2018	0700	567 E 105th St	  	Brooklyn	NY	11236	9.5			No	137072032
2504293	1702	568609910	Leg	Nydia		Vasquez	ZR93788C	F	3476311085	08/09/1953	Staten Island Drug Rehab		1407877137	Clean Air Car Svc & Parking (NYC)	Livery/BK-Med Appt out CMMA	A0100	TN	01/17/2018	01/17/2018	No	2	1		self	3476311085	19.0	01/17/2018	CALL	567 E 105th St	 	Brooklyn	NY	11236	01/17/2018	CALL	463 Avenue Y	  	Brooklyn	NY	11223	9.5			No	137072033
2504293	1703	568609910	Service	Nydia		Vasquez	ZR93788C	F	3476311085	08/09/1953	Staten Island Drug Rehab		1407877137	Clean Air Car Svc & Parking (NYC)	Mileage-Livery in NYC	S0215		01/17/2018	01/17/2018	No	2	1																					Mileage-Livery in NYC	137072032
2504293	1704	568609910	Service	Nydia		Vasquez	ZR93788C	F	3476311085	08/09/1953	Staten Island Drug Rehab		1407877137	Clean Air Car Svc & Parking (NYC)	Mileage-Livery in NYC	S0215		01/17/2018	01/17/2018	No	2	1																					Mileage-Livery in NYC	137072033
2504293	1705	568677320	Leg	Hongyi		Cai	PN23626K	M	(917) 655-1992	02/27/2000	Aygun Banu	000	1235218991	Clean Air Car Svc & Parking (NYC)	Livery/QN-Med Appt out CMMA	A0100	TN	01/18/2018	01/18/2018	No	2	1		Hongyi Cai (Recipient-NYC)	(917) 655-1992	15.2	01/18/2018	0700	146-42 59th Ave	2Fl 	Flushing	NY	11355	01/18/2018	0800	26901 76th Ave	  	New Hyde Park	NY	11040	7.6			No	137085646
2504293	1706	568677320	Leg	Hongyi		Cai	PN23626K	M	(917) 655-1992	02/27/2000	Aygun Banu	000	1235218991	Clean Air Car Svc & Parking (NYC)	Livery/QN-Med Appt out CMMA	A0100	TN	01/18/2018	01/18/2018	No	2	1		Hongyi Cai (Recipient-NYC)	(917) 655-1992	15.2	01/18/2018	CALL	26901 76th Ave	 	New Hyde Park	NY	11040	01/18/2018	CALL	146-42 59th Ave	2Fl 	Flushing	NY	11355	7.6			No	137085647
2504293	1707	568678180	Leg	Hongyi		Cai	PN23626K	M	(917) 655-1992	02/27/2000	Aygun Banu	000	1235218991	Clean Air Car Svc & Parking (NYC)	Livery/QN-Med Appt out CMMA	A0100	TN	01/30/2018	01/30/2018	No	2	1		Hongyi Cai (Recipient-NYC)	(917) 655-1992	15.2	01/30/2018	0830	146-42 59th Ave	2Fl 	Flushing	NY	11355	01/30/2018	0930	26901 76th Ave	front 	New Hyde Park	NY	11040	7.6			No	137085801
2504293	1708	568678180	Leg	Hongyi		Cai	PN23626K	M	(917) 655-1992	02/27/2000	Aygun Banu	000	1235218991	Clean Air Car Svc & Parking (NYC)	Livery/QN-Med Appt out CMMA	A0100	TN	01/30/2018	01/30/2018	No	2	1		Hongyi Cai (Recipient-NYC)	(917) 655-1992	15.2	01/30/2018	CALL	26901 76th Ave	front 	New Hyde Park	NY	11040	01/30/2018	CALL	146-42 59th Ave	2Fl 	Flushing	NY	11355	7.6			No	137085802
2504293	1709	568703340	Leg	Gene	M	Chong	WF23687A	M	(718) 949-8228	11/09/1961	Epstein, Marcia		1497815559	Clean Air Car Svc & Parking (NYC)	Livery/QN-Med Appt out CMMA	A0100	TN	01/17/2018	01/17/2018	No	2	1			(718) 949-8228	22.8	01/17/2018	0830	14729 228th St	# 1FLR 	Rosedale	NY	11413	01/17/2018	0930	400 Community Dr	  main entr	Manhasset	NY	11030	11.4			No	137090932
2504293	1710	568703340	Leg	Gene	M	Chong	WF23687A	M	(718) 949-8228	11/09/1961	Epstein, Marcia		1497815559	Clean Air Car Svc & Parking (NYC)	Livery/QN-Med Appt out CMMA	A0100	TN	01/17/2018	01/17/2018	No	2	1			(718) 949-8228	22.8	01/17/2018	Call	400 Community Dr	 main entr	Manhasset	NY	11030	01/17/2018	Call	14729 228th St	# 1FLR 	Rosedale	NY	11413	11.4			No	137090933
2504293	1711	568703340	Service	Gene	M	Chong	WF23687A	M	(718) 949-8228	11/09/1961	Epstein, Marcia		1497815559	Clean Air Car Svc & Parking (NYC)	Tolls-Universal	A0170	CG	01/17/2018	01/17/2018	No	2	1																					Tolls-Universal	137090932
2504293	1712	568703340	Service	Gene	M	Chong	WF23687A	M	(718) 949-8228	11/09/1961	Epstein, Marcia		1497815559	Clean Air Car Svc & Parking (NYC)	Mileage-Livery out of NYC	S0215	TN	01/17/2018	01/17/2018	No	2	1																					Mileage-Livery out of NYC	137090932
2504293	1713	568703340	Service	Gene	M	Chong	WF23687A	M	(718) 949-8228	11/09/1961	Epstein, Marcia		1497815559	Clean Air Car Svc & Parking (NYC)	Mileage-Livery out of NYC	S0215	TN	01/17/2018	01/17/2018	No	2	1																					Mileage-Livery out of NYC	137090933
2504293	1714	568742160	Leg	Abu	M	Ishtiaq	UD62972K	M	(646) 436-9307	12/04/1997	Akita Francis		1063493732	Clean Air Car Svc & Parking (NYC)	Livery/QN-Med Appt out CMMA	A0100	TN	01/19/2018	01/19/2018	No	3	1		Fattimah/Mom	(646) 436-9307	15.5	01/19/2018	1300	3230 77th St	Fl 1 	East Elmhurst	NY	11370	01/19/2018	1400	520 E 70th St	  main	New York	NY	10021	5.1	Additional Rider		No	137101097
2504293	1715	568742160	Leg	Abu	M	Ishtiaq	UD62972K	M	(646) 436-9307	12/04/1997	Akita Francis		1063493732	Clean Air Car Svc & Parking (NYC)	Livery/QN-Med Appt out CMMA	A0100	TN	01/19/2018	01/19/2018	No	3	1		Fattimah/Mom	(646) 436-9307	15.5	01/19/2018	Call	520 E 70th St	 main	New York	NY	10021	01/19/2018	Call	3230 77th St	Fl 1 	East Elmhurst	NY	11370	5.1			No	137101098
2504293	1716	568742160	Leg	Abu	M	Ishtiaq	UD62972K	M	(646) 436-9307	12/04/1997	Akita Francis		1063493732	Clean Air Car Svc & Parking (NYC)	Livery/QN-Med Appt out CMMA	A0100	TN	01/19/2018	01/19/2018	No	3	1		Fattimah/Mom	(646) 436-9307	15.5	01/19/2018	1930	3230 77th St	Fl 1 	East Elmhurst	NY	11370	01/19/2018	2030	800 2nd Ave	  	New York	NY	10017	5.3	Additional Rider		No	137101153
2504293	1717	568742160	Service	Abu	M	Ishtiaq	UD62972K	M	(646) 436-9307	12/04/1997	Akita Francis		1063493732	Clean Air Car Svc & Parking (NYC)	Tolls-Universal	A0170	CG	01/19/2018	01/19/2018	No	3	1																					Tolls-Universal	137101097
2504293	1718	568742160	Service	Abu	M	Ishtiaq	UD62972K	M	(646) 436-9307	12/04/1997	Akita Francis		1063493732	Clean Air Car Svc & Parking (NYC)	Livery-Manhattan Surcharge	A0100	SC	01/19/2018	01/19/2018	No	3	1																					Livery-Manhattan Surcharge	137101097
2504293	1719	568742160	Service	Abu	M	Ishtiaq	UD62972K	M	(646) 436-9307	12/04/1997	Akita Francis		1063493732	Clean Air Car Svc & Parking (NYC)	Livery-Manhattan Surcharge	A0100	SC	01/19/2018	01/19/2018	No	3	1																					Livery-Manhattan Surcharge	137101098
2504293	1720	568742160	Service	Abu	M	Ishtiaq	UD62972K	M	(646) 436-9307	12/04/1997	Akita Francis		1063493732	Clean Air Car Svc & Parking (NYC)	Livery-Manhattan Surcharge	A0100	SC	01/19/2018	01/19/2018	No	3	1																					Livery-Manhattan Surcharge	137101153
2504293	1721	568768640	Leg	Reshma		Maharaj	KD54352J	F	(347) 500-4614	11/06/1980	Mcdonald Annmarie		1003976341	Clean Air Car Svc & Parking (NYC)	Livery/QN-Med Appt out CMMA	A0100	TN	01/16/2018	01/16/2018	No	4	1		self	(347) 500-4614	37.2	01/16/2018	1600	10459 121st St	 .	South Richmond Hill	NY	11419	01/16/2018	1700	13203 120th Ave	  .	South Ozone Park	NY	11420	1.0			No	137107751
2504293	1722	568768640	Leg	Reshma		Maharaj	KD54352J	F	(347) 500-4614	11/06/1980	Mcdonald Annmarie		1003976341	Clean Air Car Svc & Parking (NYC)	Livery/QN-Med Appt out CMMA	A0100	TN	01/16/2018	01/16/2018	No	4	1		self	(347) 500-4614	37.2	01/16/2018	Call	13203 120th Ave	 .	South Ozone Park	NY	11420	01/16/2018	Call	10459 121st St	  .	South Richmond Hill	NY	11419	1.0			No	137107752
2504293	1723	568768640	Leg	Reshma		Maharaj	KD54352J	F	(347) 500-4614	11/06/1980	Mcdonald Annmarie		1003976341	Clean Air Car Svc & Parking (NYC)	Livery/QN-Med Appt out CMMA	A0100	TN	01/16/2018	01/16/2018	No	4	1		self	(347) 500-4614	37.2	01/16/2018	1200	10459 121st St	 	South Richmond Hill	NY	11419	01/16/2018	1300	622 W 168th St	  	New York	NY	10032	17.6			No	137107753
2504293	1724	568768640	Leg	Reshma		Maharaj	KD54352J	F	(347) 500-4614	11/06/1980	Mcdonald Annmarie		1003976341	Clean Air Car Svc & Parking (NYC)	Livery/QN-Med Appt out CMMA	A0100	TN	01/16/2018	01/16/2018	No	4	1		self	(347) 500-4614	37.2	01/16/2018	Call	622 W 168th St	 	New York	NY	10032	01/16/2018	Call	10459 121st St	  	South Richmond Hill	NY	11419	17.6			No	137107754
2504293	1725	568768640	Service	Reshma		Maharaj	KD54352J	F	(347) 500-4614	11/06/1980	Mcdonald Annmarie		1003976341	Clean Air Car Svc & Parking (NYC)	Mileage-Livery in NYC	S0215		01/16/2018	01/16/2018	No	4	1																					Mileage-Livery in NYC	137107753
2504293	1726	568768640	Service	Reshma		Maharaj	KD54352J	F	(347) 500-4614	11/06/1980	Mcdonald Annmarie		1003976341	Clean Air Car Svc & Parking (NYC)	Mileage-Livery in NYC	S0215		01/16/2018	01/16/2018	No	4	1																					Mileage-Livery in NYC	137107754
2504293	1727	568768640	Service	Reshma		Maharaj	KD54352J	F	(347) 500-4614	11/06/1980	Mcdonald Annmarie		1003976341	Clean Air Car Svc & Parking (NYC)	Tolls-Universal	A0170	CG	01/16/2018	01/16/2018	No	4	1																					Tolls-Universal	137107753
2504293	1728	568768640	Service	Reshma		Maharaj	KD54352J	F	(347) 500-4614	11/06/1980	Mcdonald Annmarie		1003976341	Clean Air Car Svc & Parking (NYC)	Livery/QN-Med Appt in CMMA P/S	A0100		01/16/2018	01/16/2018	No	4	1																					Livery/QN-Med Appt in CMMA P/S	137107751
2504293	1729	568768640	Service	Reshma		Maharaj	KD54352J	F	(347) 500-4614	11/06/1980	Mcdonald Annmarie		1003976341	Clean Air Car Svc & Parking (NYC)	Livery/QN-Med Appt in CMMA P/S	A0100		01/16/2018	01/16/2018	No	4	1																					Livery/QN-Med Appt in CMMA P/S	137107752
2504293	1730	569008510	Leg	Sumin		Zhou	QF10646S	M	(347) 237-7389	01/18/1940	LI, JAMES		1740322148	Clean Air Car Svc & Parking (NYC)	Livery/QN-Med Appt in CMMA	A0100		01/19/2018	01/19/2018	No	2	1		self	(347) 237-7389	6.0	01/19/2018	1015	9840 64th Ave	Apt 8D 	Rego Park	NY	11374	01/19/2018	1100	3916 Prince St	  main	Flushing	NY	11354	3.0	Additional Rider		No	137168174
2504293	1731	569008510	Leg	Sumin		Zhou	QF10646S	M	(347) 237-7389	01/18/1940	LI, JAMES		1740322148	Clean Air Car Svc & Parking (NYC)	Livery/QN-Med Appt in CMMA	A0100		01/19/2018	01/19/2018	No	2	1		self	(347) 237-7389	6.0	01/19/2018	Call	3916 Prince St	 main	Flushing	NY	11354	01/19/2018	Call	9840 64th Ave	Apt 8D 	Rego Park	NY	11374	3.0			No	137168175
2504293	1732	569183560	Leg	Swatiben	A	Vora	NC76974F	F	(516) 455-3952	05/12/1958	Akhtar Sajjad MD	000000000	1912919457	Clean Air Car Svc & Parking (NYC)	Livery/QN-Med Appt in CMMA	A0100		01/16/2018	01/16/2018	Yes	2	1		self	(516) 455-3952	2.8	01/16/2018	1530	3514 65th St	FL 1 	Woodside	NY	11377	01/16/2018	1600	3353 82nd St	  Main Entrance	Jackson Heights	NY	11372	1.4	S/O Tuesday and Thursday		No	137213335
2504293	1733	569183560	Leg	Swatiben	A	Vora	NC76974F	F	(516) 455-3952	05/12/1958	Akhtar Sajjad MD	000000000	1912919457	Clean Air Car Svc & Parking (NYC)	Livery/QN-Med Appt in CMMA	A0100		01/16/2018	01/16/2018	Yes	2	1		self	(516) 455-3952	2.8	01/16/2018	Call	3353 82nd St	 Main Entrance	Jackson Heights	NY	11372	01/16/2018		3514 65th St	FL 1 	Woodside	NY	11377	1.4			No	137213336
2504293	1734	569185860	Leg	Yanique		Ford	SG65867E	F	6313364112	06/06/1985	NY Presbyterian Hospital		1952332801	Clean Air Car Svc & Parking (NYC)	Livery/MN-Med Appt out CMMA	A0100	TN	01/17/2018	01/17/2018	No	2	1		self	6313364112	17.6	01/17/2018	0900	25 Pine St	 	New York	NY	10005	01/17/2018	1000	2510 30th Rd	  	Long Island City	NY	11102	8.8	1 Additional rider(s). 1 Additional rider(s). 1 Additional rider(s). 1 Additional rider(s). 1 Additional rider(s). 1 Additional rider(s). 1 Additional		No	137213845
2504293	1735	569185860	Leg	Yanique		Ford	SG65867E	F	6313364112	06/06/1985	NY Presbyterian Hospital		1952332801	Clean Air Car Svc & Parking (NYC)	Livery/MN-Med Appt out CMMA	A0100	TN	01/17/2018	01/17/2018	No	2	1		self	6313364112	17.6	01/17/2018	Call	2510 30th Rd	 	Long Island City	NY	11102	01/17/2018	Call	25 Pine St	  	New York	NY	10005	8.8	1 Additional rider(s). 1 Additional rider(s). 1 Additional rider(s). 1 Additional rider(s). 1 Additional rider(s). 1 Additional rider(s). 1 Additional		No	137213846
2504293	1736	569185860	Service	Yanique		Ford	SG65867E	F	6313364112	06/06/1985	NY Presbyterian Hospital		1952332801	Clean Air Car Svc & Parking (NYC)	Mileage-Livery in NYC	S0215		01/17/2018	01/17/2018	No	2	1																					Mileage-Livery in NYC	137213845
2504293	1737	569185860	Service	Yanique		Ford	SG65867E	F	6313364112	06/06/1985	NY Presbyterian Hospital		1952332801	Clean Air Car Svc & Parking (NYC)	Mileage-Livery in NYC	S0215		01/17/2018	01/17/2018	No	2	1																					Mileage-Livery in NYC	137213846
2504293	1738	569185860	Service	Yanique		Ford	SG65867E	F	6313364112	06/06/1985	NY Presbyterian Hospital		1952332801	Clean Air Car Svc & Parking (NYC)	Tolls-Universal	A0170	CG	01/17/2018	01/17/2018	No	2	1																					Tolls-Universal	137213845
2504293	1739	569185860	Service	Yanique		Ford	SG65867E	F	6313364112	06/06/1985	NY Presbyterian Hospital		1952332801	Clean Air Car Svc & Parking (NYC)	Livery-Manhattan Surcharge	A0100	SC	01/17/2018	01/17/2018	No	2	1																					Livery-Manhattan Surcharge	137213845
2504293	1740	569185860	Service	Yanique		Ford	SG65867E	F	6313364112	06/06/1985	NY Presbyterian Hospital		1952332801	Clean Air Car Svc & Parking (NYC)	Livery-Manhattan Surcharge	A0100	SC	01/17/2018	01/17/2018	No	2	1																					Livery-Manhattan Surcharge	137213846
2504293	1741	569190970	Leg	Swatiben	A	Vora	NC76974F	F	(516) 455-3952	05/12/1958	Akhtar Sajjad MD	000000000	1912919457	Clean Air Car Svc & Parking (NYC)	Livery/QN-Med Appt in CMMA	A0100		01/23/2018	01/23/2018	Yes	2	1		self	(516) 455-3952	2.8	01/23/2018	1530	3514 65th St	FL 1 	Woodside	NY	11377	01/23/2018	1600	3353 82nd St	  Main Entrance	Jackson Heights	NY	11372	1.4	S/O Tuesday and Thursday		No	137213339
2504293	1742	569190970	Leg	Swatiben	A	Vora	NC76974F	F	(516) 455-3952	05/12/1958	Akhtar Sajjad MD	000000000	1912919457	Clean Air Car Svc & Parking (NYC)	Livery/QN-Med Appt in CMMA	A0100		01/23/2018	01/23/2018	Yes	2	1		self	(516) 455-3952	2.8	01/23/2018	Call	3353 82nd St	 Main Entrance	Jackson Heights	NY	11372	01/23/2018		3514 65th St	FL 1 	Woodside	NY	11377	1.4			No	137213340
2504293	1743	569211060	Leg	Sayema		Zaman	QE65089D	F	9296004267	11/06/1986	Nanda Deepak		1932167061	Clean Air Car Svc & Parking (NYC)	Livery/QN-Med Appt out CMMA	A0100	TN	01/19/2018	01/19/2018	No	2	1		self	9296004267	10.2	01/19/2018	1115	17545 88th Ave	 	Jamaica	NY	11432	01/19/2018	1200	6155 98th St	  	Rego Park	NY	11374	5.1	plus 2		No	137219157
2504293	1744	569211060	Leg	Sayema		Zaman	QE65089D	F	9296004267	11/06/1986	Nanda Deepak		1932167061	Clean Air Car Svc & Parking (NYC)	Livery/QN-Med Appt out CMMA	A0100	TN	01/19/2018	01/19/2018	No	2	1		self	9296004267	10.2	01/19/2018	CALL	6155 98th St	 	Rego Park	NY	11374	01/19/2018	CALL	17545 88th Ave	  	Jamaica	NY	11432	5.1			No	137219158
2504293	1745	569232390	Leg	Sharon		Caffey	XQ37608H	F	(718) 301-3775	09/04/1964	Bradnock Howard		1225002751	Clean Air Car Svc & Parking (NYC)	Livery/QN-Med Appt out CMMA	A0100	TN	01/17/2018	01/17/2018	No	4	1		self	(718) 301-3775	58.6	01/17/2018	0730	3441 Linden Pl	Apt 2B 	Flushing	NY	11354	01/17/2018	0830	9711 3rd Ave	  .	Brooklyn	NY	11209	19.9			No	137224988
2504293	1746	569232390	Leg	Sharon		Caffey	XQ37608H	F	(718) 301-3775	09/04/1964	Bradnock Howard		1225002751	Clean Air Car Svc & Parking (NYC)	Livery/QN-Med Appt out CMMA	A0100	TN	01/17/2018	01/17/2018	No	4	1		self	(718) 301-3775	58.6	01/17/2018	Call	9711 3rd Ave	 .	Brooklyn	NY	11209	01/17/2018	Call	3441 Linden Pl	Apt 2B 	Flushing	NY	11354	19.9			No	137224989
2504293	1747	569232390	Leg	Sharon		Caffey	XQ37608H	F	(718) 301-3775	09/04/1964	Bradnock Howard		1225002751	Clean Air Car Svc & Parking (NYC)	Livery/QN-Med Appt out CMMA	A0100	TN	01/17/2018	01/17/2018	No	4	1		self	(718) 301-3775	58.6	01/17/2018	1430	3441 Linden Pl	Apt 2B 	Flushing	NY	11354	01/17/2018	1530	1305 York Ave	3rd floor 	New York	NY	10021	9.4			No	137225751
2504293	1748	569232390	Leg	Sharon		Caffey	XQ37608H	F	(718) 301-3775	09/04/1964	Bradnock Howard		1225002751	Clean Air Car Svc & Parking (NYC)	Livery/QN-Med Appt out CMMA	A0100	TN	01/17/2018	01/17/2018	No	4	1		self	(718) 301-3775	58.6	01/17/2018	Call	1305 York Ave	3rd floor 	New York	NY	10021	01/17/2018	Call	3441 Linden Pl	Apt 2B 	Flushing	NY	11354	9.4			No	137225752
2504293	1749	569232390	Service	Sharon		Caffey	XQ37608H	F	(718) 301-3775	09/04/1964	Bradnock Howard		1225002751	Clean Air Car Svc & Parking (NYC)	Tolls-Universal	A0170	CG	01/17/2018	01/17/2018	No	4	1																					Tolls-Universal	137224988
2504293	1750	569232390	Service	Sharon		Caffey	XQ37608H	F	(718) 301-3775	09/04/1964	Bradnock Howard		1225002751	Clean Air Car Svc & Parking (NYC)	Mileage-Livery in NYC	S0215		01/17/2018	01/17/2018	No	4	1																					Mileage-Livery in NYC	137224988
2504293	1751	569232390	Service	Sharon		Caffey	XQ37608H	F	(718) 301-3775	09/04/1964	Bradnock Howard		1225002751	Clean Air Car Svc & Parking (NYC)	Mileage-Livery in NYC	S0215		01/17/2018	01/17/2018	No	4	1																					Mileage-Livery in NYC	137224989
2504293	1752	569232390	Service	Sharon		Caffey	XQ37608H	F	(718) 301-3775	09/04/1964	Bradnock Howard		1225002751	Clean Air Car Svc & Parking (NYC)	Mileage-Livery in NYC	S0215		01/17/2018	01/17/2018	No	4	1																					Mileage-Livery in NYC	137225751
2504293	1753	569232390	Service	Sharon		Caffey	XQ37608H	F	(718) 301-3775	09/04/1964	Bradnock Howard		1225002751	Clean Air Car Svc & Parking (NYC)	Mileage-Livery in NYC	S0215		01/17/2018	01/17/2018	No	4	1																					Mileage-Livery in NYC	137225752
2504293	1754	569232390	Service	Sharon		Caffey	XQ37608H	F	(718) 301-3775	09/04/1964	Bradnock Howard		1225002751	Clean Air Car Svc & Parking (NYC)	Livery-Manhattan Surcharge	A0100	SC	01/17/2018	01/17/2018	No	4	1																					Livery-Manhattan Surcharge	137225751
2504293	1755	569232390	Service	Sharon		Caffey	XQ37608H	F	(718) 301-3775	09/04/1964	Bradnock Howard		1225002751	Clean Air Car Svc & Parking (NYC)	Livery-Manhattan Surcharge	A0100	SC	01/17/2018	01/17/2018	No	4	1																					Livery-Manhattan Surcharge	137225752
2504293	1756	569284840	Leg	Maylene	A	Hawkinslingo	PT03668K	F	(631) 336-4112	09/14/2009	Queens Hospital	000	1801803903	Clean Air Car Svc & Parking (NYC)	Livery/QN-Med Appt out CMMA	A0100	TN	01/17/2018	01/17/2018	No	2	1		Unique/Mother	(631) 336-4112	41.8	01/17/2018	1500	25 Pine St	other 	New York	NY	10005	01/17/2018	1600	430 Lakeville Rd	8816474 	New Hyde Park	NY	11042	20.9	1 Additional rider(s). 1 Additional rider(s). Additional Rider		No	137237386
2504293	1757	569284840	Leg	Maylene	A	Hawkinslingo	PT03668K	F	(631) 336-4112	09/14/2009	Queens Hospital	000	1801803903	Clean Air Car Svc & Parking (NYC)	Livery/QN-Med Appt out CMMA	A0100	TN	01/17/2018	01/17/2018	No	2	1		Unique/Mother	(631) 336-4112	41.8	01/17/2018	Call	430 Lakeville Rd	8816474 	New Hyde Park	NY	11042	01/17/2018	Call	25 Pine St	other 	New York	NY	10005	20.9	1 Additional rider(s). 1 Additional rider(s). Additional Rider		No	137237387
2504293	1758	569284840	Service	Maylene	A	Hawkinslingo	PT03668K	F	(631) 336-4112	09/14/2009	Queens Hospital	000	1801803903	Clean Air Car Svc & Parking (NYC)	Tolls-Universal	A0170	CG	01/17/2018	01/17/2018	No	2	1																					Tolls-Universal	137237386
2504293	1759	569284840	Service	Maylene	A	Hawkinslingo	PT03668K	F	(631) 336-4112	09/14/2009	Queens Hospital	000	1801803903	Clean Air Car Svc & Parking (NYC)	Livery-Manhattan Surcharge	A0100	SC	01/17/2018	01/17/2018	No	2	1																					Livery-Manhattan Surcharge	137237386
2504293	1760	569284840	Service	Maylene	A	Hawkinslingo	PT03668K	F	(631) 336-4112	09/14/2009	Queens Hospital	000	1801803903	Clean Air Car Svc & Parking (NYC)	Livery-Manhattan Surcharge	A0100	SC	01/17/2018	01/17/2018	No	2	1																					Livery-Manhattan Surcharge	137237387
2504293	1761	569284840	Service	Maylene	A	Hawkinslingo	PT03668K	F	(631) 336-4112	09/14/2009	Queens Hospital	000	1801803903	Clean Air Car Svc & Parking (NYC)	Mileage-Livery out of NYC	S0215	TN	01/17/2018	01/17/2018	No	2	1																					Mileage-Livery out of NYC	137237386
2504293	1762	569284840	Service	Maylene	A	Hawkinslingo	PT03668K	F	(631) 336-4112	09/14/2009	Queens Hospital	000	1801803903	Clean Air Car Svc & Parking (NYC)	Mileage-Livery out of NYC	S0215	TN	01/17/2018	01/17/2018	No	2	1																					Mileage-Livery out of NYC	137237387
2504293	1763	569288330	Leg	Li		Shu	RH99515C	M	(917) 584-0803	07/15/1935	Wu, Qiong		1992763916	Clean Air Car Svc & Parking (NYC)	Livery/QN-Med Appt in CMMA	A0100		01/18/2018	01/18/2018	No	2	1		Suzanne-daughter	917-597-9508	5.8	01/18/2018	0800	11455 Dalian Ct	# 1FL 	College Point	NY	11356	01/18/2018	0900	13527 38th Ave	  -	Flushing	NY	11354	2.9	Additional Rider		No	137238189
2504293	1764	569288330	Leg	Li		Shu	RH99515C	M	(917) 584-0803	07/15/1935	Wu, Qiong		1992763916	Clean Air Car Svc & Parking (NYC)	Livery/QN-Med Appt in CMMA	A0100		01/18/2018	01/18/2018	No	2	1		Suzanne-daughter	917-597-9508	5.8	01/18/2018	Call	13527 38th Ave	 -	Flushing	NY	11354	01/18/2018	Call	11455 Dalian Ct	# 1FL 	College Point	NY	11356	2.9			No	137238190
2504293	1765	569293970	Leg	Li		Shu	RH99515C	M	(917) 584-0803	07/15/1935	Wu, Qiong		1992763916	Clean Air Car Svc & Parking (NYC)	Livery/QN-Med Appt out CMMA	A0100	TN	01/22/2018	01/22/2018	No	2	1		Suzanne-daughter	917-597-9508	18.2	01/22/2018	1130	11455 Dalian Ct	# 1FL 	College Point	NY	11356	01/22/2018	1300	9301 Jamaica Ave	  -	Woodhaven	NY	11421	9.1	Additional Rider		No	137238925
2504293	1766	569293970	Leg	Li		Shu	RH99515C	M	(917) 584-0803	07/15/1935	Wu, Qiong		1992763916	Clean Air Car Svc & Parking (NYC)	Livery/QN-Med Appt out CMMA	A0100	TN	01/22/2018	01/22/2018	No	2	1		Suzanne-daughter	917-597-9508	18.2	01/22/2018	Call	9301 Jamaica Ave	 -	Woodhaven	NY	11421	01/22/2018	Call	11455 Dalian Ct	# 1FL 	College Point	NY	11356	9.1			No	137238926
2504293	1767	569293970	Service	Li		Shu	RH99515C	M	(917) 584-0803	07/15/1935	Wu, Qiong		1992763916	Clean Air Car Svc & Parking (NYC)	Mileage-Livery in NYC	S0215		01/22/2018	01/22/2018	No	2	1																					Mileage-Livery in NYC	137238925
2504293	1768	569293970	Service	Li		Shu	RH99515C	M	(917) 584-0803	07/15/1935	Wu, Qiong		1992763916	Clean Air Car Svc & Parking (NYC)	Mileage-Livery in NYC	S0215		01/22/2018	01/22/2018	No	2	1																					Mileage-Livery in NYC	137238926
2504293	1769	569342450	Leg	Staraisha	M	Dyce	WW14828A	F	(718) 374-1820	07/01/1991	Della Valle Gonzalez Alejandro		1659389153	Clean Air Car Svc & Parking (NYC)	Livery/QN-Med Appt out CMMA	A0100	TN	01/25/2018	01/25/2018	No	2	1		self	(718) 374-1820	22.6	01/25/2018	0745	6520 Parsons Blvd	Apt 7C 	Flushing	NY	11365	01/25/2018	0900	505 E 70th St	  main	New York	NY	10021	11.3	Additional Rider		No	137251293
2504293	1770	569342450	Leg	Staraisha	M	Dyce	WW14828A	F	(718) 374-1820	07/01/1991	Della Valle Gonzalez Alejandro		1659389153	Clean Air Car Svc & Parking (NYC)	Livery/QN-Med Appt out CMMA	A0100	TN	01/25/2018	01/25/2018	No	2	1		self	(718) 374-1820	22.6	01/25/2018	Call	505 E 70th St	 main	New York	NY	10021	01/25/2018	Call	6520 Parsons Blvd	Apt 7C 	Flushing	NY	11365	11.3			No	137251294
2504293	1771	569342450	Service	Staraisha	M	Dyce	WW14828A	F	(718) 374-1820	07/01/1991	Della Valle Gonzalez Alejandro		1659389153	Clean Air Car Svc & Parking (NYC)	Mileage-Livery in NYC	S0215		01/25/2018	01/25/2018	No	2	1																					Mileage-Livery in NYC	137251293
2504293	1772	569342450	Service	Staraisha	M	Dyce	WW14828A	F	(718) 374-1820	07/01/1991	Della Valle Gonzalez Alejandro		1659389153	Clean Air Car Svc & Parking (NYC)	Mileage-Livery in NYC	S0215		01/25/2018	01/25/2018	No	2	1																					Mileage-Livery in NYC	137251294
2504293	1773	569342450	Service	Staraisha	M	Dyce	WW14828A	F	(718) 374-1820	07/01/1991	Della Valle Gonzalez Alejandro		1659389153	Clean Air Car Svc & Parking (NYC)	Tolls-Universal	A0170	CG	01/25/2018	01/25/2018	No	2	1																					Tolls-Universal	137251293
2504293	1774	569342450	Service	Staraisha	M	Dyce	WW14828A	F	(718) 374-1820	07/01/1991	Della Valle Gonzalez Alejandro		1659389153	Clean Air Car Svc & Parking (NYC)	Livery-Manhattan Surcharge	A0100	SC	01/25/2018	01/25/2018	No	2	1																					Livery-Manhattan Surcharge	137251293
2504293	1775	569342450	Service	Staraisha	M	Dyce	WW14828A	F	(718) 374-1820	07/01/1991	Della Valle Gonzalez Alejandro		1659389153	Clean Air Car Svc & Parking (NYC)	Livery-Manhattan Surcharge	A0100	SC	01/25/2018	01/25/2018	No	2	1																					Livery-Manhattan Surcharge	137251294
2504293	1776	569397280	Leg	Leslie		Burton	ZB53121Q	M	(718) 717-5343	09/06/1959	PAPPAS PHYSICAL MEDICINE		1538132154	Clean Air Car Svc & Parking (NYC)	Livery/QN-Med Appt in CMMA	A0100		01/19/2018	01/19/2018	No	2	1		self	(718) 717-5343	6.6	01/19/2018	1330	3553 12th St	Apt 2H 	Astoria	NY	11106	01/19/2018	1430	1305 York Ave	  main ent	New York	NY	10021	3.3			No	137264287
2504293	1777	569397280	Leg	Leslie		Burton	ZB53121Q	M	(718) 717-5343	09/06/1959	PAPPAS PHYSICAL MEDICINE		1538132154	Clean Air Car Svc & Parking (NYC)	Livery/QN-Med Appt in CMMA	A0100		01/19/2018	01/19/2018	No	2	1		self	(718) 717-5343	6.6	01/19/2018	Call	1305 York Ave	 main ent	New York	NY	10021	01/19/2018	Call	3553 12th St	Apt 2H 	Astoria	NY	11106	3.3			No	137264289
2504293	1778	569397280	Service	Leslie		Burton	ZB53121Q	M	(718) 717-5343	09/06/1959	PAPPAS PHYSICAL MEDICINE		1538132154	Clean Air Car Svc & Parking (NYC)	Tolls-Universal	A0170	CG	01/19/2018	01/19/2018	No	2	1																					Tolls-Universal	137264287
2504293	1779	569397280	Service	Leslie		Burton	ZB53121Q	M	(718) 717-5343	09/06/1959	PAPPAS PHYSICAL MEDICINE		1538132154	Clean Air Car Svc & Parking (NYC)	Livery-Manhattan Surcharge	A0100	SC	01/19/2018	01/19/2018	No	2	1																					Livery-Manhattan Surcharge	137264287
2504293	1780	569397280	Service	Leslie		Burton	ZB53121Q	M	(718) 717-5343	09/06/1959	PAPPAS PHYSICAL MEDICINE		1538132154	Clean Air Car Svc & Parking (NYC)	Livery-Manhattan Surcharge	A0100	SC	01/19/2018	01/19/2018	No	2	1																					Livery-Manhattan Surcharge	137264289
2504293	1781	569437690	Leg	Baochen		Zhu	PG19459M	M	(347) 372-2593	06/17/1934	Bronx Lebanon Hospital	000	1538230073	Clean Air Car Svc & Parking (NYC)	Livery/BX-Med Appt out CMMA	A0100	TN	01/27/2018	01/27/2018	No	3	1		Self	(347) 372-2593	32.4	01/27/2018	1000	828 Gerard Ave	Apt 3A 	Bronx	NY	10451	01/27/2018	1100	70 Bowery	  .	New York	NY	10013	9.7	Additional Rider		No	137274094
2504293	1782	569437690	Leg	Baochen		Zhu	PG19459M	M	(347) 372-2593	06/17/1934	Bronx Lebanon Hospital	000	1538230073	Clean Air Car Svc & Parking (NYC)	Livery/BX-Med Appt out CMMA	A0100	TN	01/27/2018	01/27/2018	No	3	1		Self	(347) 372-2593	32.4	01/27/2018	Call	70 Bowery	 .	New York	NY	10013	01/27/2018	Call	13620 38th Ave	  	Flushing	NY	11354	12.2			No	137274095
2504293	1783	569437690	Leg	Baochen		Zhu	PG19459M	M	(347) 372-2593	06/17/1934	Bronx Lebanon Hospital	000	1538230073	Clean Air Car Svc & Parking (NYC)	Livery/BX-Med Appt out CMMA	A0100	TN	01/27/2018	01/27/2018	No	3	1		Self	(347) 372-2593	32.4	01/27/2018	Call	13620 38th Ave	 .	Flushing	NY	11354	01/27/2018	Call	828 Gerard Ave	Apt 3A 	Bronx	NY	10451	10.5			No	137274116
2504293	1784	569437690	Service	Baochen		Zhu	PG19459M	M	(347) 372-2593	06/17/1934	Bronx Lebanon Hospital	000	1538230073	Clean Air Car Svc & Parking (NYC)	Tolls-Universal	A0170	CG	01/27/2018	01/27/2018	No	3	1																					Tolls-Universal	137274094
2504293	1785	569437690	Service	Baochen		Zhu	PG19459M	M	(347) 372-2593	06/17/1934	Bronx Lebanon Hospital	000	1538230073	Clean Air Car Svc & Parking (NYC)	Livery-Manhattan Surcharge	A0100	SC	01/27/2018	01/27/2018	No	3	1																					Livery-Manhattan Surcharge	137274094
2504293	1786	569437690	Service	Baochen		Zhu	PG19459M	M	(347) 372-2593	06/17/1934	Bronx Lebanon Hospital	000	1538230073	Clean Air Car Svc & Parking (NYC)	Livery-Manhattan Surcharge	A0100	SC	01/27/2018	01/27/2018	No	3	1																					Livery-Manhattan Surcharge	137274095
2504293	1787	569437690	Service	Baochen		Zhu	PG19459M	M	(347) 372-2593	06/17/1934	Bronx Lebanon Hospital	000	1538230073	Clean Air Car Svc & Parking (NYC)	Mileage-Livery in NYC	S0215		01/27/2018	01/27/2018	No	3	1																					Mileage-Livery in NYC	137274094
2504293	1788	569437690	Service	Baochen		Zhu	PG19459M	M	(347) 372-2593	06/17/1934	Bronx Lebanon Hospital	000	1538230073	Clean Air Car Svc & Parking (NYC)	Mileage-Livery in NYC	S0215		01/27/2018	01/27/2018	No	3	1																					Mileage-Livery in NYC	137274095
2504293	1789	569437690	Service	Baochen		Zhu	PG19459M	M	(347) 372-2593	06/17/1934	Bronx Lebanon Hospital	000	1538230073	Clean Air Car Svc & Parking (NYC)	Mileage-Livery in NYC	S0215		01/27/2018	01/27/2018	No	3	1																					Mileage-Livery in NYC	137274116
2504293	1790	569507710	Leg	Elaine		Winter	SN12085Y	F	(917) 406-3841	10/25/1959	Queens Hospital	000	1801803903	Clean Air Car Svc & Parking (NYC)	Livery/QN-Med Appt out CMMA	A0100	TN	01/22/2018	01/22/2018	Yes	2	1		self	(917) 406-3841	10.6	01/22/2018	1100	18 21 25th Road	 front	Astoria	NY	11102	01/22/2018	1200	1184 5th Ave	  main	New York	NY	10029	5.3	s/omon tue wed thu fri		No	137288821
2504293	1791	569507710	Leg	Elaine		Winter	SN12085Y	F	(917) 406-3841	10/25/1959	Queens Hospital	000	1801803903	Clean Air Car Svc & Parking (NYC)	Livery/QN-Med Appt out CMMA	A0100	TN	01/22/2018	01/22/2018	Yes	2	1		self	(917) 406-3841	10.6	01/22/2018	Call	1184 5th Ave	 main	New York	NY	10029	01/22/2018		18 21 25th Road	  front	Astoria	NY	11102	5.3			No	137288822
2504293	1792	569507710	Service	Elaine		Winter	SN12085Y	F	(917) 406-3841	10/25/1959	Queens Hospital	000	1801803903	Clean Air Car Svc & Parking (NYC)	Tolls-Universal	A0170	CG	01/22/2018	01/22/2018	Yes	2	1																					Tolls-Universal	137288821
2504293	1793	569507710	Service	Elaine		Winter	SN12085Y	F	(917) 406-3841	10/25/1959	Queens Hospital	000	1801803903	Clean Air Car Svc & Parking (NYC)	Livery-Manhattan Surcharge	A0100	SC	01/22/2018	01/22/2018	Yes	2	1																					Livery-Manhattan Surcharge	137288821
2504293	1794	569507710	Service	Elaine		Winter	SN12085Y	F	(917) 406-3841	10/25/1959	Queens Hospital	000	1801803903	Clean Air Car Svc & Parking (NYC)	Livery-Manhattan Surcharge	A0100	SC	01/22/2018	01/22/2018	Yes	2	1																					Livery-Manhattan Surcharge	137288822
2504293	1795	569509490	Leg	Elaine		Winter	SN12085Y	F	(917) 406-3841	10/25/1959	Queens Hospital	000	1801803903	Clean Air Car Svc & Parking (NYC)	Livery/QN-Med Appt out CMMA	A0100	TN	01/23/2018	01/23/2018	Yes	2	1		self	(917) 406-3841	10.6	01/23/2018	1100	18 21 25th Road	 front	Astoria	NY	11102	01/23/2018	1200	1184 5th Ave	  main	New York	NY	10029	5.3	s/omon tue wed thu fri		No	137288823
2504293	1796	569509490	Leg	Elaine		Winter	SN12085Y	F	(917) 406-3841	10/25/1959	Queens Hospital	000	1801803903	Clean Air Car Svc & Parking (NYC)	Livery/QN-Med Appt out CMMA	A0100	TN	01/23/2018	01/23/2018	Yes	2	1		self	(917) 406-3841	10.6	01/23/2018	Call	1184 5th Ave	 main	New York	NY	10029	01/23/2018		18 21 25th Road	  front	Astoria	NY	11102	5.3			No	137288824
2504293	1797	569509490	Service	Elaine		Winter	SN12085Y	F	(917) 406-3841	10/25/1959	Queens Hospital	000	1801803903	Clean Air Car Svc & Parking (NYC)	Tolls-Universal	A0170	CG	01/23/2018	01/23/2018	Yes	2	1																					Tolls-Universal	137288823
2504293	1798	569509490	Service	Elaine		Winter	SN12085Y	F	(917) 406-3841	10/25/1959	Queens Hospital	000	1801803903	Clean Air Car Svc & Parking (NYC)	Livery-Manhattan Surcharge	A0100	SC	01/23/2018	01/23/2018	Yes	2	1																					Livery-Manhattan Surcharge	137288823
2504293	1799	569509490	Service	Elaine		Winter	SN12085Y	F	(917) 406-3841	10/25/1959	Queens Hospital	000	1801803903	Clean Air Car Svc & Parking (NYC)	Livery-Manhattan Surcharge	A0100	SC	01/23/2018	01/23/2018	Yes	2	1																					Livery-Manhattan Surcharge	137288824
2504293	1800	569509520	Leg	Elaine		Winter	SN12085Y	F	(917) 406-3841	10/25/1959	Queens Hospital	000	1801803903	Clean Air Car Svc & Parking (NYC)	Livery/QN-Med Appt out CMMA	A0100	TN	01/25/2018	01/25/2018	Yes	2	1		self	(917) 406-3841	10.6	01/25/2018	1100	18 21 25th Road	 front	Astoria	NY	11102	01/25/2018	1200	1184 5th Ave	  main	New York	NY	10029	5.3	s/omon tue wed thu fri		No	137288827
2504293	1801	569509520	Leg	Elaine		Winter	SN12085Y	F	(917) 406-3841	10/25/1959	Queens Hospital	000	1801803903	Clean Air Car Svc & Parking (NYC)	Livery/QN-Med Appt out CMMA	A0100	TN	01/25/2018	01/25/2018	Yes	2	1		self	(917) 406-3841	10.6	01/25/2018	Call	1184 5th Ave	 main	New York	NY	10029	01/25/2018		18 21 25th Road	  front	Astoria	NY	11102	5.3			No	137288828
2504293	1802	569509520	Service	Elaine		Winter	SN12085Y	F	(917) 406-3841	10/25/1959	Queens Hospital	000	1801803903	Clean Air Car Svc & Parking (NYC)	Tolls-Universal	A0170	CG	01/25/2018	01/25/2018	Yes	2	1																					Tolls-Universal	137288827
2504293	1803	569509520	Service	Elaine		Winter	SN12085Y	F	(917) 406-3841	10/25/1959	Queens Hospital	000	1801803903	Clean Air Car Svc & Parking (NYC)	Livery-Manhattan Surcharge	A0100	SC	01/25/2018	01/25/2018	Yes	2	1																					Livery-Manhattan Surcharge	137288827
2504293	1804	569509520	Service	Elaine		Winter	SN12085Y	F	(917) 406-3841	10/25/1959	Queens Hospital	000	1801803903	Clean Air Car Svc & Parking (NYC)	Livery-Manhattan Surcharge	A0100	SC	01/25/2018	01/25/2018	Yes	2	1																					Livery-Manhattan Surcharge	137288828
2504293	1805	569509530	Leg	Elaine		Winter	SN12085Y	F	(917) 406-3841	10/25/1959	Queens Hospital	000	1801803903	Clean Air Car Svc & Parking (NYC)	Livery/QN-Med Appt out CMMA	A0100	TN	01/26/2018	01/26/2018	Yes	2	1		self	(917) 406-3841	10.6	01/26/2018	1100	18 21 25th Road	 front	Astoria	NY	11102	01/26/2018	1200	1184 5th Ave	  main	New York	NY	10029	5.3	s/omon tue wed thu fri		No	137288829
2504293	1806	569509530	Leg	Elaine		Winter	SN12085Y	F	(917) 406-3841	10/25/1959	Queens Hospital	000	1801803903	Clean Air Car Svc & Parking (NYC)	Livery/QN-Med Appt out CMMA	A0100	TN	01/26/2018	01/26/2018	Yes	2	1		self	(917) 406-3841	10.6	01/26/2018	Call	1184 5th Ave	 main	New York	NY	10029	01/26/2018		18 21 25th Road	  front	Astoria	NY	11102	5.3			No	137288830
2504293	1807	569509530	Service	Elaine		Winter	SN12085Y	F	(917) 406-3841	10/25/1959	Queens Hospital	000	1801803903	Clean Air Car Svc & Parking (NYC)	Tolls-Universal	A0170	CG	01/26/2018	01/26/2018	Yes	2	1																					Tolls-Universal	137288829
2504293	1808	569509530	Service	Elaine		Winter	SN12085Y	F	(917) 406-3841	10/25/1959	Queens Hospital	000	1801803903	Clean Air Car Svc & Parking (NYC)	Livery-Manhattan Surcharge	A0100	SC	01/26/2018	01/26/2018	Yes	2	1																					Livery-Manhattan Surcharge	137288829
2504293	1809	569509530	Service	Elaine		Winter	SN12085Y	F	(917) 406-3841	10/25/1959	Queens Hospital	000	1801803903	Clean Air Car Svc & Parking (NYC)	Livery-Manhattan Surcharge	A0100	SC	01/26/2018	01/26/2018	Yes	2	1																					Livery-Manhattan Surcharge	137288830
2504293	1810	569571280	Leg	Charles	V	Garcia	PG57832W	M	6467336226	01/06/2010	Brooklyn Hospital Center	000	1326046467	Clean Air Car Svc & Parking (NYC)	Livery/BK-Med Appt out CMMA	A0100	TN	01/17/2018	01/17/2018	No	1	1		mom - Yolonda	6467336226		01/17/2018	0930	748 Henry St	 	Brooklyn	NY	11231	01/17/2018	1030	301 E 17th St	  	New York	NY	10003	5.8			No	137303202
2504293	1811	569571280	Service	Charles	V	Garcia	PG57832W	M	6467336226	01/06/2010	Brooklyn Hospital Center	000	1326046467	Clean Air Car Svc & Parking (NYC)	Tolls-Universal	A0170	CG	01/17/2018	01/17/2018	No	1	1																					Tolls-Universal	137303202
2504293	1812	569571280	Service	Charles	V	Garcia	PG57832W	M	6467336226	01/06/2010	Brooklyn Hospital Center	000	1326046467	Clean Air Car Svc & Parking (NYC)	Livery-Manhattan Surcharge	A0100	SC	01/17/2018	01/17/2018	No	1	1																					Livery-Manhattan Surcharge	137303202
2504293	1813	569620440	Leg	Gloria		Yung	UA10312F	F	(212) 349-5035	12/20/1998	NY Presbyterian Hospital	0000000	1952332801	Clean Air Car Svc & Parking (NYC)	Livery/MN-Med Appt in CMMA	A0100		01/17/2018	01/17/2018	No	2	1		Mother	646-725-6100	2.0	01/17/2018	1030	275 South St	Apt 13J 	New York	NY	10002	01/17/2018	1130	81 Elizabeth St	  	New York	NY	10013	1.0	Additional Rider		No	137314768
2504293	1814	569620440	Leg	Gloria		Yung	UA10312F	F	(212) 349-5035	12/20/1998	NY Presbyterian Hospital	0000000	1952332801	Clean Air Car Svc & Parking (NYC)	Livery/MN-Med Appt in CMMA	A0100		01/17/2018	01/17/2018	No	2	1		Mother	646-725-6100	2.0	01/17/2018	Call	81 Elizabeth St	 	New York	NY	10013	01/17/2018	Call	275 South St	Apt 13J 	New York	NY	10002	1.0			No	137314769
2504293	1815	569654750	Leg	Ernestine		Dunn	ZT91936G	F	(929) 234-5853	11/08/1959	Sen Debabrata		1629012539	Clean Air Car Svc & Parking (NYC)	Livery/BK-Med Appt out CMMA	A0100	TN	01/20/2018	01/20/2018	No	2	1		self	(929) 234-5853	12.8	01/20/2018	0900	765 Lincoln Ave	 Residence	Brooklyn	NY	11208	01/20/2018	1000	8915 175th St	  Main Entrance	Jamaica	NY	11432	6.4	1 Additional rider(s). +1. Please call (929) 234-5853 upon arrival		No	137322799
2504293	1816	569654750	Leg	Ernestine		Dunn	ZT91936G	F	(929) 234-5853	11/08/1959	Sen Debabrata		1629012539	Clean Air Car Svc & Parking (NYC)	Livery/BK-Med Appt out CMMA	A0100	TN	01/20/2018	01/20/2018	No	2	1		self	(929) 234-5853	12.8	01/20/2018	Call	8915 175th St	 Main Entrance	Jamaica	NY	11432	01/20/2018	Call	765 Lincoln Ave	  Residence	Brooklyn	NY	11208	6.4	1 Additional rider(s). +1. Please call (929) 234-5853 upon arrival		No	137322800
2504293	1817	569654750	Service	Ernestine		Dunn	ZT91936G	F	(929) 234-5853	11/08/1959	Sen Debabrata		1629012539	Clean Air Car Svc & Parking (NYC)	Tolls-Universal	A0170	CG	01/20/2018	01/20/2018	No	2	1																					Tolls-Universal	137322799
2504293	1818	569730350	Leg	Linda	L	Hagins	ZV28817E	F	9292876303	07/31/1954	Bronx Lebanon Hospital	000	1538230073	Clean Air Car Svc & Parking (NYC)	Livery/BX-Med Appt out CMMA	A0100	TN	01/19/2018	01/19/2018	No	2	1		-	9292876303	10.6	01/19/2018	1200	1805 Clinton Ave	 	Bronx	NY	10457	01/19/2018	1300	154 W 121st St	  	New York	NY	10027	5.3			No	137340763
2504293	1819	569730350	Leg	Linda	L	Hagins	ZV28817E	F	9292876303	07/31/1954	Bronx Lebanon Hospital	000	1538230073	Clean Air Car Svc & Parking (NYC)	Livery/BX-Med Appt out CMMA	A0100	TN	01/19/2018	01/19/2018	No	2	1		-	9292876303	10.6	01/19/2018	CALL	154 W 121st St	 	New York	NY	10027	01/19/2018	CALL	1805 Clinton Ave	  	Bronx	NY	10457	5.3			No	137340764
2504293	1820	569730350	Service	Linda	L	Hagins	ZV28817E	F	9292876303	07/31/1954	Bronx Lebanon Hospital	000	1538230073	Clean Air Car Svc & Parking (NYC)	Tolls-Universal	A0170	CG	01/19/2018	01/19/2018	No	2	1																					Tolls-Universal	137340763
2504293	1821	569757170	Leg	Leslie		Burton	ZB53121Q	M	7187175343	09/06/1959	PAPPAS PHYSICAL MEDICINE		1538132154	Clean Air Car Svc & Parking (NYC)	Livery/QN-Med Appt in CMMA	A0100		01/22/2018	01/22/2018	No	2	1		self	7187175343	2.6	01/22/2018	1215	3553 12th St	 	Astoria	NY	11106	01/22/2018	1245	3135 31st St	  	Astoria	NY	11106	1.3			No	137346865
2504293	1822	569757170	Leg	Leslie		Burton	ZB53121Q	M	7187175343	09/06/1959	PAPPAS PHYSICAL MEDICINE		1538132154	Clean Air Car Svc & Parking (NYC)	Livery/QN-Med Appt in CMMA	A0100		01/22/2018	01/22/2018	No	2	1		self	7187175343	2.6	01/22/2018	CALL	3135 31st St	 	Astoria	NY	11106	01/22/2018	CALL	3553 12th St	  	Astoria	NY	11106	1.3			No	137346866
2504293	1823	569758100	Leg	Leslie		Burton	ZB53121Q	M	7187175343	09/06/1959	PAPPAS PHYSICAL MEDICINE		1538132154	Clean Air Car Svc & Parking (NYC)	Livery/QN-Med Appt in CMMA	A0100		01/23/2018	01/23/2018	No	2	1		self	7187175343	6.6	01/23/2018	1100	3553 12th St	 	Astoria	NY	11106	01/23/2018	1130	1305 York Ave	  	New York	NY	10021	3.3			No	137347326
2504293	1824	569758100	Leg	Leslie		Burton	ZB53121Q	M	7187175343	09/06/1959	PAPPAS PHYSICAL MEDICINE		1538132154	Clean Air Car Svc & Parking (NYC)	Livery/QN-Med Appt in CMMA	A0100		01/23/2018	01/23/2018	No	2	1		self	7187175343	6.6	01/23/2018	CALL	1305 York Ave	 	New York	NY	10021	01/23/2018	CALL	3553 12th St	  	Astoria	NY	11106	3.3			No	137347327
2504293	1825	569758100	Service	Leslie		Burton	ZB53121Q	M	7187175343	09/06/1959	PAPPAS PHYSICAL MEDICINE		1538132154	Clean Air Car Svc & Parking (NYC)	Tolls-Universal	A0170	CG	01/23/2018	01/23/2018	No	2	1																					Tolls-Universal	137347326
2504293	1826	569758100	Service	Leslie		Burton	ZB53121Q	M	7187175343	09/06/1959	PAPPAS PHYSICAL MEDICINE		1538132154	Clean Air Car Svc & Parking (NYC)	Livery-Manhattan Surcharge	A0100	SC	01/23/2018	01/23/2018	No	2	1																					Livery-Manhattan Surcharge	137347326
2504293	1827	569758100	Service	Leslie		Burton	ZB53121Q	M	7187175343	09/06/1959	PAPPAS PHYSICAL MEDICINE		1538132154	Clean Air Car Svc & Parking (NYC)	Livery-Manhattan Surcharge	A0100	SC	01/23/2018	01/23/2018	No	2	1																					Livery-Manhattan Surcharge	137347327
2504293	1828	569791730	Leg	Theresa	A	Donadio	VZ52712C	F	7183970442	05/03/1978	HUTCHINSON LEIGH ANN	000000000	1568497204	Clean Air Car Svc & Parking (NYC)	Livery/QN-Med Appt out CMMA	A0100	TN	01/26/2018	01/26/2018	No	2	1		kathy , mother	7183970442	12.4	01/26/2018	0915	5821 75th St	 	Middle Village	NY	11379	01/26/2018	1100	1305 York Ave	  	New York	NY	10021	6.2	WANTS a sudan car &ware of  the pick up policy..zg		No	137354636
2504293	1829	569791730	Leg	Theresa	A	Donadio	VZ52712C	F	7183970442	05/03/1978	HUTCHINSON LEIGH ANN	000000000	1568497204	Clean Air Car Svc & Parking (NYC)	Livery/QN-Med Appt out CMMA	A0100	TN	01/26/2018	01/26/2018	No	2	1		kathy , mother	7183970442	12.4	01/26/2018	CALL	1305 York Ave	 	New York	NY	10021	01/26/2018	CALL	5821 75th St	  	Middle Village	NY	11379	6.2			No	137354637
2504293	1830	569791730	Service	Theresa	A	Donadio	VZ52712C	F	7183970442	05/03/1978	HUTCHINSON LEIGH ANN	000000000	1568497204	Clean Air Car Svc & Parking (NYC)	Tolls-Universal	A0170	CG	01/26/2018	01/26/2018	No	2	1																					Tolls-Universal	137354636
2504293	1831	569791730	Service	Theresa	A	Donadio	VZ52712C	F	7183970442	05/03/1978	HUTCHINSON LEIGH ANN	000000000	1568497204	Clean Air Car Svc & Parking (NYC)	Livery-Manhattan Surcharge	A0100	SC	01/26/2018	01/26/2018	No	2	1																					Livery-Manhattan Surcharge	137354636
2504293	1832	569791730	Service	Theresa	A	Donadio	VZ52712C	F	7183970442	05/03/1978	HUTCHINSON LEIGH ANN	000000000	1568497204	Clean Air Car Svc & Parking (NYC)	Livery-Manhattan Surcharge	A0100	SC	01/26/2018	01/26/2018	No	2	1																					Livery-Manhattan Surcharge	137354637
2504293	1833	569804160	Leg	Theresa	A	Donadio	VZ52712C	F	7183970442	05/03/1978	HUTCHINSON LEIGH ANN	000000000	1568497204	Clean Air Car Svc & Parking (NYC)	Livery/QN-Med Appt out CMMA	A0100	TN	01/22/2018	01/22/2018	No	2	1		kathy , mother	7183970442	11.8	01/22/2018	0815	5821 75th St	 	Middle Village	NY	11379	01/22/2018	1000	425 E 61st St	  	New York	NY	10065	5.9	Enrollee needs a car and not a van.........bh, 1 additional rider		No	137357117
2504293	1834	569804160	Leg	Theresa	A	Donadio	VZ52712C	F	7183970442	05/03/1978	HUTCHINSON LEIGH ANN	000000000	1568497204	Clean Air Car Svc & Parking (NYC)	Livery/QN-Med Appt out CMMA	A0100	TN	01/22/2018	01/22/2018	No	2	1		kathy , mother	7183970442	11.8	01/22/2018	CALL	425 E 61st St	 	New York	NY	10065	01/22/2018	CALL	5821 75th St	  	Middle Village	NY	11379	5.9			No	137357119
2504293	1835	569804160	Service	Theresa	A	Donadio	VZ52712C	F	7183970442	05/03/1978	HUTCHINSON LEIGH ANN	000000000	1568497204	Clean Air Car Svc & Parking (NYC)	Tolls-Universal	A0170	CG	01/22/2018	01/22/2018	No	2	1																					Tolls-Universal	137357117
2504293	1836	569804160	Service	Theresa	A	Donadio	VZ52712C	F	7183970442	05/03/1978	HUTCHINSON LEIGH ANN	000000000	1568497204	Clean Air Car Svc & Parking (NYC)	Livery-Manhattan Surcharge	A0100	SC	01/22/2018	01/22/2018	No	2	1																					Livery-Manhattan Surcharge	137357117
2504293	1837	569804160	Service	Theresa	A	Donadio	VZ52712C	F	7183970442	05/03/1978	HUTCHINSON LEIGH ANN	000000000	1568497204	Clean Air Car Svc & Parking (NYC)	Livery-Manhattan Surcharge	A0100	SC	01/22/2018	01/22/2018	No	2	1																					Livery-Manhattan Surcharge	137357119
2504293	1838	569805580	Leg	Gloria		Yung	UA10312F	F	(212) 349-5035	12/20/1998	NY Presbyterian Hospital	0000000	1952332801	Clean Air Car Svc & Parking (NYC)	Livery/MN-Med Appt in CMMA	A0100		01/22/2018	01/22/2018	No	1	1		Mother	646-725-6100	2.2	01/22/2018	0800	275 South St	Apt 13J 	New York	NY	10002	01/22/2018	0900	310 E 14th St	  	New York	NY	10003	2.2	Additional Rider		No	137357451
2504293	1839	569815580	Leg	Kelvin		Alford	WP02813X	M	7188126241	07/04/1957	Brooklyn Hospital Center	000	1326046467	Clean Air Car Svc & Parking (NYC)	Livery/BK-Med Appt in CMMA	A0100		01/18/2018	01/18/2018	No	2	1		Will-care coordinator	6468313030	4.4	01/18/2018	0745	465 Columbia St	 	Brooklyn	NY	11231	01/18/2018	0830	360 Adams St	  	Brooklyn	NY	11201	2.2			No	137360204
2504293	1840	569815580	Leg	Kelvin		Alford	WP02813X	M	7188126241	07/04/1957	Brooklyn Hospital Center	000	1326046467	Clean Air Car Svc & Parking (NYC)	Livery/BK-Med Appt in CMMA	A0100		01/18/2018	01/18/2018	No	2	1		Will-care coordinator	6468313030	4.4	01/18/2018	CALL	360 Adams St	 	Brooklyn	NY	11201	01/18/2018	CALL	465 Columbia St	  	Brooklyn	NY	11231	2.2			No	137360205
2504293	1841	569821270	Leg	Earl		Goodwine	SE94474U	M	9294338216	10/25/1974	Badillo Diana		1710120449	Clean Air Car Svc & Parking (NYC)	Livery/QN-Med Appt out CMMA	A0100	TN	01/22/2018	01/22/2018	No	2	1		self	9294338216		01/22/2018	0900	22016 Jamaica Ave	home 	Queens Village	NY	11428	01/22/2018	1000	14530 243rd St	  	Rosedale	NY	11422	5.5			No	137361814
2504293	1842	569821270	Leg	Earl		Goodwine	SE94474U	M	9294338216	10/25/1974	Badillo Diana		1710120449	Clean Air Car Svc & Parking (NYC)	Livery/QN-Med Appt out CMMA	A0100	TN	01/22/2018	01/22/2018	No	2	1		self	9294338216		01/22/2018	CALL	14530 243rd St	 	Rosedale	NY	11422	01/22/2018	CALL	22016 Jamaica Ave	home 	Queens Village	NY	11428	5.5			No	137361815
2504293	1843	569824500	Leg	Earl		Goodwine	SE94474U	M	9294338216	10/25/1974	Badillo Diana		1710120449	Clean Air Car Svc & Parking (NYC)	Livery/QN-Med Appt out CMMA	A0100	TN	01/24/2018	01/24/2018	No	2	1		self	9294338216	21.6	01/24/2018	1200	22016 Jamaica Ave	home 	Jamaica	NY	11428	01/24/2018	1300	6318 Austin St	  	Rego Park	NY	11374	10.8			No	137362347
2504293	1844	569824500	Leg	Earl		Goodwine	SE94474U	M	9294338216	10/25/1974	Badillo Diana		1710120449	Clean Air Car Svc & Parking (NYC)	Livery/QN-Med Appt out CMMA	A0100	TN	01/24/2018	01/24/2018	No	2	1		self	9294338216	21.6	01/24/2018	CALL	6318 Austin St	 	Rego Park	NY	11374	01/24/2018	CALL	22016 Jamaica Ave	home 	Jamaica	NY	11428	10.8			No	137362348
2504293	1845	569824500	Service	Earl		Goodwine	SE94474U	M	9294338216	10/25/1974	Badillo Diana		1710120449	Clean Air Car Svc & Parking (NYC)	Mileage-Livery in NYC	S0215		01/24/2018	01/24/2018	No	2	1																					Mileage-Livery in NYC	137362347
2504293	1846	569824500	Service	Earl		Goodwine	SE94474U	M	9294338216	10/25/1974	Badillo Diana		1710120449	Clean Air Car Svc & Parking (NYC)	Mileage-Livery in NYC	S0215		01/24/2018	01/24/2018	No	2	1																					Mileage-Livery in NYC	137362348
2504293	1847	569887670	Leg	Yedlina	A	Lawrence	PS29073Q	F	(347) 239-6588	09/25/1960	Restaino,Susan		1083791727	Clean Air Car Svc & Parking (NYC)	Livery/QN-Med Appt in CMMA	A0100		01/23/2018	01/23/2018	No	2	1		self	(347) 239-6588	6.6	01/23/2018	1215	11427 Inwood St	 	Jamaica	NY	11436	01/23/2018	1315	18005 Hillside Ave	  	Jamaica	NY	11432	3.3			No	137377505
2504293	1848	569887670	Leg	Yedlina	A	Lawrence	PS29073Q	F	(347) 239-6588	09/25/1960	Restaino,Susan		1083791727	Clean Air Car Svc & Parking (NYC)	Livery/QN-Med Appt in CMMA	A0100		01/23/2018	01/23/2018	No	2	1		self	(347) 239-6588	6.6	01/23/2018	Call	18005 Hillside Ave	 	Jamaica	NY	11432	01/23/2018	Call	11427 Inwood St	  	Jamaica	NY	11436	3.3			No	137377506
2504293	1849	569940230	Leg	Ingrid		Rastogi	QY13671Z	F	(646) 418-9657	02/26/1983	JHAVER, RITA		1073554721	Clean Air Car Svc & Parking (NYC)	Livery/QN-Med Appt in CMMA	A0100		01/25/2018	01/25/2018	No	2	1		self	(646) 418-9657	9.4	01/25/2018	0830	8534 148th St	 home	Jamaica	NY	11435	01/25/2018	0930	7925 Winchester Blvd	  main	Queens Village	NY	11427	4.7			No	137389965
2504293	1850	569940230	Leg	Ingrid		Rastogi	QY13671Z	F	(646) 418-9657	02/26/1983	JHAVER, RITA		1073554721	Clean Air Car Svc & Parking (NYC)	Livery/QN-Med Appt in CMMA	A0100		01/25/2018	01/25/2018	No	2	1		self	(646) 418-9657	9.4	01/25/2018	Call	7925 Winchester Blvd	 main	Queens Village	NY	11427	01/25/2018	Call	8534 148th St	  home	Jamaica	NY	11435	4.7			No	137389967
2504293	1851	569954990	Leg	Richardeli	S	Telemaque	MR28908W	F	(917) 731-5231	03/06/2008	NORTH SHORE LIJ GLEN COVE HOSPITAL		1295743060	Clean Air Car Svc & Parking (NYC)	Livery/QN-Med Appt out CMMA	A0100	TN	01/18/2018	01/18/2018	No	4	1		Merry t	(917) 731-5231	43.2	01/18/2018	0730	6127 186th St	 home	Fresh Meadows	NY	11365	01/18/2018	0830	600 Northern Blvd	  main	Great Neck	NY	11021	6.0	Additional Rider		No	137392754
2504293	1852	569954990	Leg	Richardeli	S	Telemaque	MR28908W	F	(917) 731-5231	03/06/2008	NORTH SHORE LIJ GLEN COVE HOSPITAL		1295743060	Clean Air Car Svc & Parking (NYC)	Livery/QN-Med Appt out CMMA	A0100	TN	01/18/2018	01/18/2018	No	4	1		Merry t	(917) 731-5231	43.2	01/18/2018	1030	600 Northern Blvd	 main	Great Neck	NY	11021	01/18/2018	1130	6127 186th St	  home	Fresh Meadows	NY	11365	6.0			No	137392755
2504293	1853	569954990	Leg	Richardeli	S	Telemaque	MR28908W	F	(917) 731-5231	03/06/2008	NORTH SHORE LIJ GLEN COVE HOSPITAL		1295743060	Clean Air Car Svc & Parking (NYC)	Livery/QN-Med Appt out CMMA	A0100	TN	01/18/2018	01/18/2018	No	4	1		Merry t	(917) 731-5231	43.2	01/18/2018	1330	6127 186th St	 home	Fresh Meadows	NY	11365	01/18/2018	1500	3959 Broadway	  main	New York	NY	10032	15.6	Additional Rider		No	137392756
2504293	1854	569954990	Leg	Richardeli	S	Telemaque	MR28908W	F	(917) 731-5231	03/06/2008	NORTH SHORE LIJ GLEN COVE HOSPITAL		1295743060	Clean Air Car Svc & Parking (NYC)	Livery/QN-Med Appt out CMMA	A0100	TN	01/18/2018	01/18/2018	No	4	1		Merry t	(917) 731-5231	43.2	01/18/2018	1700	3959 Broadway	 main	New York	NY	10032	01/18/2018	1800	6127 186th St	  home	Fresh Meadows	NY	11365	15.6			No	137392757
2504293	1855	569954990	Service	Richardeli	S	Telemaque	MR28908W	F	(917) 731-5231	03/06/2008	NORTH SHORE LIJ GLEN COVE HOSPITAL		1295743060	Clean Air Car Svc & Parking (NYC)	Mileage-Livery in NYC	S0215		01/18/2018	01/18/2018	No	4	1																					Mileage-Livery in NYC	137392756
2504293	1856	569954990	Service	Richardeli	S	Telemaque	MR28908W	F	(917) 731-5231	03/06/2008	NORTH SHORE LIJ GLEN COVE HOSPITAL		1295743060	Clean Air Car Svc & Parking (NYC)	Mileage-Livery in NYC	S0215		01/18/2018	01/18/2018	No	4	1																					Mileage-Livery in NYC	137392757
2504293	1857	569954990	Service	Richardeli	S	Telemaque	MR28908W	F	(917) 731-5231	03/06/2008	NORTH SHORE LIJ GLEN COVE HOSPITAL		1295743060	Clean Air Car Svc & Parking (NYC)	Tolls-Universal	A0170	CG	01/18/2018	01/18/2018	No	4	1																					Tolls-Universal	137392754
2504293	1858	569954990	Service	Richardeli	S	Telemaque	MR28908W	F	(917) 731-5231	03/06/2008	NORTH SHORE LIJ GLEN COVE HOSPITAL		1295743060	Clean Air Car Svc & Parking (NYC)	Mileage-Livery out of NYC	S0215	TN	01/18/2018	01/18/2018	No	4	1																					Mileage-Livery out of NYC	137392754
2504293	1859	569954990	Service	Richardeli	S	Telemaque	MR28908W	F	(917) 731-5231	03/06/2008	NORTH SHORE LIJ GLEN COVE HOSPITAL		1295743060	Clean Air Car Svc & Parking (NYC)	Mileage-Livery out of NYC	S0215	TN	01/18/2018	01/18/2018	No	4	1																					Mileage-Livery out of NYC	137392755
2504293	1860	569990870	Leg	Maylene	A	Hawkinslingo	PT03668K	F	(631) 336-4112	09/14/2009	ZUCKER HILLSIDE HOSPITAL		1104990928	Clean Air Car Svc & Parking (NYC)	Livery/MN-Med Appt out CMMA	A0100	TN	01/18/2018	01/18/2018	No	2	1		yanique mom	(631) 336-4112	28.4	01/18/2018	1500	25 Pine St	 home	New York	NY	10005	01/18/2018	1600	8900 Van Wyck Expwy	  main	Jamaica	NY	11418	14.2	1 Additional rider(s). 1 Additional rider(s). 1 Additional rider(s). Additional Rider		No	137401382
2504293	1861	569990870	Leg	Maylene	A	Hawkinslingo	PT03668K	F	(631) 336-4112	09/14/2009	ZUCKER HILLSIDE HOSPITAL		1104990928	Clean Air Car Svc & Parking (NYC)	Livery/MN-Med Appt out CMMA	A0100	TN	01/18/2018	01/18/2018	No	2	1		yanique mom	(631) 336-4112	28.4	01/18/2018	Call	8900 Van Wyck Expwy	 main	Jamaica	NY	11418	01/18/2018	Call	25 Pine St	  home	New York	NY	10005	14.2	1 Additional rider(s). 1 Additional rider(s). 1 Additional rider(s). Additional Rider		No	137401383
2504293	1862	569990870	Service	Maylene	A	Hawkinslingo	PT03668K	F	(631) 336-4112	09/14/2009	ZUCKER HILLSIDE HOSPITAL		1104990928	Clean Air Car Svc & Parking (NYC)	Mileage-Livery in NYC	S0215		01/18/2018	01/18/2018	No	2	1																					Mileage-Livery in NYC	137401382
2504293	1863	569990870	Service	Maylene	A	Hawkinslingo	PT03668K	F	(631) 336-4112	09/14/2009	ZUCKER HILLSIDE HOSPITAL		1104990928	Clean Air Car Svc & Parking (NYC)	Mileage-Livery in NYC	S0215		01/18/2018	01/18/2018	No	2	1																					Mileage-Livery in NYC	137401383
2504293	1864	569990870	Service	Maylene	A	Hawkinslingo	PT03668K	F	(631) 336-4112	09/14/2009	ZUCKER HILLSIDE HOSPITAL		1104990928	Clean Air Car Svc & Parking (NYC)	Tolls-Universal	A0170	CG	01/18/2018	01/18/2018	No	2	1																					Tolls-Universal	137401382
2504293	1865	569990870	Service	Maylene	A	Hawkinslingo	PT03668K	F	(631) 336-4112	09/14/2009	ZUCKER HILLSIDE HOSPITAL		1104990928	Clean Air Car Svc & Parking (NYC)	Livery-Manhattan Surcharge	A0100	SC	01/18/2018	01/18/2018	No	2	1																					Livery-Manhattan Surcharge	137401382
2504293	1866	569990870	Service	Maylene	A	Hawkinslingo	PT03668K	F	(631) 336-4112	09/14/2009	ZUCKER HILLSIDE HOSPITAL		1104990928	Clean Air Car Svc & Parking (NYC)	Livery-Manhattan Surcharge	A0100	SC	01/18/2018	01/18/2018	No	2	1																					Livery-Manhattan Surcharge	137401383
2504293	1867	569995690	Leg	Rosa	M	Santiago	SK42824S	F	(347) 529-4306	11/18/1953	Habal Rania		1407904741	Clean Air Car Svc & Parking (NYC)	Livery/QN-Med Appt out CMMA	A0100	TN	01/22/2018	01/22/2018	No	2	1		self	(347) 529-4306	12.0	01/22/2018	1000	1683 Gates Ave	# 1B 	Ridgewood	NY	11385	01/22/2018	1100	11602 Queens Blvd	  main	Forest Hills	NY	11375	6.0	Additional Rider		No	137402166
2504293	1868	569995690	Leg	Rosa	M	Santiago	SK42824S	F	(347) 529-4306	11/18/1953	Habal Rania		1407904741	Clean Air Car Svc & Parking (NYC)	Livery/QN-Med Appt out CMMA	A0100	TN	01/22/2018	01/22/2018	No	2	1		self	(347) 529-4306	12.0	01/22/2018	call	11602 Queens Blvd	 main	Forest Hills	NY	11375	01/22/2018	Call	1683 Gates Ave	# 1B 	Ridgewood	NY	11385	6.0			No	137402415
2504293	1869	569997320	Leg	Rosa	M	Santiago	SK42824S	F	(347) 529-4306	11/18/1953	Habal Rania		1407904741	Clean Air Car Svc & Parking (NYC)	Livery/QN-Med Appt out CMMA	A0100	TN	01/25/2018	01/25/2018	No	2	1		self	(347) 529-4306	13.2	01/25/2018	1000	1683 Gates Ave	# 1B 	Ridgewood	NY	11385	01/25/2018	1100	9027 Sutphin Blvd	8639528 	Jamaica	NY	11435	6.6	Additional Rider		No	137402885
2504293	1870	569997320	Leg	Rosa	M	Santiago	SK42824S	F	(347) 529-4306	11/18/1953	Habal Rania		1407904741	Clean Air Car Svc & Parking (NYC)	Livery/QN-Med Appt out CMMA	A0100	TN	01/25/2018	01/25/2018	No	2	1		self	(347) 529-4306	13.2	01/25/2018	Call	9027 Sutphin Blvd	8639528 	Jamaica	NY	11435	01/25/2018	Call	1683 Gates Ave	# 1B 	Ridgewood	NY	11385	6.6			No	137402886
2504293	1871	570041290	Leg	Mustahidur	R	Raiyan	ZX76700E	M	(347) 479-7034	07/03/2016	King Mary		1659451128	Clean Air Car Svc & Parking (NYC)	Livery/BX-Med Appt in CMMA	A0100		01/19/2018	01/19/2018	No	2	1		mother	(347) 479-7034	9.6	01/19/2018	1030	1516 Unionport Rd	Apt 4D 	Bronx	NY	10462	01/19/2018	1115	3415 Bainbridge Ave	  	Bronx	NY	10467	4.8	Two Additional Riders; Smoke free vehicle, enrollee has oxygen		No	137413239
2504293	1872	570041290	Leg	Mustahidur	R	Raiyan	ZX76700E	M	(347) 479-7034	07/03/2016	King Mary		1659451128	Clean Air Car Svc & Parking (NYC)	Livery/BX-Med Appt in CMMA	A0100		01/19/2018	01/19/2018	No	2	1		mother	(347) 479-7034	9.6	01/19/2018	Call	3415 Bainbridge Ave	 	Bronx	NY	10467	01/19/2018	Call	1516 Unionport Rd	Apt 4D 	Bronx	NY	10462	4.8			No	137413567
2504293	1873	570043680	Leg	Maria	M	Cuzo	WJ03671D	F	(347) 891-5800	01/05/1959	Queens Hospital	000	1801803903	Clean Air Car Svc & Parking (NYC)	Livery/QN-Med Appt in CMMA	A0100		01/19/2018	01/19/2018	No	2	1		self/int	(347) 891-5800	7.0	01/19/2018	1300	4845 46th St	Apt 3F 	Woodside	NY	11377	01/19/2018	1400	16 E 60th St	  main	New York	NY	10022	3.5	please send a spanish speaking driver. she does not know english.		No	137413849
2504293	1874	570043680	Leg	Maria	M	Cuzo	WJ03671D	F	(347) 891-5800	01/05/1959	Queens Hospital	000	1801803903	Clean Air Car Svc & Parking (NYC)	Livery/QN-Med Appt in CMMA	A0100		01/19/2018	01/19/2018	No	2	1		self/int	(347) 891-5800	7.0	01/19/2018	Call	16 E 60th St	 main	New York	NY	10022	01/19/2018	Call	4845 46th St	Apt 3F 	Woodside	NY	11377	3.5			No	137413850
2504293	1875	570043680	Service	Maria	M	Cuzo	WJ03671D	F	(347) 891-5800	01/05/1959	Queens Hospital	000	1801803903	Clean Air Car Svc & Parking (NYC)	Tolls-Universal	A0170	CG	01/19/2018	01/19/2018	No	2	1																					Tolls-Universal	137413849
2504293	1876	570043680	Service	Maria	M	Cuzo	WJ03671D	F	(347) 891-5800	01/05/1959	Queens Hospital	000	1801803903	Clean Air Car Svc & Parking (NYC)	Livery-Manhattan Surcharge	A0100	SC	01/19/2018	01/19/2018	No	2	1																					Livery-Manhattan Surcharge	137413849
2504293	1877	570043680	Service	Maria	M	Cuzo	WJ03671D	F	(347) 891-5800	01/05/1959	Queens Hospital	000	1801803903	Clean Air Car Svc & Parking (NYC)	Livery-Manhattan Surcharge	A0100	SC	01/19/2018	01/19/2018	No	2	1																					Livery-Manhattan Surcharge	137413850
2504293	1878	570262180	Leg	Edward		Mattocks	XM70326W	M	(347) 334-1422	01/28/1967	UDUEVBO, JERRY		1740448208	Clean Air Car Svc & Parking (NYC)	Livery/QN-Med Appt in CMMA	A0100		01/22/2018	01/22/2018	No	2	1		self	(347) 334-1422	4.2	01/22/2018	0800	4114 10th St	Apt 5D 	Long Island City	NY	11101	01/22/2018	0900	2510 30th Ave	  main	Astoria	NY	11102	2.1			No	137464632
2504293	1879	570262180	Leg	Edward		Mattocks	XM70326W	M	(347) 334-1422	01/28/1967	UDUEVBO, JERRY		1740448208	Clean Air Car Svc & Parking (NYC)	Livery/QN-Med Appt in CMMA	A0100		01/22/2018	01/22/2018	No	2	1		self	(347) 334-1422	4.2	01/22/2018	Call	2510 30th Ave	 main	Astoria	NY	11102	01/22/2018	Call	4114 10th St	Apt 5D 	Long Island City	NY	11101	2.1			No	137464633
2504293	1880	570367930	Leg	Moisey		Massarskiy	WD06336G	M	(917) 518-8205	09/13/1938	RABINOVITS, ELEIZER		1962606715	Clean Air Car Svc & Parking (NYC)	Livery/BK-Med Appt out CMMA	A0100	TN	01/22/2018	01/22/2018	No	2	1		self	(917) 518-8205	10.2	01/22/2018	1130	80 Avenue P	e5 	Brooklyn	NY	11204	01/22/2018	1230	348 13th St	  main	Brooklyn	NY	11215	5.1			No	137487231
2504293	1881	570367930	Leg	Moisey		Massarskiy	WD06336G	M	(917) 518-8205	09/13/1938	RABINOVITS, ELEIZER		1962606715	Clean Air Car Svc & Parking (NYC)	Livery/BK-Med Appt out CMMA	A0100	TN	01/22/2018	01/22/2018	No	2	1		self	(917) 518-8205	10.2	01/22/2018	Call	348 13th St	 main	Brooklyn	NY	11215	01/22/2018	Call	80 Avenue P	e5 	Brooklyn	NY	11204	5.1			No	137487232
2504293	1882	570394250	Leg	Henrickson		Francois	XF05691E	M	(718) 931-3573	07/05/1957	Queens Hospital	000	1801803903	Clean Air Car Svc & Parking (NYC)	Livery/QN-Med Appt out CMMA	A0100	TN	01/22/2018	01/22/2018	No	2	1		self	(718) 931-3573	20.4	01/22/2018	0845	43-44 Kissena Bld             2n	 	Flushing	NY	11355	01/22/2018	0945	324 E 23rd St	  	New York	NY	10010	10.2	1 Additional rider(s).		No	137493758
2504293	1883	570394250	Leg	Henrickson		Francois	XF05691E	M	(718) 931-3573	07/05/1957	Queens Hospital	000	1801803903	Clean Air Car Svc & Parking (NYC)	Livery/QN-Med Appt out CMMA	A0100	TN	01/22/2018	01/22/2018	No	2	1		self	(718) 931-3573	20.4	01/22/2018	Call	324 E 23rd St	 	New York	NY	10010	01/22/2018	Call	43-44 Kissena Bld             2n	  	Flushing	NY	11355	10.2	1 Additional rider(s).		No	137493759
2504293	1884	570394250	Service	Henrickson		Francois	XF05691E	M	(718) 931-3573	07/05/1957	Queens Hospital	000	1801803903	Clean Air Car Svc & Parking (NYC)	Mileage-Livery in NYC	S0215		01/22/2018	01/22/2018	No	2	1																					Mileage-Livery in NYC	137493758
2504293	1885	570394250	Service	Henrickson		Francois	XF05691E	M	(718) 931-3573	07/05/1957	Queens Hospital	000	1801803903	Clean Air Car Svc & Parking (NYC)	Mileage-Livery in NYC	S0215		01/22/2018	01/22/2018	No	2	1																					Mileage-Livery in NYC	137493759
2504293	1886	570394250	Service	Henrickson		Francois	XF05691E	M	(718) 931-3573	07/05/1957	Queens Hospital	000	1801803903	Clean Air Car Svc & Parking (NYC)	Tolls-Universal	A0170	CG	01/22/2018	01/22/2018	No	2	1																					Tolls-Universal	137493758
2504293	1887	570394250	Service	Henrickson		Francois	XF05691E	M	(718) 931-3573	07/05/1957	Queens Hospital	000	1801803903	Clean Air Car Svc & Parking (NYC)	Livery-Manhattan Surcharge	A0100	SC	01/22/2018	01/22/2018	No	2	1																					Livery-Manhattan Surcharge	137493758
2504293	1888	570394250	Service	Henrickson		Francois	XF05691E	M	(718) 931-3573	07/05/1957	Queens Hospital	000	1801803903	Clean Air Car Svc & Parking (NYC)	Livery-Manhattan Surcharge	A0100	SC	01/22/2018	01/22/2018	No	2	1																					Livery-Manhattan Surcharge	137493759
2504293	1889	570472610	Leg	Divina		Gonzalez De Fermi	PX43163X	F	(917) 733-6210	10/10/1963	Braunstein Richard		1801803150	Clean Air Car Svc & Parking (NYC)	Livery/BX-Med Appt in CMMA	A0100		01/22/2018	01/22/2018	No	2	1		self	(917) 733-6210	8.8	01/22/2018	1200	2287 Loring Pl N	Apt 2B 	Bronx	NY	10468	01/22/2018	1300	600 E 233rd St	  Main ent	Bronx	NY	10466	4.4	Additional Rider		No	137512868
2504293	1890	570472610	Leg	Divina		Gonzalez De Fermi	PX43163X	F	(917) 733-6210	10/10/1963	Braunstein Richard		1801803150	Clean Air Car Svc & Parking (NYC)	Livery/BX-Med Appt in CMMA	A0100		01/22/2018	01/22/2018	No	2	1		self	(917) 733-6210	8.8	01/22/2018	Call	600 E 233rd St	 Main ent	Bronx	NY	10466	01/22/2018	Call	2287 Loring Pl N	Apt 2B 	Bronx	NY	10468	4.4			No	137512870
2504293	1891	570475270	Leg	Asad		Deas	TZ77303M	M	(347) 286-5829	05/21/1999	Brooklyn Hospital Center	000	1326046467	Clean Air Car Svc & Parking (NYC)	Livery/BK-Med Appt out CMMA	A0100	TN	01/18/2018	01/18/2018	No	2	1		self	(347) 286-5829	26.8	01/18/2018	1130	816 Macon St	# 3K 	Brooklyn	NY	11233	01/18/2018	1230	26901 76th Ave	  st 255	New Hyde Park	NY	11040	13.4	Additional Rider, Additional Rider		No	137513601
2504293	1892	570475270	Leg	Asad		Deas	TZ77303M	M	(347) 286-5829	05/21/1999	Brooklyn Hospital Center	000	1326046467	Clean Air Car Svc & Parking (NYC)	Livery/BK-Med Appt out CMMA	A0100	TN	01/18/2018	01/18/2018	No	2	1		self	(347) 286-5829	26.8	01/18/2018	Call	26901 76th Ave	 st 255	New Hyde Park	NY	11040	01/18/2018	Call	816 Macon St	# 3K 	Brooklyn	NY	11233	13.4			No	137513602
2504293	1893	570475270	Service	Asad		Deas	TZ77303M	M	(347) 286-5829	05/21/1999	Brooklyn Hospital Center	000	1326046467	Clean Air Car Svc & Parking (NYC)	Mileage-Livery in NYC	S0215		01/18/2018	01/18/2018	No	2	1																					Mileage-Livery in NYC	137513601
2504293	1894	570475270	Service	Asad		Deas	TZ77303M	M	(347) 286-5829	05/21/1999	Brooklyn Hospital Center	000	1326046467	Clean Air Car Svc & Parking (NYC)	Mileage-Livery in NYC	S0215		01/18/2018	01/18/2018	No	2	1																					Mileage-Livery in NYC	137513602
2504293	1895	570475270	Service	Asad		Deas	TZ77303M	M	(347) 286-5829	05/21/1999	Brooklyn Hospital Center	000	1326046467	Clean Air Car Svc & Parking (NYC)	Tolls-Universal	A0170	CG	01/18/2018	01/18/2018	No	2	1																					Tolls-Universal	137513601
2504293	1896	570496880	Leg	Ferdousi		Mollick	VJ15639Y	F	(718) 606-1747	02/15/1962	Abdelmalek Ehab		1366599755	Clean Air Car Svc & Parking (NYC)	Livery/QN-Med Appt out CMMA	A0100	TN	01/22/2018	01/22/2018	No	2	1		self	(718) 606-1747	10.6	01/22/2018	1230	5921 Calloway St	Apt 4F 	Corona	NY	11368	01/22/2018	1330	8405 169th St	  main	Jamaica	NY	11432	5.3			No	137518510
2504293	1897	570496880	Leg	Ferdousi		Mollick	VJ15639Y	F	(718) 606-1747	02/15/1962	Abdelmalek Ehab		1366599755	Clean Air Car Svc & Parking (NYC)	Livery/QN-Med Appt out CMMA	A0100	TN	01/22/2018	01/22/2018	No	2	1		self	(718) 606-1747	10.6	01/22/2018	Call	8405 169th St	 main	Jamaica	NY	11432	01/22/2018	Call	5921 Calloway St	Apt 4F 	Corona	NY	11368	5.3			No	137518511
2504293	1898	570499870	Leg	Ferdousi		Mollick	VJ15639Y	F	(718) 606-1747	02/15/1962	Abdelmalek Ehab		1366599755	Clean Air Car Svc & Parking (NYC)	Livery/QN-Med Appt in CMMA	A0100		01/23/2018	01/23/2018	No	2	1		self	(718) 606-1747	3.2	01/23/2018	1200	5921 Calloway St	Apt 4F 	Corona	NY	11368	01/23/2018	1300	8114 Queens Blvd	  main	Elmhurst	NY	11373	1.6			No	137518855
2504293	1899	570499870	Leg	Ferdousi		Mollick	VJ15639Y	F	(718) 606-1747	02/15/1962	Abdelmalek Ehab		1366599755	Clean Air Car Svc & Parking (NYC)	Livery/QN-Med Appt in CMMA	A0100		01/23/2018	01/23/2018	No	2	1		self	(718) 606-1747	3.2	01/23/2018	Call	8114 Queens Blvd	 main	Elmhurst	NY	11373	01/23/2018	Call	5921 Calloway St	Apt 4F 	Corona	NY	11368	1.6			No	137518856
2504293	1900	570544770	Leg	Patricia		Jones-johnson	ZS98662B	F	(718) 213-5630	01/28/1962	Brooklyn Hospital Center	000	1326046467	Clean Air Car Svc & Parking (NYC)	Livery/BK-Med Appt in CMMA	A0100		01/19/2018	01/19/2018	No	2	1		s	(718) 213-5630	6.1	01/19/2018	0930	795 Putnam Ave	Apt 2R 	Brooklyn	NY	11221	01/19/2018	1030	528 Prospect Pl	8639728 	Brooklyn	NY	11238	2.2			No	137527882
2504293	1901	570544770	Leg	Patricia		Jones-johnson	ZS98662B	F	(718) 213-5630	01/28/1962	Brooklyn Hospital Center	000	1326046467	Clean Air Car Svc & Parking (NYC)	Livery/BK-Med Appt in CMMA	A0100		01/19/2018	01/19/2018	No	2	1		s	(718) 213-5630	6.1	01/19/2018	Call	528 Prospect Pl	8639728 	Brooklyn	NY	11238	01/19/2018	Call	1 Centre St	` 	New York	NY	10007	3.9			No	137527885
2504293	1902	570544770	Service	Patricia		Jones-johnson	ZS98662B	F	(718) 213-5630	01/28/1962	Brooklyn Hospital Center	000	1326046467	Clean Air Car Svc & Parking (NYC)	Tolls-Universal	A0170	CG	01/19/2018	01/19/2018	No	2	1																					Tolls-Universal	137527885
2504293	1903	570544770	Service	Patricia		Jones-johnson	ZS98662B	F	(718) 213-5630	01/28/1962	Brooklyn Hospital Center	000	1326046467	Clean Air Car Svc & Parking (NYC)	Livery-Manhattan Surcharge	A0100	SC	01/19/2018	01/19/2018	No	2	1																					Livery-Manhattan Surcharge	137527885
2504293	1904	570561280	Leg	Rhonda		Paden	YY64638X	F	(609) 676-7345	06/15/1961	Brooklyn Hospital Center	000	1326046467	Clean Air Car Svc & Parking (NYC)	Livery/BK-Med Appt in CMMA	A0100		01/19/2018	01/19/2018	No	2	1		self	(609) 676-7345	7.2	01/19/2018	1200	1307 Loring Ave	Apt 6E 	Brooklyn	NY	11208	01/19/2018	1300	1761 Rockaway Pkwy	  	Brooklyn	NY	11236	3.6			No	137533576
2504293	1905	570561280	Leg	Rhonda		Paden	YY64638X	F	(609) 676-7345	06/15/1961	Brooklyn Hospital Center	000	1326046467	Clean Air Car Svc & Parking (NYC)	Livery/BK-Med Appt in CMMA	A0100		01/19/2018	01/19/2018	No	2	1		self	(609) 676-7345	7.2	01/19/2018	Call	1761 Rockaway Pkwy	 	Brooklyn	NY	11236	01/19/2018	Call	1307 Loring Ave	Apt 6E 	Brooklyn	NY	11208	3.6			No	137533577
2504293	1906	570563460	Leg	Rhonda		Paden	YY64638X	F	(609) 676-7345	06/15/1961	Brooklyn Hospital Center	000	1326046467	Clean Air Car Svc & Parking (NYC)	Livery/BK-Med Appt in CMMA	A0100		01/22/2018	01/22/2018	No	2	1		self	(609) 676-7345	5.6	01/22/2018	1030	1307 Loring Ave	Apt 6E 	Brooklyn	NY	11208	01/22/2018	1130	1380 Linden Blvd	  	Brooklyn	NY	11212	2.8			No	137534353
2504293	1907	570563460	Leg	Rhonda		Paden	YY64638X	F	(609) 676-7345	06/15/1961	Brooklyn Hospital Center	000	1326046467	Clean Air Car Svc & Parking (NYC)	Livery/BK-Med Appt in CMMA	A0100		01/22/2018	01/22/2018	No	2	1		self	(609) 676-7345	5.6	01/22/2018	Call	1380 Linden Blvd	 	Brooklyn	NY	11212	01/22/2018	Call	1307 Loring Ave	Apt 6E 	Brooklyn	NY	11208	2.8			No	137534354
2504293	1908	570588380	Leg	Masuda		Huq	ST07567J	F	(917) 865-0689	01/01/1957	Abrams Eric		1851737340	Clean Air Car Svc & Parking (NYC)	Livery/QN-Med Appt in CMMA	A0100		01/22/2018	01/22/2018	No	2	1		self	(917) 865-0689	6.8	01/22/2018	0645	8301 Grand Ave	# 2FL 	Elmhurst	NY	11373	01/22/2018	0730	374 Stockholm St	  main	Brooklyn	NY	11237	3.4			No	137539500
2504293	1909	570588380	Leg	Masuda		Huq	ST07567J	F	(917) 865-0689	01/01/1957	Abrams Eric		1851737340	Clean Air Car Svc & Parking (NYC)	Livery/QN-Med Appt in CMMA	A0100		01/22/2018	01/22/2018	No	2	1		self	(917) 865-0689	6.8	01/22/2018	Call	374 Stockholm St	 main	Brooklyn	NY	11237	01/22/2018	Call	8301 Grand Ave	# 2FL 	Elmhurst	NY	11373	3.4			No	137539501
2504293	1910	570588380	Service	Masuda		Huq	ST07567J	F	(917) 865-0689	01/01/1957	Abrams Eric		1851737340	Clean Air Car Svc & Parking (NYC)	Tolls-Universal	A0170	CG	01/22/2018	01/22/2018	No	2	1																					Tolls-Universal	137539500
2504293	1911	570624440	Leg	Anthony		Tamilio	PK73896C	M	6462759590	04/27/1960	Brooklyn Hospital Center	000	1326046467	Clean Air Car Svc & Parking (NYC)	Livery/BK-Med Appt in CMMA	A0100		01/26/2018	01/26/2018	No	1	1		self	6462759590	1.8	01/26/2018	0800	2404 E 71st St	 	Brooklyn	NY	11234	01/26/2018	0900	2270 Kimball St	  	Brooklyn	NY	11234	1.8			No	137547186
2504293	1912	570624440	Leg	Anthony		Tamilio	PK73896C	M	6462759590	04/27/1960	Brooklyn Hospital Center	000	1326046467	Clean Air Car Svc & Parking (NYC)	Livery/BK-Med Appt in CMMA	A0100		01/26/2018	01/26/2018	No	1	1		self	6462759590	1.8	01/26/2018	CALL	2270 Kimball St	 	Brooklyn	NY	11234	01/26/2018	CALL	2404 E 71st St	  	Brooklyn	NY	11234	1.8			No	137547187
2504293	1913	570648660	Leg	Yanique		Ford	SG65867E	F	6313364112	06/06/1985	NY Presbyterian Hospital		1952332801	Clean Air Car Svc & Parking (NYC)	Livery/MN-Med Appt out CMMA	A0100	TN	01/19/2018	01/19/2018	No	2	1		self	6313364112	17.6	01/19/2018	0900	25 Pine St	 	New York	NY	10005	01/19/2018	1000	2510 30th Rd	  	Long Island City	NY	11102	8.8	1 Additional rider(s). 1 Additional rider(s). 1 Additional rider(s). 1 Additional rider(s). 1 Additional rider(s). 1 Additional rider(s). 1 Additional		No	137552231
2504293	1914	570648660	Leg	Yanique		Ford	SG65867E	F	6313364112	06/06/1985	NY Presbyterian Hospital		1952332801	Clean Air Car Svc & Parking (NYC)	Livery/MN-Med Appt out CMMA	A0100	TN	01/19/2018	01/19/2018	No	2	1		self	6313364112	17.6	01/19/2018	Call	2510 30th Rd	 	Long Island City	NY	11102	01/19/2018	Call	25 Pine St	  	New York	NY	10005	8.8	1 Additional rider(s). 1 Additional rider(s). 1 Additional rider(s). 1 Additional rider(s). 1 Additional rider(s). 1 Additional rider(s). 1 Additional		No	137552232
2504293	1915	570648660	Service	Yanique		Ford	SG65867E	F	6313364112	06/06/1985	NY Presbyterian Hospital		1952332801	Clean Air Car Svc & Parking (NYC)	Mileage-Livery in NYC	S0215		01/19/2018	01/19/2018	No	2	1																					Mileage-Livery in NYC	137552231
2504293	1916	570648660	Service	Yanique		Ford	SG65867E	F	6313364112	06/06/1985	NY Presbyterian Hospital		1952332801	Clean Air Car Svc & Parking (NYC)	Mileage-Livery in NYC	S0215		01/19/2018	01/19/2018	No	2	1																					Mileage-Livery in NYC	137552232
2504293	1917	570648660	Service	Yanique		Ford	SG65867E	F	6313364112	06/06/1985	NY Presbyterian Hospital		1952332801	Clean Air Car Svc & Parking (NYC)	Tolls-Universal	A0170	CG	01/19/2018	01/19/2018	No	2	1																					Tolls-Universal	137552231
2504293	1918	570648660	Service	Yanique		Ford	SG65867E	F	6313364112	06/06/1985	NY Presbyterian Hospital		1952332801	Clean Air Car Svc & Parking (NYC)	Livery-Manhattan Surcharge	A0100	SC	01/19/2018	01/19/2018	No	2	1																					Livery-Manhattan Surcharge	137552231
2504293	1919	570648660	Service	Yanique		Ford	SG65867E	F	6313364112	06/06/1985	NY Presbyterian Hospital		1952332801	Clean Air Car Svc & Parking (NYC)	Livery-Manhattan Surcharge	A0100	SC	01/19/2018	01/19/2018	No	2	1																					Livery-Manhattan Surcharge	137552232
2504293	1920	570701350	Leg	Lisa		Carlos	ZU91547R	F	3473369141	04/01/1966	LI Jewish Medical Ctr		1982611190	Clean Air Car Svc & Parking (NYC)	Livery/QN-Med Appt out CMMA	A0100	TN	01/22/2018	01/22/2018	No	2	1		self	3473369141		01/22/2018	0900	10726 159th St	 	Jamaica	NY	11433	01/22/2018	0930	27005 76th Ave	  	New Hyde Park	NY	11040	7.4	+1 additional		No	137565727
2504293	1921	570701350	Leg	Lisa		Carlos	ZU91547R	F	3473369141	04/01/1966	LI Jewish Medical Ctr		1982611190	Clean Air Car Svc & Parking (NYC)	Livery/QN-Med Appt out CMMA	A0100	TN	01/22/2018	01/22/2018	No	2	1		self	3473369141		01/22/2018	CALL	27005 76th Ave	 	New Hyde Park	NY	11040	01/22/2018	CALL	10726 159th St	  	Jamaica	NY	11433	7.4			No	137565728
2504293	1922	570744480	Leg	Blanca	S	Burgos	RM33543Y	F	(929) 231-0225	12/14/1955	BLANCO-FRANCO, OSCAR		1881709228	Clean Air Car Svc & Parking (NYC)	Livery/QN-Med Appt in CMMA	A0100		01/22/2018	01/22/2018	No	2	1		self	(929) 231-0225	1.8	01/22/2018	1530	6617 Main St	 	Flushing	NY	11367	01/22/2018	1600	5723 141st St	8632804 	Flushing	NY	11355	.9	1+		No	137574281
2504293	1923	570744480	Leg	Blanca	S	Burgos	RM33543Y	F	(929) 231-0225	12/14/1955	BLANCO-FRANCO, OSCAR		1881709228	Clean Air Car Svc & Parking (NYC)	Livery/QN-Med Appt in CMMA	A0100		01/22/2018	01/22/2018	No	2	1		self	(929) 231-0225	1.8	01/22/2018	1700	5723 141st St	8632804 	Flushing	NY	11355	01/22/2018	Call	6617 Main St	  	Flushing	NY	11367	.9			No	137574282
2504293	1924	570745310	Leg	Sheila		Keller	ZE34714D	F	(929) 307-9064	06/12/1960	Bharel Virendra		1720172042	Clean Air Car Svc & Parking (NYC)	Livery/QN-Med Appt in CMMA	A0100		01/23/2018	01/23/2018	No	2	1		self	(929) 307-9064	3.8	01/23/2018	1330	6544 Parsons Blvd	Apt 2B 	Flushing	NY	11365	01/23/2018	1430	9033 160th St	9082520 	Jamaica	NY	11432	1.9			No	137574390
2504293	1925	570745310	Leg	Sheila		Keller	ZE34714D	F	(929) 307-9064	06/12/1960	Bharel Virendra		1720172042	Clean Air Car Svc & Parking (NYC)	Livery/QN-Med Appt in CMMA	A0100		01/23/2018	01/23/2018	No	2	1		self	(929) 307-9064	3.8	01/23/2018	Call	9033 160th St	9082520 	Jamaica	NY	11432	01/23/2018	Call	6544 Parsons Blvd	Apt 2B 	Flushing	NY	11365	1.9			No	137574392
2504293	1926	570782190	Leg	Reshma		Maharaj	KD54352J	F	(347) 500-4614	11/06/1980	Mcdonald Annmarie		1003976341	Clean Air Car Svc & Parking (NYC)	Livery/QN-Med Appt out CMMA	A0100	TN	01/19/2018	01/19/2018	No	4	1		self	(347) 500-4614	58.8	01/19/2018	0700	10459 121st St	 hm	South Richmond Hill	NY	11419	01/19/2018	0800	177 Fort Washington Ave	  mn	New York	NY	10032	18.1			No	137583347
2504293	1927	570782190	Leg	Reshma		Maharaj	KD54352J	F	(347) 500-4614	11/06/1980	Mcdonald Annmarie		1003976341	Clean Air Car Svc & Parking (NYC)	Livery/QN-Med Appt out CMMA	A0100	TN	01/19/2018	01/19/2018	No	4	1		self	(347) 500-4614	58.8	01/19/2018	Call	177 Fort Washington Ave	 mn	New York	NY	10032	01/19/2018	Call	10459 121st St	  hm	South Richmond Hill	NY	11419	18.1			No	137583348
2504293	1928	570782190	Leg	Reshma		Maharaj	KD54352J	F	(347) 500-4614	11/06/1980	Mcdonald Annmarie		1003976341	Clean Air Car Svc & Parking (NYC)	Livery/QN-Med Appt out CMMA	A0100	TN	01/19/2018	01/19/2018	No	4	1		self	(347) 500-4614	58.8	01/19/2018	1300	10459 121st St	 hm	South Richmond Hill	NY	11419	01/19/2018	1400	185 Canal St	  mn	New York	NY	10013	11.3			No	137583364
2504293	1929	570782190	Leg	Reshma		Maharaj	KD54352J	F	(347) 500-4614	11/06/1980	Mcdonald Annmarie		1003976341	Clean Air Car Svc & Parking (NYC)	Livery/QN-Med Appt out CMMA	A0100	TN	01/19/2018	01/19/2018	No	4	1		self	(347) 500-4614	58.8	01/19/2018	Call	185 Canal St	 mn	New York	NY	10013	01/19/2018	Call	10459 121st St	  hm	South Richmond Hill	NY	11419	11.3			No	137583365
2504293	1930	570782190	Service	Reshma		Maharaj	KD54352J	F	(347) 500-4614	11/06/1980	Mcdonald Annmarie		1003976341	Clean Air Car Svc & Parking (NYC)	Tolls-Universal	A0170	CG	01/19/2018	01/19/2018	No	4	1																					Tolls-Universal	137583347
2504293	1931	570782190	Service	Reshma		Maharaj	KD54352J	F	(347) 500-4614	11/06/1980	Mcdonald Annmarie		1003976341	Clean Air Car Svc & Parking (NYC)	Mileage-Livery in NYC	S0215		01/19/2018	01/19/2018	No	4	1																					Mileage-Livery in NYC	137583347
2504293	1932	570782190	Service	Reshma		Maharaj	KD54352J	F	(347) 500-4614	11/06/1980	Mcdonald Annmarie		1003976341	Clean Air Car Svc & Parking (NYC)	Mileage-Livery in NYC	S0215		01/19/2018	01/19/2018	No	4	1																					Mileage-Livery in NYC	137583348
2504293	1933	570782190	Service	Reshma		Maharaj	KD54352J	F	(347) 500-4614	11/06/1980	Mcdonald Annmarie		1003976341	Clean Air Car Svc & Parking (NYC)	Mileage-Livery in NYC	S0215		01/19/2018	01/19/2018	No	4	1																					Mileage-Livery in NYC	137583364
2504293	1934	570782190	Service	Reshma		Maharaj	KD54352J	F	(347) 500-4614	11/06/1980	Mcdonald Annmarie		1003976341	Clean Air Car Svc & Parking (NYC)	Mileage-Livery in NYC	S0215		01/19/2018	01/19/2018	No	4	1																					Mileage-Livery in NYC	137583365
2504293	1935	570782190	Service	Reshma		Maharaj	KD54352J	F	(347) 500-4614	11/06/1980	Mcdonald Annmarie		1003976341	Clean Air Car Svc & Parking (NYC)	Livery-Manhattan Surcharge	A0100	SC	01/19/2018	01/19/2018	No	4	1																					Livery-Manhattan Surcharge	137583364
2504293	1936	570782190	Service	Reshma		Maharaj	KD54352J	F	(347) 500-4614	11/06/1980	Mcdonald Annmarie		1003976341	Clean Air Car Svc & Parking (NYC)	Livery-Manhattan Surcharge	A0100	SC	01/19/2018	01/19/2018	No	4	1																					Livery-Manhattan Surcharge	137583365
2504293	1937	570791490	Leg	Fungsin		Chiu	NA77401H	F	6467055501	07/12/1944	Hon, King-Chen		1447281738	Clean Air Car Svc & Parking (NYC)	Livery/QN-Med Appt in CMMA	A0100		01/22/2018	01/22/2018	No	2	1		raymond son in law	646705499	5.2	01/22/2018	0900	18819 Underhill Ave	 	Fresh Meadows	NY	11365	01/22/2018	1000	13620 38th Ave	  	Flushing	NY	11354	2.6	one aditional rider		No	137586885
2504293	1938	570791490	Leg	Fungsin		Chiu	NA77401H	F	6467055501	07/12/1944	Hon, King-Chen		1447281738	Clean Air Car Svc & Parking (NYC)	Livery/QN-Med Appt in CMMA	A0100		01/22/2018	01/22/2018	No	2	1		raymond son in law	646705499	5.2	01/22/2018	CALL	13620 38th Ave	 	Flushing	NY	11354	01/22/2018	CALL	18819 Underhill Ave	  	Fresh Meadows	NY	11365	2.6			No	137586886
2504293	1939	570795270	Leg	Fungsin		Chiu	NA77401H	F	6467055501	07/12/1944	Hon, King-Chen		1447281738	Clean Air Car Svc & Parking (NYC)	Livery/QN-Med Appt in CMMA	A0100		01/23/2018	01/23/2018	No	2	1		raymond son in law	646705499	5.2	01/23/2018	0900	18819 Underhill Ave	 	Fresh Meadows	NY	11365	01/23/2018	1000	13620 38th Ave	  	Flushing	NY	11354	2.6	one aditional rider		No	137587214
2504293	1940	570795270	Leg	Fungsin		Chiu	NA77401H	F	6467055501	07/12/1944	Hon, King-Chen		1447281738	Clean Air Car Svc & Parking (NYC)	Livery/QN-Med Appt in CMMA	A0100		01/23/2018	01/23/2018	No	2	1		raymond son in law	646705499	5.2	01/23/2018	CALL	13620 38th Ave	 	Flushing	NY	11354	01/23/2018	CALL	18819 Underhill Ave	  	Fresh Meadows	NY	11365	2.6			No	137587215
2504293	1941	570797970	Leg	Fungsin		Chiu	NA77401H	F	6467055501	07/12/1944	Hon, King-Chen		1447281738	Clean Air Car Svc & Parking (NYC)	Livery/QN-Med Appt in CMMA	A0100		01/25/2018	01/25/2018	No	2	1		raymond son in law	646705499	6.4	01/25/2018	0900	18819 Underhill Ave	 	Fresh Meadows	NY	11365	01/25/2018	1000	13511 40th Rd	  	Flushing	NY	11354	3.2	one aditional rider		No	137587288
2504293	1942	570797970	Leg	Fungsin		Chiu	NA77401H	F	6467055501	07/12/1944	Hon, King-Chen		1447281738	Clean Air Car Svc & Parking (NYC)	Livery/QN-Med Appt in CMMA	A0100		01/25/2018	01/25/2018	No	2	1		raymond son in law	646705499	6.4	01/25/2018	CALL	13511 40th Rd	 	Flushing	NY	11354	01/25/2018	CALL	18819 Underhill Ave	  	Fresh Meadows	NY	11365	3.2			No	137587289
2504293	1943	570798550	Leg	Fungsin		Chiu	NA77401H	F	6467055501	07/12/1944	Hon, King-Chen		1447281738	Clean Air Car Svc & Parking (NYC)	Livery/QN-Med Appt in CMMA	A0100		01/26/2018	01/26/2018	No	2	1		raymond son in law	646705499	6.4	01/26/2018	0900	18819 Underhill Ave	 	Fresh Meadows	NY	11365	01/26/2018	1000	13511 40th Rd	  	Flushing	NY	11354	3.2	one aditional rider		No	137587494
2504293	1944	570798550	Leg	Fungsin		Chiu	NA77401H	F	6467055501	07/12/1944	Hon, King-Chen		1447281738	Clean Air Car Svc & Parking (NYC)	Livery/QN-Med Appt in CMMA	A0100		01/26/2018	01/26/2018	No	2	1		raymond son in law	646705499	6.4	01/26/2018	CALL	13511 40th Rd	 	Flushing	NY	11354	01/26/2018	CALL	18819 Underhill Ave	  	Fresh Meadows	NY	11365	3.2			No	137587495
2504293	1945	570799790	Leg	Sharon		Caffey	XQ37608H	F	(718) 301-3775	09/04/1964	Bradnock Howard		1225002751	Clean Air Car Svc & Parking (NYC)	Livery/QN-Med Appt out CMMA	A0100	TN	01/18/2018	01/18/2018	No	4	1		self	(718) 301-3775	55.2	01/18/2018	0800	3441 Linden Pl	Apt 2B 	Flushing	NY	11354	01/18/2018	0900	6317 4th Ave	  Main ent.	Brooklyn	NY	11220	18.2			No	137587935
2504293	1946	570799790	Leg	Sharon		Caffey	XQ37608H	F	(718) 301-3775	09/04/1964	Bradnock Howard		1225002751	Clean Air Car Svc & Parking (NYC)	Livery/QN-Med Appt out CMMA	A0100	TN	01/18/2018	01/18/2018	No	4	1		self	(718) 301-3775	55.2	01/18/2018	Call	6317 4th Ave	 Main ent.	Brooklyn	NY	11220	01/18/2018	Call	3441 Linden Pl	Apt 2B 	Flushing	NY	11354	18.2			No	137587936
2504293	1947	570799790	Leg	Sharon		Caffey	XQ37608H	F	(718) 301-3775	09/04/1964	Bradnock Howard		1225002751	Clean Air Car Svc & Parking (NYC)	Livery/QN-Med Appt out CMMA	A0100	TN	01/18/2018	01/18/2018	No	4	1		self	(718) 301-3775	55.2	01/18/2018	1400	3441 Linden Pl	Apt 2B 	Flushing	NY	11354	01/18/2018	1500	1305 York Ave	3rd floor 	New York	NY	10021	9.4			No	137587937
2504293	1948	570799790	Leg	Sharon		Caffey	XQ37608H	F	(718) 301-3775	09/04/1964	Bradnock Howard		1225002751	Clean Air Car Svc & Parking (NYC)	Livery/QN-Med Appt out CMMA	A0100	TN	01/18/2018	01/18/2018	No	4	1		self	(718) 301-3775	55.2	01/18/2018	Call	1305 York Ave	3rd floor 	New York	NY	10021	01/18/2018	Call	3441 Linden Pl	Apt 2B 	Flushing	NY	11354	9.4			No	137587938
2504293	1949	570799790	Service	Sharon		Caffey	XQ37608H	F	(718) 301-3775	09/04/1964	Bradnock Howard		1225002751	Clean Air Car Svc & Parking (NYC)	Mileage-Livery in NYC	S0215		01/18/2018	01/18/2018	No	4	1																					Mileage-Livery in NYC	137587935
2504293	1950	570799790	Service	Sharon		Caffey	XQ37608H	F	(718) 301-3775	09/04/1964	Bradnock Howard		1225002751	Clean Air Car Svc & Parking (NYC)	Mileage-Livery in NYC	S0215		01/18/2018	01/18/2018	No	4	1																					Mileage-Livery in NYC	137587936
2504293	1951	570799790	Service	Sharon		Caffey	XQ37608H	F	(718) 301-3775	09/04/1964	Bradnock Howard		1225002751	Clean Air Car Svc & Parking (NYC)	Mileage-Livery in NYC	S0215		01/18/2018	01/18/2018	No	4	1																					Mileage-Livery in NYC	137587937
2504293	1952	570799790	Service	Sharon		Caffey	XQ37608H	F	(718) 301-3775	09/04/1964	Bradnock Howard		1225002751	Clean Air Car Svc & Parking (NYC)	Mileage-Livery in NYC	S0215		01/18/2018	01/18/2018	No	4	1																					Mileage-Livery in NYC	137587938
2504293	1953	570799790	Service	Sharon		Caffey	XQ37608H	F	(718) 301-3775	09/04/1964	Bradnock Howard		1225002751	Clean Air Car Svc & Parking (NYC)	Tolls-Universal	A0170	CG	01/18/2018	01/18/2018	No	4	1																					Tolls-Universal	137587935
2504293	1954	570799790	Service	Sharon		Caffey	XQ37608H	F	(718) 301-3775	09/04/1964	Bradnock Howard		1225002751	Clean Air Car Svc & Parking (NYC)	Livery-Manhattan Surcharge	A0100	SC	01/18/2018	01/18/2018	No	4	1																					Livery-Manhattan Surcharge	137587937
2504293	1955	570799790	Service	Sharon		Caffey	XQ37608H	F	(718) 301-3775	09/04/1964	Bradnock Howard		1225002751	Clean Air Car Svc & Parking (NYC)	Livery-Manhattan Surcharge	A0100	SC	01/18/2018	01/18/2018	No	4	1																					Livery-Manhattan Surcharge	137587938
2504293	1956	570813150	Leg	Sharon		Caffey	XQ37608H	F	7183013775	09/04/1964	Bradnock Howard		1225002751	Clean Air Car Svc & Parking (NYC)	Livery/QN-Med Appt out CMMA	A0100	TN	01/20/2018	01/20/2018	No	4	1		self	7183013775	51.1	01/20/2018	0730	3441 Linden Pl	 	Flushing	NY	11354	01/20/2018	0830	6317 4th Ave	  	Brooklyn	NY	11220	18.2			No	137591410
2504293	1957	570813150	Leg	Sharon		Caffey	XQ37608H	F	7183013775	09/04/1964	Bradnock Howard		1225002751	Clean Air Car Svc & Parking (NYC)	Livery/QN-Med Appt out CMMA	A0100	TN	01/20/2018	01/20/2018	No	4	1		self	7183013775	51.1	01/20/2018	CALL	263 7th Ave	 	Brooklyn	NY	11215	01/20/2018	CALL	3441 Linden Pl	  	Flushing	NY	11354	14.1			No	137591411
2504293	1958	570813150	Leg	Sharon		Caffey	XQ37608H	F	7183013775	09/04/1964	Bradnock Howard		1225002751	Clean Air Car Svc & Parking (NYC)	Livery/QN-Med Appt out CMMA	A0100	TN	01/20/2018	01/20/2018	No	4	1		self	7183013775	51.1	01/20/2018	1400	3441 Linden Pl	Apt 2B 	Flushing	NY	11354	01/20/2018	1500	525 E 68th St	  Main ent.	New York	NY	10065	9.4			No	137591412
2504293	1959	570813150	Leg	Sharon		Caffey	XQ37608H	F	7183013775	09/04/1964	Bradnock Howard		1225002751	Clean Air Car Svc & Parking (NYC)	Livery/QN-Med Appt out CMMA	A0100	TN	01/20/2018	01/20/2018	No	4	1		self	7183013775	51.1	01/20/2018	Call	525 E 68th St	 Main ent.	New York	NY	10065	01/20/2018	Call	3441 Linden Pl	Apt 2B 	Flushing	NY	11354	9.4			No	137591413
2504293	1960	570813150	Service	Sharon		Caffey	XQ37608H	F	7183013775	09/04/1964	Bradnock Howard		1225002751	Clean Air Car Svc & Parking (NYC)	Mileage-Livery in NYC	S0215		01/20/2018	01/20/2018	No	4	1																					Mileage-Livery in NYC	137591410
2504293	1961	570813150	Service	Sharon		Caffey	XQ37608H	F	7183013775	09/04/1964	Bradnock Howard		1225002751	Clean Air Car Svc & Parking (NYC)	Mileage-Livery in NYC	S0215		01/20/2018	01/20/2018	No	4	1																					Mileage-Livery in NYC	137591411
2504293	1962	570813150	Service	Sharon		Caffey	XQ37608H	F	7183013775	09/04/1964	Bradnock Howard		1225002751	Clean Air Car Svc & Parking (NYC)	Mileage-Livery in NYC	S0215		01/20/2018	01/20/2018	No	4	1																					Mileage-Livery in NYC	137591412
2504293	1963	570813150	Service	Sharon		Caffey	XQ37608H	F	7183013775	09/04/1964	Bradnock Howard		1225002751	Clean Air Car Svc & Parking (NYC)	Mileage-Livery in NYC	S0215		01/20/2018	01/20/2018	No	4	1																					Mileage-Livery in NYC	137591413
2504293	1964	570813150	Service	Sharon		Caffey	XQ37608H	F	7183013775	09/04/1964	Bradnock Howard		1225002751	Clean Air Car Svc & Parking (NYC)	Tolls-Universal	A0170	CG	01/20/2018	01/20/2018	No	4	1																					Tolls-Universal	137591410
2504293	1965	570813150	Service	Sharon		Caffey	XQ37608H	F	7183013775	09/04/1964	Bradnock Howard		1225002751	Clean Air Car Svc & Parking (NYC)	Livery-Manhattan Surcharge	A0100	SC	01/20/2018	01/20/2018	No	4	1																					Livery-Manhattan Surcharge	137591412
2504293	1966	570813150	Service	Sharon		Caffey	XQ37608H	F	7183013775	09/04/1964	Bradnock Howard		1225002751	Clean Air Car Svc & Parking (NYC)	Livery-Manhattan Surcharge	A0100	SC	01/20/2018	01/20/2018	No	4	1																					Livery-Manhattan Surcharge	137591413
2504293	1967	570814960	Leg	Petronila		Mejia	WA51990P	F	(347) 670-9092	09/24/1950	Queens Hospital	000	1801803903	Clean Air Car Svc & Parking (NYC)	Livery/QN-Med Appt out CMMA	A0100	TN	01/31/2018	01/31/2018	No	2	1		Daughter-Elizabeth	(347) 670-9092	34.0	01/31/2018	0930	9036 144th Pl	Apt 1A 	Jamaica	NY	11435	01/31/2018	1030	901 Stewart Ave	  main	Garden City	NY	11530	17.0	1 Additional rider(s).		No	137592143
2504293	1968	570814960	Leg	Petronila		Mejia	WA51990P	F	(347) 670-9092	09/24/1950	Queens Hospital	000	1801803903	Clean Air Car Svc & Parking (NYC)	Livery/QN-Med Appt out CMMA	A0100	TN	01/31/2018	01/31/2018	No	2	1		Daughter-Elizabeth	(347) 670-9092	34.0	01/31/2018	Call	901 Stewart Ave	 main	Garden City	NY	11530	01/31/2018	Call	9036 144th Pl	Apt 1A 	Jamaica	NY	11435	17.0	1 Additional rider(s).		No	137592144
2504293	1969	570814960	Service	Petronila		Mejia	WA51990P	F	(347) 670-9092	09/24/1950	Queens Hospital	000	1801803903	Clean Air Car Svc & Parking (NYC)	Tolls-Universal	A0170	CG	01/31/2018	01/31/2018	No	2	1																					Tolls-Universal	137592143
2504293	1970	570814960	Service	Petronila		Mejia	WA51990P	F	(347) 670-9092	09/24/1950	Queens Hospital	000	1801803903	Clean Air Car Svc & Parking (NYC)	Mileage-Livery out of NYC	S0215	TN	01/31/2018	01/31/2018	No	2	1																					Mileage-Livery out of NYC	137592143
2504293	1971	570814960	Service	Petronila		Mejia	WA51990P	F	(347) 670-9092	09/24/1950	Queens Hospital	000	1801803903	Clean Air Car Svc & Parking (NYC)	Mileage-Livery out of NYC	S0215	TN	01/31/2018	01/31/2018	No	2	1																					Mileage-Livery out of NYC	137592144
2504293	1972	570829160	Leg	Sharon		Caffey	XQ37608H	F	(718) 301-3775	09/04/1964	Bradnock Howard		1225002751	Clean Air Car Svc & Parking (NYC)	Livery/QN-Med Appt out CMMA	A0100	TN	01/19/2018	01/19/2018	No	4	1		self	(718) 301-3775	47.0	01/19/2018	0730	3441 Linden Pl	Apt 2B 	Flushing	NY	11354	01/19/2018	0830	263 7th Ave	This trip contains a 	Brooklyn	NY	11215	14.1			No	137596106
2504293	1973	570829160	Leg	Sharon		Caffey	XQ37608H	F	(718) 301-3775	09/04/1964	Bradnock Howard		1225002751	Clean Air Car Svc & Parking (NYC)	Livery/QN-Med Appt out CMMA	A0100	TN	01/19/2018	01/19/2018	No	4	1		self	(718) 301-3775	47.0	01/19/2018	Call	263 7th Ave	This trip contains a 	Brooklyn	NY	11215	01/19/2018	Call	3441 Linden Pl	Apt 2B 	Flushing	NY	11354	14.1			No	137596107
2504293	1974	570829160	Leg	Sharon		Caffey	XQ37608H	F	(718) 301-3775	09/04/1964	Bradnock Howard		1225002751	Clean Air Car Svc & Parking (NYC)	Livery/QN-Med Appt out CMMA	A0100	TN	01/19/2018	01/19/2018	No	4	1		self	(718) 301-3775	47.0	01/19/2018	1430	3441 Linden Pl	Apt 2B 	Flushing	NY	11354	01/19/2018	1530	1305 York Ave	  main	New York	NY	10021	9.4			No	137596137
2504293	1975	570829160	Leg	Sharon		Caffey	XQ37608H	F	(718) 301-3775	09/04/1964	Bradnock Howard		1225002751	Clean Air Car Svc & Parking (NYC)	Livery/QN-Med Appt out CMMA	A0100	TN	01/19/2018	01/19/2018	No	4	1		self	(718) 301-3775	47.0	01/19/2018	Call	1305 York Ave	 main	New York	NY	10021	01/19/2018	Call	3441 Linden Pl	Apt 2B 	Flushing	NY	11354	9.4			No	137596138
2504293	1976	570829160	Service	Sharon		Caffey	XQ37608H	F	(718) 301-3775	09/04/1964	Bradnock Howard		1225002751	Clean Air Car Svc & Parking (NYC)	Tolls-Universal	A0170	CG	01/19/2018	01/19/2018	No	4	1																					Tolls-Universal	137596106
2504293	1977	570829160	Service	Sharon		Caffey	XQ37608H	F	(718) 301-3775	09/04/1964	Bradnock Howard		1225002751	Clean Air Car Svc & Parking (NYC)	Mileage-Livery in NYC	S0215		01/19/2018	01/19/2018	No	4	1																					Mileage-Livery in NYC	137596106
2504293	1978	570829160	Service	Sharon		Caffey	XQ37608H	F	(718) 301-3775	09/04/1964	Bradnock Howard		1225002751	Clean Air Car Svc & Parking (NYC)	Mileage-Livery in NYC	S0215		01/19/2018	01/19/2018	No	4	1																					Mileage-Livery in NYC	137596107
2504293	1979	570829160	Service	Sharon		Caffey	XQ37608H	F	(718) 301-3775	09/04/1964	Bradnock Howard		1225002751	Clean Air Car Svc & Parking (NYC)	Mileage-Livery in NYC	S0215		01/19/2018	01/19/2018	No	4	1																					Mileage-Livery in NYC	137596137
2504293	1980	570829160	Service	Sharon		Caffey	XQ37608H	F	(718) 301-3775	09/04/1964	Bradnock Howard		1225002751	Clean Air Car Svc & Parking (NYC)	Mileage-Livery in NYC	S0215		01/19/2018	01/19/2018	No	4	1																					Mileage-Livery in NYC	137596138
2504293	1981	570829160	Service	Sharon		Caffey	XQ37608H	F	(718) 301-3775	09/04/1964	Bradnock Howard		1225002751	Clean Air Car Svc & Parking (NYC)	Livery-Manhattan Surcharge	A0100	SC	01/19/2018	01/19/2018	No	4	1																					Livery-Manhattan Surcharge	137596137
2504293	1982	570829160	Service	Sharon		Caffey	XQ37608H	F	(718) 301-3775	09/04/1964	Bradnock Howard		1225002751	Clean Air Car Svc & Parking (NYC)	Livery-Manhattan Surcharge	A0100	SC	01/19/2018	01/19/2018	No	4	1																					Livery-Manhattan Surcharge	137596138
2504293	1983	570831730	Leg	Elizabeth		Mejia	WA51950F	F	(347) 670-9092	02/03/1985	Fuzaylova Svetlana		1003911033	Clean Air Car Svc & Parking (NYC)	Livery/QN-Med Appt out CMMA	A0100	TN	01/24/2018	01/24/2018	No	2	1		Elizabeth- enrollee	3476709092	12.2	01/24/2018	1230	90-36 144th Pl                A1 Ca	 home	Jamaica	NY	11435	01/24/2018	1330	4402 Francis Lewis Blvd	  main	Bayside	NY	11361	6.1	Additional Rider		No	137597200
2504293	1984	570831730	Leg	Elizabeth		Mejia	WA51950F	F	(347) 670-9092	02/03/1985	Fuzaylova Svetlana		1003911033	Clean Air Car Svc & Parking (NYC)	Livery/QN-Med Appt out CMMA	A0100	TN	01/24/2018	01/24/2018	No	2	1		Elizabeth- enrollee	3476709092	12.2	01/24/2018	Call	4402 Francis Lewis Blvd	 main	Bayside	NY	11361	01/24/2018	Call	90-36 144th Pl                A1 Ca	  home	Jamaica	NY	11435	6.1			No	137597201
2504293	1985	570835220	Leg	Elizabeth		Mejia	WA51950F	F	(347) 670-9092	02/03/1985	Fuzaylova Svetlana		1003911033	Clean Air Car Svc & Parking (NYC)	Livery/QN-Med Appt in CMMA	A0100		01/22/2018	01/22/2018	No	2	1		Elizabeth- enrollee	3476709092	1.0	01/22/2018	1530	90-36 144th Pl                A1 Ca	 home	Jamaica	NY	11435	01/22/2018	1630	14927 Jamaica Ave	  main	Jamaica	NY	11435	.5	Additional Rider		No	137598511
2504293	1986	570835220	Leg	Elizabeth		Mejia	WA51950F	F	(347) 670-9092	02/03/1985	Fuzaylova Svetlana		1003911033	Clean Air Car Svc & Parking (NYC)	Livery/QN-Med Appt in CMMA	A0100		01/22/2018	01/22/2018	No	2	1		Elizabeth- enrollee	3476709092	1.0	01/22/2018	Call	14927 Jamaica Ave	 main	Jamaica	NY	11435	01/22/2018	Call	90-36 144th Pl                A1 Ca	  home	Jamaica	NY	11435	.5			No	137598512
2504293	1987	570842380	Leg	Petronila		Mejia	WA51990P	F	(347) 670-9092	09/24/1950	Queens Hospital	000	1801803903	Clean Air Car Svc & Parking (NYC)	Livery/QN-Med Appt in CMMA	A0100		01/29/2018	01/29/2018	No	2	1		Elizabeth- daughter	3476709092	1.0	01/29/2018	1230	9036 144th Pl	Apt 1A 	Jamaica	NY	11435	01/29/2018	1330	14927 Jamaica Ave	  main	Jamaica	NY	11435	.5	uses a cane, Additional Rider		No	137600233
2504293	1988	570842380	Leg	Petronila		Mejia	WA51990P	F	(347) 670-9092	09/24/1950	Queens Hospital	000	1801803903	Clean Air Car Svc & Parking (NYC)	Livery/QN-Med Appt in CMMA	A0100		01/29/2018	01/29/2018	No	2	1		Elizabeth- daughter	3476709092	1.0	01/29/2018	Call	14927 Jamaica Ave	 main	Jamaica	NY	11435	01/29/2018	Call	9036 144th Pl	Apt 1A 	Jamaica	NY	11435	.5			No	137600234
2504293	1989	570844770	Leg	Petronila		Mejia	WA51990P	F	(347) 670-9092	09/24/1950	Queens Hospital	000	1801803903	Clean Air Car Svc & Parking (NYC)	Livery/QN-Med Appt out CMMA	A0100	TN	01/22/2018	01/22/2018	No	2	1		Elizabeth- daughter	3476709092	25.2	01/22/2018	0945	9036 144th Pl	Apt 1A 	Jamaica	NY	11435	01/22/2018	1045	305 E 33rd St	  main	New York	NY	10016	12.6	Additional Rider		No	137600414
2504293	1990	570844770	Leg	Petronila		Mejia	WA51990P	F	(347) 670-9092	09/24/1950	Queens Hospital	000	1801803903	Clean Air Car Svc & Parking (NYC)	Livery/QN-Med Appt out CMMA	A0100	TN	01/22/2018	01/22/2018	No	2	1		Elizabeth- daughter	3476709092	25.2	01/22/2018	Call	305 E 33rd St	 main	New York	NY	10016	01/22/2018	Call	9036 144th Pl	Apt 1A 	Jamaica	NY	11435	12.6			No	137600415
2504293	1991	570844770	Service	Petronila		Mejia	WA51990P	F	(347) 670-9092	09/24/1950	Queens Hospital	000	1801803903	Clean Air Car Svc & Parking (NYC)	Tolls-Universal	A0170	CG	01/22/2018	01/22/2018	No	2	1																					Tolls-Universal	137600414
2504293	1992	570844770	Service	Petronila		Mejia	WA51990P	F	(347) 670-9092	09/24/1950	Queens Hospital	000	1801803903	Clean Air Car Svc & Parking (NYC)	Livery-Manhattan Surcharge	A0100	SC	01/22/2018	01/22/2018	No	2	1																					Livery-Manhattan Surcharge	137600414
2504293	1993	570844770	Service	Petronila		Mejia	WA51990P	F	(347) 670-9092	09/24/1950	Queens Hospital	000	1801803903	Clean Air Car Svc & Parking (NYC)	Livery-Manhattan Surcharge	A0100	SC	01/22/2018	01/22/2018	No	2	1																					Livery-Manhattan Surcharge	137600415
2504293	1994	570844770	Service	Petronila		Mejia	WA51990P	F	(347) 670-9092	09/24/1950	Queens Hospital	000	1801803903	Clean Air Car Svc & Parking (NYC)	Mileage-Livery in NYC	S0215		01/22/2018	01/22/2018	No	2	1																					Mileage-Livery in NYC	137600414
2504293	1995	570844770	Service	Petronila		Mejia	WA51990P	F	(347) 670-9092	09/24/1950	Queens Hospital	000	1801803903	Clean Air Car Svc & Parking (NYC)	Mileage-Livery in NYC	S0215		01/22/2018	01/22/2018	No	2	1																					Mileage-Livery in NYC	137600415
2504293	1996	570845130	Leg	Petronila		Mejia	WA51990P	F	(347) 670-9092	09/24/1950	Queens Hospital	000	1801803903	Clean Air Car Svc & Parking (NYC)	Livery/QN-Med Appt in CMMA	A0100		01/24/2018	01/24/2018	No	2	1		Elizabeth- enrollee	3476709092	6.0	01/24/2018	1200	9036 144th Pl	Apt 1A 	Jamaica	NY	11435	01/24/2018	1300	6939 Yellowstone Blvd	This trip contains a 	Forest Hills	NY	11375	3.0	Additional Rider		No	137600601
2504293	1997	570845130	Leg	Petronila		Mejia	WA51990P	F	(347) 670-9092	09/24/1950	Queens Hospital	000	1801803903	Clean Air Car Svc & Parking (NYC)	Livery/QN-Med Appt in CMMA	A0100		01/24/2018	01/24/2018	No	2	1		Elizabeth- enrollee	3476709092	6.0	01/24/2018	Call	6939 Yellowstone Blvd	This trip contains a 	Forest Hills	NY	11375	01/24/2018	Call	9036 144th Pl	Apt 1A 	Jamaica	NY	11435	3.0			No	137600606
2504293	1998	570907840	Leg	Reshma		Maharaj	KD54352J	F	(347) 500-4614	11/06/1980	Mcdonald Annmarie		1003976341	Clean Air Car Svc & Parking (NYC)	Livery/QN-Med Appt out CMMA	A0100	TN	01/20/2018	01/20/2018	No	2	1		self	(347) 500-4614	35.2	01/20/2018	0800	10459 121st St	 -	South Richmond Hill	NY	11419	01/20/2018	0900	622 W 168th St	  -	New York	NY	10032	17.6	s/o tues thurs and sat		No	137617249
2504293	1999	570907840	Leg	Reshma		Maharaj	KD54352J	F	(347) 500-4614	11/06/1980	Mcdonald Annmarie		1003976341	Clean Air Car Svc & Parking (NYC)	Livery/QN-Med Appt out CMMA	A0100	TN	01/20/2018	01/20/2018	No	2	1		self	(347) 500-4614	35.2	01/20/2018	Call	622 W 168th St	 -	New York	NY	10032	01/20/2018	Call	10459 121st St	  -	South Richmond Hill	NY	11419	17.6	s/o tues thurs and sat		No	137617250
2504293	2000	570907840	Service	Reshma		Maharaj	KD54352J	F	(347) 500-4614	11/06/1980	Mcdonald Annmarie		1003976341	Clean Air Car Svc & Parking (NYC)	Mileage-Livery in NYC	S0215		01/20/2018	01/20/2018	No	2	1																					Mileage-Livery in NYC	137617249
2504293	2001	570907840	Service	Reshma		Maharaj	KD54352J	F	(347) 500-4614	11/06/1980	Mcdonald Annmarie		1003976341	Clean Air Car Svc & Parking (NYC)	Mileage-Livery in NYC	S0215		01/20/2018	01/20/2018	No	2	1																					Mileage-Livery in NYC	137617250
2504293	2002	570907840	Service	Reshma		Maharaj	KD54352J	F	(347) 500-4614	11/06/1980	Mcdonald Annmarie		1003976341	Clean Air Car Svc & Parking (NYC)	Tolls-Universal	A0170	CG	01/20/2018	01/20/2018	No	2	1																					Tolls-Universal	137617249
2504293	2003	571057480	Leg	Qin		Jiang	UM79948S	F	(917) 605-2881	04/09/1989	Queens Hospital	000	1801803903	Clean Air Car Svc & Parking (NYC)	Livery/QN-Med Appt out CMMA	A0100	TN	01/22/2018	01/22/2018	No	2	1		Self	(917) 605-2881	41.0	01/22/2018	1000	1922 76th St	 hme	East Elmhurst	NY	11370	01/22/2018	1100	200 Garden City Plz	  Main	Garden City	NY	11530	20.5	Request driver B69		No	137655161
2504293	2004	571057480	Leg	Qin		Jiang	UM79948S	F	(917) 605-2881	04/09/1989	Queens Hospital	000	1801803903	Clean Air Car Svc & Parking (NYC)	Livery/QN-Med Appt out CMMA	A0100	TN	01/22/2018	01/22/2018	No	2	1		Self	(917) 605-2881	41.0	01/22/2018	Call	200 Garden City Plz	 Main	Garden City	NY	11530	01/22/2018	Call	1922 76th St	  hme	East Elmhurst	NY	11370	20.5	Request driver B69		No	137655162
2504293	2005	571057480	Service	Qin		Jiang	UM79948S	F	(917) 605-2881	04/09/1989	Queens Hospital	000	1801803903	Clean Air Car Svc & Parking (NYC)	Tolls-Universal	A0170	CG	01/22/2018	01/22/2018	No	2	1																					Tolls-Universal	137655161
2504293	2006	571057480	Service	Qin		Jiang	UM79948S	F	(917) 605-2881	04/09/1989	Queens Hospital	000	1801803903	Clean Air Car Svc & Parking (NYC)	Mileage-Livery out of NYC	S0215	TN	01/22/2018	01/22/2018	No	2	1																					Mileage-Livery out of NYC	137655161
2504293	2007	571057480	Service	Qin		Jiang	UM79948S	F	(917) 605-2881	04/09/1989	Queens Hospital	000	1801803903	Clean Air Car Svc & Parking (NYC)	Mileage-Livery out of NYC	S0215	TN	01/22/2018	01/22/2018	No	2	1																					Mileage-Livery out of NYC	137655162
2504293	2008	571162280	Leg	Frances	E	Batista	ZN65296Z	F	(718) 678-7588	02/22/1962	DELIA, JOANNA		1821245689	Clean Air Car Svc & Parking (NYC)	Livery/QN-Med Appt out CMMA	A0100	TN	01/19/2018	01/19/2018	No	2	1		self	(718) 678-7588	38.6	01/19/2018	1230	25964 149th Ave	# 2 	Rosedale	NY	11422	01/19/2018	1330	475 E 72nd St	  main	New York	NY	10021	19.3	plus 1, Additional Rider		No	137679078
2504293	2009	571162280	Leg	Frances	E	Batista	ZN65296Z	F	(718) 678-7588	02/22/1962	DELIA, JOANNA		1821245689	Clean Air Car Svc & Parking (NYC)	Livery/QN-Med Appt out CMMA	A0100	TN	01/19/2018	01/19/2018	No	2	1		self	(718) 678-7588	38.6	01/19/2018	Call	475 E 72nd St	 main	New York	NY	10021	01/19/2018	Call	25964 149th Ave	# 2 	Rosedale	NY	11422	19.3			No	137679079
2504293	2010	571162280	Service	Frances	E	Batista	ZN65296Z	F	(718) 678-7588	02/22/1962	DELIA, JOANNA		1821245689	Clean Air Car Svc & Parking (NYC)	Tolls-Universal	A0170	CG	01/19/2018	01/19/2018	No	2	1																					Tolls-Universal	137679078
2504293	2011	571162280	Service	Frances	E	Batista	ZN65296Z	F	(718) 678-7588	02/22/1962	DELIA, JOANNA		1821245689	Clean Air Car Svc & Parking (NYC)	Livery-Manhattan Surcharge	A0100	SC	01/19/2018	01/19/2018	No	2	1																					Livery-Manhattan Surcharge	137679078
2504293	2012	571162280	Service	Frances	E	Batista	ZN65296Z	F	(718) 678-7588	02/22/1962	DELIA, JOANNA		1821245689	Clean Air Car Svc & Parking (NYC)	Livery-Manhattan Surcharge	A0100	SC	01/19/2018	01/19/2018	No	2	1																					Livery-Manhattan Surcharge	137679079
2504293	2013	571162280	Service	Frances	E	Batista	ZN65296Z	F	(718) 678-7588	02/22/1962	DELIA, JOANNA		1821245689	Clean Air Car Svc & Parking (NYC)	Mileage-Livery in NYC	S0215		01/19/2018	01/19/2018	No	2	1																					Mileage-Livery in NYC	137679078
2504293	2014	571162280	Service	Frances	E	Batista	ZN65296Z	F	(718) 678-7588	02/22/1962	DELIA, JOANNA		1821245689	Clean Air Car Svc & Parking (NYC)	Mileage-Livery in NYC	S0215		01/19/2018	01/19/2018	No	2	1																					Mileage-Livery in NYC	137679079
2504293	2015	571183580	Leg	Vera	A	Beliavsky	YA32283W	F	7189371435	05/04/1955	Mt Sinai of Queens	00243509	1245248939	Clean Air Car Svc & Parking (NYC)	Livery/QN-Med Appt in CMMA	A0100		01/23/2018	01/23/2018	No	2	1		self	7189371435	1.2	01/23/2018	0930	3503 12th St	 	Long Island City	NY	11106	01/23/2018	1030	3160 21st St	  	Astoria	NY	11106	.6	1 Additional Rider		No	137685264
2504293	2016	571183580	Leg	Vera	A	Beliavsky	YA32283W	F	7189371435	05/04/1955	Mt Sinai of Queens	00243509	1245248939	Clean Air Car Svc & Parking (NYC)	Livery/QN-Med Appt in CMMA	A0100		01/23/2018	01/23/2018	No	2	1		self	7189371435	1.2	01/23/2018	CALL	3160 21st St	 	Astoria	NY	11106	01/23/2018	CALL	3503 12th St	  	Long Island City	NY	11106	.6			No	137685265
2504293	2017	571358670	Leg	Catherine		Douglas	ZQ10118K	F	7185275497	01/20/1957	GOLYAN, BIJANDO		1740222355	Clean Air Car Svc & Parking (NYC)	Livery/QN-Med Appt out CMMA	A0100	TN	01/24/2018	01/24/2018	No	2	1		self	7185275497	15.0	01/24/2018	1400	11816 218th St	 	Cambria Heights	NY	11411	01/24/2018	1500	6902 Austin St	  	Forest Hills	NY	11375	7.5	1 additional rider		No	137727807
2504293	2018	571358670	Leg	Catherine		Douglas	ZQ10118K	F	7185275497	01/20/1957	GOLYAN, BIJANDO		1740222355	Clean Air Car Svc & Parking (NYC)	Livery/QN-Med Appt out CMMA	A0100	TN	01/24/2018	01/24/2018	No	2	1		self	7185275497	15.0	01/24/2018	CALL	6902 Austin St	 	Forest Hills	NY	11375	01/24/2018	1500	11816 218th St	  	Cambria Heights	NY	11411	7.5			No	137727808
2504293	2019	571412690	Leg	Roy		Chen	MJ42714V	M	(917) 930-5666	10/16/2012	Karoutsos, Stavros PT	02370423	1144312232	Clean Air Car Svc & Parking (NYC)	Livery/BK-Med Appt out CMMA	A0100	TN	01/22/2018	01/22/2018	No	2	1		Chenfang-mother	(917) 930-5666	11.6	01/22/2018	0900	972 67th St	1 floor 	Brooklyn	NY	11219	01/22/2018	1000	175 Remsen St	  main	Brooklyn	NY	11201	5.8	Additional Rider		No	137741166
2504293	2020	571412690	Leg	Roy		Chen	MJ42714V	M	(917) 930-5666	10/16/2012	Karoutsos, Stavros PT	02370423	1144312232	Clean Air Car Svc & Parking (NYC)	Livery/BK-Med Appt out CMMA	A0100	TN	01/22/2018	01/22/2018	No	2	1		Chenfang-mother	(917) 930-5666	11.6	01/22/2018	Call	175 Remsen St	 main	Brooklyn	NY	11201	01/22/2018	Call	972 67th St	1 floor 	Brooklyn	NY	11219	5.8			No	137741167
2504293	2021	571508650	Leg	Xiaofang		Luo	KF17862J	F	(347) 527-8655	11/02/1945	Brooklyn Hospital Center	000	1326046467	Clean Air Car Svc & Parking (NYC)	Livery/BK-Med Appt out CMMA	A0100	TN	01/22/2018	01/22/2018	No	2	1		Lizzy , Daughter	(347) 527-8655	36.2	01/22/2018	0700	35 Oliver St	apt 4h 	Brooklyn	NY	11209	01/22/2018	0800	4235 Main St	  Main	Flushing	NY	11355	18.1	1 Additional rider(s). S/O Mon - Only, Additional Rider		No	137763498
2504293	2022	571508650	Leg	Xiaofang		Luo	KF17862J	F	(347) 527-8655	11/02/1945	Brooklyn Hospital Center	000	1326046467	Clean Air Car Svc & Parking (NYC)	Livery/BK-Med Appt out CMMA	A0100	TN	01/22/2018	01/22/2018	No	2	1		Lizzy , Daughter	(347) 527-8655	36.2	01/22/2018	Call	4235 Main St	 Main	Flushing	NY	11355	01/22/2018	Call	35 Oliver St	apt 4h 	Brooklyn	NY	11209	18.1	1 Additional rider(s). S/O Mon - Only, Additional Rider		No	137763499
2504293	2023	571508650	Service	Xiaofang		Luo	KF17862J	F	(347) 527-8655	11/02/1945	Brooklyn Hospital Center	000	1326046467	Clean Air Car Svc & Parking (NYC)	Mileage-Livery in NYC	S0215		01/22/2018	01/22/2018	No	2	1																					Mileage-Livery in NYC	137763498
2504293	2024	571508650	Service	Xiaofang		Luo	KF17862J	F	(347) 527-8655	11/02/1945	Brooklyn Hospital Center	000	1326046467	Clean Air Car Svc & Parking (NYC)	Mileage-Livery in NYC	S0215		01/22/2018	01/22/2018	No	2	1																					Mileage-Livery in NYC	137763499
2504293	2025	571508650	Service	Xiaofang		Luo	KF17862J	F	(347) 527-8655	11/02/1945	Brooklyn Hospital Center	000	1326046467	Clean Air Car Svc & Parking (NYC)	Tolls-Universal	A0170	CG	01/22/2018	01/22/2018	No	2	1																					Tolls-Universal	137763498
2504293	2026	571517360	Leg	Shamima		Rahman	QT41827U	F	9294330432	08/09/1960	Queens Hospital	000	1801803903	Clean Air Car Svc & Parking (NYC)	Livery/QN-Med Appt out CMMA	A0100	TN	01/23/2018	01/23/2018	No	2	1		Mondarine-Daughter	9294330432	28.6	01/23/2018	0930	19332 Foothill Ave	 	Hollis	NY	11423	01/23/2018	1030	462 1st Ave	  	New York	NY	10016	14.3	+1 additional riders		No	137766083
2504293	2027	571517360	Leg	Shamima		Rahman	QT41827U	F	9294330432	08/09/1960	Queens Hospital	000	1801803903	Clean Air Car Svc & Parking (NYC)	Livery/QN-Med Appt out CMMA	A0100	TN	01/23/2018	01/23/2018	No	2	1		Mondarine-Daughter	9294330432	28.6	01/23/2018	CALL	462 1st Ave	 	New York	NY	10016	01/23/2018	CALL	19332 Foothill Ave	  	Hollis	NY	11423	14.3			No	137766084
2504293	2028	571517360	Service	Shamima		Rahman	QT41827U	F	9294330432	08/09/1960	Queens Hospital	000	1801803903	Clean Air Car Svc & Parking (NYC)	Tolls-Universal	A0170	CG	01/23/2018	01/23/2018	No	2	1																					Tolls-Universal	137766083
2504293	2029	571517360	Service	Shamima		Rahman	QT41827U	F	9294330432	08/09/1960	Queens Hospital	000	1801803903	Clean Air Car Svc & Parking (NYC)	Livery-Manhattan Surcharge	A0100	SC	01/23/2018	01/23/2018	No	2	1																					Livery-Manhattan Surcharge	137766083
2504293	2030	571517360	Service	Shamima		Rahman	QT41827U	F	9294330432	08/09/1960	Queens Hospital	000	1801803903	Clean Air Car Svc & Parking (NYC)	Livery-Manhattan Surcharge	A0100	SC	01/23/2018	01/23/2018	No	2	1																					Livery-Manhattan Surcharge	137766084
2504293	2031	571517360	Service	Shamima		Rahman	QT41827U	F	9294330432	08/09/1960	Queens Hospital	000	1801803903	Clean Air Car Svc & Parking (NYC)	Mileage-Livery in NYC	S0215		01/23/2018	01/23/2018	No	2	1																					Mileage-Livery in NYC	137766083
2504293	2032	571517360	Service	Shamima		Rahman	QT41827U	F	9294330432	08/09/1960	Queens Hospital	000	1801803903	Clean Air Car Svc & Parking (NYC)	Mileage-Livery in NYC	S0215		01/23/2018	01/23/2018	No	2	1																					Mileage-Livery in NYC	137766084
2504293	2033	571517480	Leg	Shamima		Rahman	QT41827U	F	9294330432	08/09/1960	Queens Hospital	000	1801803903	Clean Air Car Svc & Parking (NYC)	Livery/QN-Med Appt out CMMA	A0100	TN	01/24/2018	01/24/2018	No	2	1		Mondarine-Daughter	9294330432	12.8	01/24/2018	1030	19332 Foothill Ave	 	Hollis	NY	11423	01/24/2018	1130	9520 63rd Rd	  	Rego Park	NY	11374	6.4	+2 additional riders		No	137766193
2504293	2034	571517480	Leg	Shamima		Rahman	QT41827U	F	9294330432	08/09/1960	Queens Hospital	000	1801803903	Clean Air Car Svc & Parking (NYC)	Livery/QN-Med Appt out CMMA	A0100	TN	01/24/2018	01/24/2018	No	2	1		Mondarine-Daughter	9294330432	12.8	01/24/2018	CALL	9520 63rd Rd	 	Rego Park	NY	11374	01/24/2018	CALL	19332 Foothill Ave	  	Hollis	NY	11423	6.4			No	137766194
2504293	2035	571517620	Leg	Shamima		Rahman	QT41827U	F	9294330432	08/09/1960	Queens Hospital	000	1801803903	Clean Air Car Svc & Parking (NYC)	Livery/QN-Med Appt out CMMA	A0100	TN	01/25/2018	01/25/2018	No	2	1		Mondarine-Daughter	9294330432	31.6	01/25/2018	0800	19332 Foothill Ave	 	Hollis	NY	11423	01/25/2018	0900	1470 Madison Ave	  	New York	NY	10029	15.8	+2 additional riders		No	137766494
2504293	2036	571517620	Leg	Shamima		Rahman	QT41827U	F	9294330432	08/09/1960	Queens Hospital	000	1801803903	Clean Air Car Svc & Parking (NYC)	Livery/QN-Med Appt out CMMA	A0100	TN	01/25/2018	01/25/2018	No	2	1		Mondarine-Daughter	9294330432	31.6	01/25/2018	CALL	1470 Madison Ave	 	New York	NY	10029	01/25/2018	CALL	19332 Foothill Ave	  	Hollis	NY	11423	15.8			No	137766495
2504293	2037	571517620	Service	Shamima		Rahman	QT41827U	F	9294330432	08/09/1960	Queens Hospital	000	1801803903	Clean Air Car Svc & Parking (NYC)	Tolls-Universal	A0170	CG	01/25/2018	01/25/2018	No	2	1																					Tolls-Universal	137766494
2504293	2038	571517620	Service	Shamima		Rahman	QT41827U	F	9294330432	08/09/1960	Queens Hospital	000	1801803903	Clean Air Car Svc & Parking (NYC)	Livery-Manhattan Surcharge	A0100	SC	01/25/2018	01/25/2018	No	2	1																					Livery-Manhattan Surcharge	137766494
2504293	2039	571517620	Service	Shamima		Rahman	QT41827U	F	9294330432	08/09/1960	Queens Hospital	000	1801803903	Clean Air Car Svc & Parking (NYC)	Livery-Manhattan Surcharge	A0100	SC	01/25/2018	01/25/2018	No	2	1																					Livery-Manhattan Surcharge	137766495
2504293	2040	571517620	Service	Shamima		Rahman	QT41827U	F	9294330432	08/09/1960	Queens Hospital	000	1801803903	Clean Air Car Svc & Parking (NYC)	Mileage-Livery in NYC	S0215		01/25/2018	01/25/2018	No	2	1																					Mileage-Livery in NYC	137766494
2504293	2041	571517620	Service	Shamima		Rahman	QT41827U	F	9294330432	08/09/1960	Queens Hospital	000	1801803903	Clean Air Car Svc & Parking (NYC)	Mileage-Livery in NYC	S0215		01/25/2018	01/25/2018	No	2	1																					Mileage-Livery in NYC	137766495
2504293	2042	571521240	Leg	Shamima		Rahman	QT41827U	F	(929) 433-0432	08/09/1960	MAMEDOVA-BRAZ, YELENA		1538319728	Clean Air Car Svc & Parking (NYC)	Livery/QN-Med Appt in CMMA	A0100		01/26/2018	01/26/2018	No	2	1		monzarine(daughter)	(929) 433-0432	9.4	01/26/2018	1045	19332 Foothill Ave	 main	Hollis	NY	11423	01/26/2018	1145	27005 76th Ave	  main	New Hyde Park	NY	11040	4.7	2 additinonal riders, ernl walks with a cane		No	137767134
2504293	2043	571521240	Leg	Shamima		Rahman	QT41827U	F	(929) 433-0432	08/09/1960	MAMEDOVA-BRAZ, YELENA		1538319728	Clean Air Car Svc & Parking (NYC)	Livery/QN-Med Appt in CMMA	A0100		01/26/2018	01/26/2018	No	2	1		monzarine(daughter)	(929) 433-0432	9.4	01/26/2018	Call	27005 76th Ave	 main	New Hyde Park	NY	11040	01/26/2018	Call	19332 Foothill Ave	  main	Hollis	NY	11423	4.7			No	137767135
2504293	2044	571522070	Leg	Shamima		Rahman	QT41827U	F	(929) 433-0432	08/09/1960	MAMEDOVA-BRAZ, YELENA		1538319728	Clean Air Car Svc & Parking (NYC)	Livery/QN-Med Appt out CMMA	A0100	TN	01/27/2018	01/27/2018	No	2	1		Monzarine(daughter)	(929) 433-0432	12.2	01/27/2018	0945	19332 Foothill Ave	 home	Hollis	NY	11423	01/27/2018	1045	3907 Prince St	8632804 	Flushing	NY	11354	6.1	, ernl walks with a cane,2 Additional Rider		No	137767159
2504293	2045	571522070	Leg	Shamima		Rahman	QT41827U	F	(929) 433-0432	08/09/1960	MAMEDOVA-BRAZ, YELENA		1538319728	Clean Air Car Svc & Parking (NYC)	Livery/QN-Med Appt out CMMA	A0100	TN	01/27/2018	01/27/2018	No	2	1		Monzarine(daughter)	(929) 433-0432	12.2	01/27/2018	Call	3907 Prince St	8632804 	Flushing	NY	11354	01/27/2018	Call	19332 Foothill Ave	  home	Hollis	NY	11423	6.1			No	137767160
2504293	2046	571522190	Leg	Shamima		Rahman	QT41827U	F	(929) 433-0432	08/09/1960	MAMEDOVA-BRAZ, YELENA		1538319728	Clean Air Car Svc & Parking (NYC)	Livery/QN-Med Appt out CMMA	A0100	TN	01/28/2018	01/28/2018	No	2	1		Monzarine(daughter)	(929) 433-0432	17.8	01/28/2018	0915	19332 Foothill Ave	 home	Hollis	NY	11423	01/28/2018	1015	4032 74th St	  main	Elmhurst	NY	11373	8.9	ernl walks with a cane,2, Additional Rider		No	137767184
2504293	2047	571522190	Leg	Shamima		Rahman	QT41827U	F	(929) 433-0432	08/09/1960	MAMEDOVA-BRAZ, YELENA		1538319728	Clean Air Car Svc & Parking (NYC)	Livery/QN-Med Appt out CMMA	A0100	TN	01/28/2018	01/28/2018	No	2	1		Monzarine(daughter)	(929) 433-0432	17.8	01/28/2018	Call	4032 74th St	 main	Elmhurst	NY	11373	01/28/2018	Call	19332 Foothill Ave	  home	Hollis	NY	11423	8.9			No	137767185
2504293	2048	571522190	Service	Shamima		Rahman	QT41827U	F	(929) 433-0432	08/09/1960	MAMEDOVA-BRAZ, YELENA		1538319728	Clean Air Car Svc & Parking (NYC)	Mileage-Livery in NYC	S0215		01/28/2018	01/28/2018	No	2	1																					Mileage-Livery in NYC	137767184
2504293	2049	571522190	Service	Shamima		Rahman	QT41827U	F	(929) 433-0432	08/09/1960	MAMEDOVA-BRAZ, YELENA		1538319728	Clean Air Car Svc & Parking (NYC)	Mileage-Livery in NYC	S0215		01/28/2018	01/28/2018	No	2	1																					Mileage-Livery in NYC	137767185
2504293	2050	571522270	Leg	Shamima		Rahman	QT41827U	F	(929) 433-0432	08/09/1960	MAMEDOVA-BRAZ, YELENA		1538319728	Clean Air Car Svc & Parking (NYC)	Livery/QN-Med Appt out CMMA	A0100	TN	01/29/2018	01/29/2018	No	2	1		Monzarine(daughter)	(929) 433-0432	12.2	01/29/2018	0900	19332 Foothill Ave	 home	Hollis	NY	11423	01/29/2018	1000	3907 Prince St	8632804 	Flushing	NY	11354	6.1	ernl walks with a cane, 2, Additional Rider		No	137767197
2504293	2051	571522270	Leg	Shamima		Rahman	QT41827U	F	(929) 433-0432	08/09/1960	MAMEDOVA-BRAZ, YELENA		1538319728	Clean Air Car Svc & Parking (NYC)	Livery/QN-Med Appt out CMMA	A0100	TN	01/29/2018	01/29/2018	No	2	1		Monzarine(daughter)	(929) 433-0432	12.2	01/29/2018	Call	3907 Prince St	8632804 	Flushing	NY	11354	01/29/2018	Call	19332 Foothill Ave	  home	Hollis	NY	11423	6.1			No	137767198
2504293	2052	571523000	Leg	Shamima		Rahman	QT41827U	F	(929) 433-0432	08/09/1960	MAMEDOVA-BRAZ, YELENA		1538319728	Clean Air Car Svc & Parking (NYC)	Livery/QN-Med Appt out CMMA	A0100	TN	01/30/2018	01/30/2018	No	2	1		Daugther	(929) 433-0432	17.8	01/30/2018	0915	19332 Foothill Ave	 Home	Hollis	NY	11423	01/30/2018	1015	4032 74th St	  main	Elmhurst	NY	11373	8.9	+2		No	137767337
2504293	2053	571523000	Leg	Shamima		Rahman	QT41827U	F	(929) 433-0432	08/09/1960	MAMEDOVA-BRAZ, YELENA		1538319728	Clean Air Car Svc & Parking (NYC)	Livery/QN-Med Appt out CMMA	A0100	TN	01/30/2018	01/30/2018	No	2	1		Daugther	(929) 433-0432	17.8	01/30/2018	Call	4032 74th St	 main	Elmhurst	NY	11373	01/30/2018	Call	19332 Foothill Ave	  Home	Hollis	NY	11423	8.9			No	137767338
2504293	2054	571523000	Service	Shamima		Rahman	QT41827U	F	(929) 433-0432	08/09/1960	MAMEDOVA-BRAZ, YELENA		1538319728	Clean Air Car Svc & Parking (NYC)	Mileage-Livery in NYC	S0215		01/30/2018	01/30/2018	No	2	1																					Mileage-Livery in NYC	137767337
2504293	2055	571523000	Service	Shamima		Rahman	QT41827U	F	(929) 433-0432	08/09/1960	MAMEDOVA-BRAZ, YELENA		1538319728	Clean Air Car Svc & Parking (NYC)	Mileage-Livery in NYC	S0215		01/30/2018	01/30/2018	No	2	1																					Mileage-Livery in NYC	137767338
2504293	2056	571523060	Leg	Shamima		Rahman	QT41827U	F	(929) 433-0432	08/09/1960	MAMEDOVA-BRAZ, YELENA		1538319728	Clean Air Car Svc & Parking (NYC)	Livery/QN-Med Appt out CMMA	A0100	TN	01/31/2018	01/31/2018	No	2	1		daugther	(929) 433-0432	31.6	01/31/2018	1045	19332 Foothill Ave	 home	Hollis	NY	11423	01/31/2018	1145	1470 Madison Ave	  main	New York	NY	10029	15.8	+2		No	137767347
2504293	2057	571523060	Leg	Shamima		Rahman	QT41827U	F	(929) 433-0432	08/09/1960	MAMEDOVA-BRAZ, YELENA		1538319728	Clean Air Car Svc & Parking (NYC)	Livery/QN-Med Appt out CMMA	A0100	TN	01/31/2018	01/31/2018	No	2	1		daugther	(929) 433-0432	31.6	01/31/2018	Call	1470 Madison Ave	 main	New York	NY	10029	01/31/2018	Call	19332 Foothill Ave	  home	Hollis	NY	11423	15.8			No	137767348
2504293	2058	571523060	Service	Shamima		Rahman	QT41827U	F	(929) 433-0432	08/09/1960	MAMEDOVA-BRAZ, YELENA		1538319728	Clean Air Car Svc & Parking (NYC)	Tolls-Universal	A0170	CG	01/31/2018	01/31/2018	No	2	1																					Tolls-Universal	137767347
2504293	2059	571523060	Service	Shamima		Rahman	QT41827U	F	(929) 433-0432	08/09/1960	MAMEDOVA-BRAZ, YELENA		1538319728	Clean Air Car Svc & Parking (NYC)	Livery-Manhattan Surcharge	A0100	SC	01/31/2018	01/31/2018	No	2	1																					Livery-Manhattan Surcharge	137767347
2504293	2060	571523060	Service	Shamima		Rahman	QT41827U	F	(929) 433-0432	08/09/1960	MAMEDOVA-BRAZ, YELENA		1538319728	Clean Air Car Svc & Parking (NYC)	Livery-Manhattan Surcharge	A0100	SC	01/31/2018	01/31/2018	No	2	1																					Livery-Manhattan Surcharge	137767348
2504293	2061	571523060	Service	Shamima		Rahman	QT41827U	F	(929) 433-0432	08/09/1960	MAMEDOVA-BRAZ, YELENA		1538319728	Clean Air Car Svc & Parking (NYC)	Mileage-Livery in NYC	S0215		01/31/2018	01/31/2018	No	2	1																					Mileage-Livery in NYC	137767347
2504293	2062	571523060	Service	Shamima		Rahman	QT41827U	F	(929) 433-0432	08/09/1960	MAMEDOVA-BRAZ, YELENA		1538319728	Clean Air Car Svc & Parking (NYC)	Mileage-Livery in NYC	S0215		01/31/2018	01/31/2018	No	2	1																					Mileage-Livery in NYC	137767348
2504293	2063	571528250	Leg	Shamima		Rahman	QT41827U	F	(929) 433-0432	08/09/1960	MAMEDOVA-BRAZ, YELENA		1538319728	Clean Air Car Svc & Parking (NYC)	Livery/QN-Med Appt out CMMA	A0100	TN	01/22/2018	01/22/2018	No	2	1		monzarine daughter	(929) 433-0432	12.2	01/22/2018	0900	19332 Foothill Ave	 home	Hollis	NY	11423	01/22/2018	1000	3907 Prince St	8632804 	Flushing	NY	11354	6.1	2 additional rider		No	137768645
2504293	2064	571528250	Leg	Shamima		Rahman	QT41827U	F	(929) 433-0432	08/09/1960	MAMEDOVA-BRAZ, YELENA		1538319728	Clean Air Car Svc & Parking (NYC)	Livery/QN-Med Appt out CMMA	A0100	TN	01/22/2018	01/22/2018	No	2	1		monzarine daughter	(929) 433-0432	12.2	01/22/2018	Call	3907 Prince St	8632804 	Flushing	NY	11354	01/22/2018	Call	19332 Foothill Ave	  home	Hollis	NY	11423	6.1			No	137768646
2504293	2065	571532790	Leg	Syed	M	Sufian	QT41837Q	M	(929) 433-0432	10/14/1958	Queens Hospital	000	1801803903	Clean Air Car Svc & Parking (NYC)	Livery/QN-Med Appt out CMMA	A0100	TN	01/22/2018	01/22/2018	No	2	1		monzarime, daughter	(929) 433-0432	31.6	01/22/2018	0900	19332 Foothill Ave	 home	Hollis	NY	11423	01/22/2018	1000	1470 Madison Ave	  main	New York	NY	10029	15.8	+2, Additional Rider		No	137769167
2504293	2066	571532790	Leg	Syed	M	Sufian	QT41837Q	M	(929) 433-0432	10/14/1958	Queens Hospital	000	1801803903	Clean Air Car Svc & Parking (NYC)	Livery/QN-Med Appt out CMMA	A0100	TN	01/22/2018	01/22/2018	No	2	1		monzarime, daughter	(929) 433-0432	31.6	01/22/2018	Call	1470 Madison Ave	 main	New York	NY	10029	01/22/2018	Call	19332 Foothill Ave	  home	Hollis	NY	11423	15.8			No	137769168
2504293	2067	571532790	Service	Syed	M	Sufian	QT41837Q	M	(929) 433-0432	10/14/1958	Queens Hospital	000	1801803903	Clean Air Car Svc & Parking (NYC)	Tolls-Universal	A0170	CG	01/22/2018	01/22/2018	No	2	1																					Tolls-Universal	137769167
2504293	2068	571532790	Service	Syed	M	Sufian	QT41837Q	M	(929) 433-0432	10/14/1958	Queens Hospital	000	1801803903	Clean Air Car Svc & Parking (NYC)	Livery-Manhattan Surcharge	A0100	SC	01/22/2018	01/22/2018	No	2	1																					Livery-Manhattan Surcharge	137769167
2504293	2069	571532790	Service	Syed	M	Sufian	QT41837Q	M	(929) 433-0432	10/14/1958	Queens Hospital	000	1801803903	Clean Air Car Svc & Parking (NYC)	Livery-Manhattan Surcharge	A0100	SC	01/22/2018	01/22/2018	No	2	1																					Livery-Manhattan Surcharge	137769168
2504293	2070	571532790	Service	Syed	M	Sufian	QT41837Q	M	(929) 433-0432	10/14/1958	Queens Hospital	000	1801803903	Clean Air Car Svc & Parking (NYC)	Mileage-Livery in NYC	S0215		01/22/2018	01/22/2018	No	2	1																					Mileage-Livery in NYC	137769167
2504293	2071	571532790	Service	Syed	M	Sufian	QT41837Q	M	(929) 433-0432	10/14/1958	Queens Hospital	000	1801803903	Clean Air Car Svc & Parking (NYC)	Mileage-Livery in NYC	S0215		01/22/2018	01/22/2018	No	2	1																					Mileage-Livery in NYC	137769168
2504293	2072	571532870	Leg	Syed	M	Sufian	QT41837Q	M	(929) 433-0432	10/14/1958	Queens Hospital	000	1801803903	Clean Air Car Svc & Parking (NYC)	Livery/QN-Med Appt out CMMA	A0100	TN	01/23/2018	01/23/2018	No	2	1		monzarime daughter	(929) 433-0432	8.6	01/23/2018	0830	19332 Foothill Ave	 home	Hollis	NY	11423	01/23/2018	0930	2705 76th ave	  main	New Hyde Park	NY	11040	4.3	+2, Additional Rider		No	137769188
2504293	2073	571532870	Leg	Syed	M	Sufian	QT41837Q	M	(929) 433-0432	10/14/1958	Queens Hospital	000	1801803903	Clean Air Car Svc & Parking (NYC)	Livery/QN-Med Appt out CMMA	A0100	TN	01/23/2018	01/23/2018	No	2	1		monzarime daughter	(929) 433-0432	8.6	01/23/2018	Call	2705 76th ave	 main	New Hyde Park	NY	11040	01/23/2018	Call	19332 Foothill Ave	  home	Hollis	NY	11423	4.3			No	137769189
2504293	2074	571532870	Service	Syed	M	Sufian	QT41837Q	M	(929) 433-0432	10/14/1958	Queens Hospital	000	1801803903	Clean Air Car Svc & Parking (NYC)	Tolls-Universal	A0170	CG	01/23/2018	01/23/2018	No	2	1																					Tolls-Universal	137769188
2504293	2075	571532870	Service	Syed	M	Sufian	QT41837Q	M	(929) 433-0432	10/14/1958	Queens Hospital	000	1801803903	Clean Air Car Svc & Parking (NYC)	Mileage-Livery out of NYC	S0215	TN	01/23/2018	01/23/2018	No	2	1																					Mileage-Livery out of NYC	137769188
2504293	2076	571532870	Service	Syed	M	Sufian	QT41837Q	M	(929) 433-0432	10/14/1958	Queens Hospital	000	1801803903	Clean Air Car Svc & Parking (NYC)	Mileage-Livery out of NYC	S0215	TN	01/23/2018	01/23/2018	No	2	1																					Mileage-Livery out of NYC	137769189
2504293	2077	571532980	Leg	Syed	M	Sufian	QT41837Q	M	(929) 433-0432	10/14/1958	Queens Hospital	000	1801803903	Clean Air Car Svc & Parking (NYC)	Livery/QN-Med Appt out CMMA	A0100	TN	01/24/2018	01/24/2018	No	2	1		monzarime , daughter	(929) 433-0432	17.8	01/24/2018	0930	19332 Foothill Ave	 home	Hollis	NY	11423	01/24/2018	1030	4032 74th St	  main	Elmhurst	NY	11373	8.9	+2, Additional Rider		No	137769206
2504293	2078	571532980	Leg	Syed	M	Sufian	QT41837Q	M	(929) 433-0432	10/14/1958	Queens Hospital	000	1801803903	Clean Air Car Svc & Parking (NYC)	Livery/QN-Med Appt out CMMA	A0100	TN	01/24/2018	01/24/2018	No	2	1		monzarime , daughter	(929) 433-0432	17.8	01/24/2018	Call	4032 74th St	 main	Elmhurst	NY	11373	01/24/2018	Call	19332 Foothill Ave	  home	Hollis	NY	11423	8.9			No	137769207
2504293	2079	571532980	Service	Syed	M	Sufian	QT41837Q	M	(929) 433-0432	10/14/1958	Queens Hospital	000	1801803903	Clean Air Car Svc & Parking (NYC)	Mileage-Livery in NYC	S0215		01/24/2018	01/24/2018	No	2	1																					Mileage-Livery in NYC	137769206
2504293	2080	571532980	Service	Syed	M	Sufian	QT41837Q	M	(929) 433-0432	10/14/1958	Queens Hospital	000	1801803903	Clean Air Car Svc & Parking (NYC)	Mileage-Livery in NYC	S0215		01/24/2018	01/24/2018	No	2	1																					Mileage-Livery in NYC	137769207
2504293	2081	571533340	Leg	Syed	M	Sufian	QT41837Q	M	(929) 433-0432	10/14/1958	Queens Hospital	000	1801803903	Clean Air Car Svc & Parking (NYC)	Livery/QN-Med Appt out CMMA	A0100	TN	01/25/2018	01/25/2018	No	2	1		monzaine/daughter	(929) 433-0432	28.6	01/25/2018	1000	19332 Foothill Ave	 home	Hollis	NY	11423	01/25/2018	1100	462 1st Ave	  main	New York	NY	10016	14.3	plus2 , Additional Rider		No	137769276
2504293	2082	571533340	Leg	Syed	M	Sufian	QT41837Q	M	(929) 433-0432	10/14/1958	Queens Hospital	000	1801803903	Clean Air Car Svc & Parking (NYC)	Livery/QN-Med Appt out CMMA	A0100	TN	01/25/2018	01/25/2018	No	2	1		monzaine/daughter	(929) 433-0432	28.6	01/25/2018	Call	462 1st Ave	 main	New York	NY	10016	01/25/2018	Call	19332 Foothill Ave	  home	Hollis	NY	11423	14.3			No	137769277
2504293	2083	571533340	Service	Syed	M	Sufian	QT41837Q	M	(929) 433-0432	10/14/1958	Queens Hospital	000	1801803903	Clean Air Car Svc & Parking (NYC)	Tolls-Universal	A0170	CG	01/25/2018	01/25/2018	No	2	1																					Tolls-Universal	137769276
2504293	2084	571533340	Service	Syed	M	Sufian	QT41837Q	M	(929) 433-0432	10/14/1958	Queens Hospital	000	1801803903	Clean Air Car Svc & Parking (NYC)	Livery-Manhattan Surcharge	A0100	SC	01/25/2018	01/25/2018	No	2	1																					Livery-Manhattan Surcharge	137769276
2504293	2085	571533340	Service	Syed	M	Sufian	QT41837Q	M	(929) 433-0432	10/14/1958	Queens Hospital	000	1801803903	Clean Air Car Svc & Parking (NYC)	Livery-Manhattan Surcharge	A0100	SC	01/25/2018	01/25/2018	No	2	1																					Livery-Manhattan Surcharge	137769277
2504293	2086	571533340	Service	Syed	M	Sufian	QT41837Q	M	(929) 433-0432	10/14/1958	Queens Hospital	000	1801803903	Clean Air Car Svc & Parking (NYC)	Mileage-Livery in NYC	S0215		01/25/2018	01/25/2018	No	2	1																					Mileage-Livery in NYC	137769276
2504293	2087	571533340	Service	Syed	M	Sufian	QT41837Q	M	(929) 433-0432	10/14/1958	Queens Hospital	000	1801803903	Clean Air Car Svc & Parking (NYC)	Mileage-Livery in NYC	S0215		01/25/2018	01/25/2018	No	2	1																					Mileage-Livery in NYC	137769277
2504293	2088	571533410	Leg	Syed	M	Sufian	QT41837Q	M	(929) 433-0432	10/14/1958	Queens Hospital	000	1801803903	Clean Air Car Svc & Parking (NYC)	Livery/QN-Med Appt out CMMA	A0100	TN	01/26/2018	01/26/2018	No	2	1		monzarine/daughter	(929) 433-0432	12.8	01/26/2018	1000	19332 Foothill Ave	 home	Hollis	NY	11423	01/26/2018	1100	9520 63rd Rd	8639517 	Rego Park	NY	11374	6.4	plus2, Additional Rider		No	137769289
2504293	2089	571533410	Leg	Syed	M	Sufian	QT41837Q	M	(929) 433-0432	10/14/1958	Queens Hospital	000	1801803903	Clean Air Car Svc & Parking (NYC)	Livery/QN-Med Appt out CMMA	A0100	TN	01/26/2018	01/26/2018	No	2	1		monzarine/daughter	(929) 433-0432	12.8	01/26/2018	Call	9520 63rd Rd	8639517 	Rego Park	NY	11374	01/26/2018	Call	19332 Foothill Ave	  home	Hollis	NY	11423	6.4			No	137769290
2504293	2090	571533440	Leg	Syed	M	Sufian	QT41837Q	M	(929) 433-0432	10/14/1958	Queens Hospital	000	1801803903	Clean Air Car Svc & Parking (NYC)	Livery/QN-Med Appt out CMMA	A0100	TN	01/27/2018	01/27/2018	No	2	1		daughter	(929) 433-0432	12.2	01/27/2018	0945	19332 Foothill Ave	 home	Hollis	NY	11423	01/27/2018	1045	3907 Prince St	8632804 	Flushing	NY	11354	6.1	plus2, Additional Rider		No	137769297
2504293	2091	571533440	Leg	Syed	M	Sufian	QT41837Q	M	(929) 433-0432	10/14/1958	Queens Hospital	000	1801803903	Clean Air Car Svc & Parking (NYC)	Livery/QN-Med Appt out CMMA	A0100	TN	01/27/2018	01/27/2018	No	2	1		daughter	(929) 433-0432	12.2	01/27/2018	Call	3907 Prince St	8632804 	Flushing	NY	11354	01/27/2018	Call	19332 Foothill Ave	  home	Hollis	NY	11423	6.1			No	137769298
2504293	2092	571533470	Leg	Syed	M	Sufian	QT41837Q	M	(929) 433-0432	10/14/1958	Queens Hospital	000	1801803903	Clean Air Car Svc & Parking (NYC)	Livery/QN-Med Appt out CMMA	A0100	TN	01/28/2018	01/28/2018	No	2	1		daughter	(929) 433-0432	12.2	01/28/2018	1015	19332 Foothill Ave	 home	Hollis	NY	11423	01/28/2018	1115	3907 Prince St	8632804 	Flushing	NY	11354	6.1	plus2, Additional Rider		No	137769577
2504293	2093	571533470	Leg	Syed	M	Sufian	QT41837Q	M	(929) 433-0432	10/14/1958	Queens Hospital	000	1801803903	Clean Air Car Svc & Parking (NYC)	Livery/QN-Med Appt out CMMA	A0100	TN	01/28/2018	01/28/2018	No	2	1		daughter	(929) 433-0432	12.2	01/28/2018	Call	3907 Prince St	8632804 	Flushing	NY	11354	01/28/2018	Call	19332 Foothill Ave	  home	Hollis	NY	11423	6.1			No	137769578
2504293	2094	571536350	Leg	Syed	M	Sufian	QT41837Q	M	9294330432	10/14/1958	Queens Hospital	000	1801803903	Clean Air Car Svc & Parking (NYC)	Livery/QN-Med Appt out CMMA	A0100	TN	01/29/2018	01/29/2018	No	2	1		daughters-monzaryoe	9294330432	17.8	01/29/2018	0900	19332 Foothill Ave	 	Hollis	NY	11423	01/29/2018	1000	4032 74th St	  	Elmhurst	NY	11373	8.9	2 Additional pass		No	137769897
2504293	2095	571536350	Leg	Syed	M	Sufian	QT41837Q	M	9294330432	10/14/1958	Queens Hospital	000	1801803903	Clean Air Car Svc & Parking (NYC)	Livery/QN-Med Appt out CMMA	A0100	TN	01/29/2018	01/29/2018	No	2	1		daughters-monzaryoe	9294330432	17.8	01/29/2018	CALL	4032 74th St	 	Elmhurst	NY	11373	01/29/2018	CALL	19332 Foothill Ave	  	Hollis	NY	11423	8.9			No	137769898
2504293	2096	571536350	Service	Syed	M	Sufian	QT41837Q	M	9294330432	10/14/1958	Queens Hospital	000	1801803903	Clean Air Car Svc & Parking (NYC)	Mileage-Livery in NYC	S0215		01/29/2018	01/29/2018	No	2	1																					Mileage-Livery in NYC	137769897
2504293	2097	571536350	Service	Syed	M	Sufian	QT41837Q	M	9294330432	10/14/1958	Queens Hospital	000	1801803903	Clean Air Car Svc & Parking (NYC)	Mileage-Livery in NYC	S0215		01/29/2018	01/29/2018	No	2	1																					Mileage-Livery in NYC	137769898
2504293	2098	571536430	Leg	Syed	M	Sufian	QT41837Q	M	9294330432	10/14/1958	Queens Hospital	000	1801803903	Clean Air Car Svc & Parking (NYC)	Livery/QN-Med Appt out CMMA	A0100	TN	01/30/2018	01/30/2018	No	2	1		daughters-monzaryoe	9294330432	31.6	01/30/2018	0915	19332 Foothill Ave	 	Hollis	NY	11423	01/30/2018	1015	1470 Madison Ave	  	New York	NY	10029	15.8	2 Additional pass		No	137769909
2504293	2099	571536430	Leg	Syed	M	Sufian	QT41837Q	M	9294330432	10/14/1958	Queens Hospital	000	1801803903	Clean Air Car Svc & Parking (NYC)	Livery/QN-Med Appt out CMMA	A0100	TN	01/30/2018	01/30/2018	No	2	1		daughters-monzaryoe	9294330432	31.6	01/30/2018	CALL	1470 Madison Ave	 	New York	NY	10029	01/30/2018	CALL	19332 Foothill Ave	  	Hollis	NY	11423	15.8			No	137769910
2504293	2100	571536430	Service	Syed	M	Sufian	QT41837Q	M	9294330432	10/14/1958	Queens Hospital	000	1801803903	Clean Air Car Svc & Parking (NYC)	Tolls-Universal	A0170	CG	01/30/2018	01/30/2018	No	2	1																					Tolls-Universal	137769909
2504293	2101	571536430	Service	Syed	M	Sufian	QT41837Q	M	9294330432	10/14/1958	Queens Hospital	000	1801803903	Clean Air Car Svc & Parking (NYC)	Livery-Manhattan Surcharge	A0100	SC	01/30/2018	01/30/2018	No	2	1																					Livery-Manhattan Surcharge	137769909
2504293	2102	571536430	Service	Syed	M	Sufian	QT41837Q	M	9294330432	10/14/1958	Queens Hospital	000	1801803903	Clean Air Car Svc & Parking (NYC)	Livery-Manhattan Surcharge	A0100	SC	01/30/2018	01/30/2018	No	2	1																					Livery-Manhattan Surcharge	137769910
2504293	2103	571536430	Service	Syed	M	Sufian	QT41837Q	M	9294330432	10/14/1958	Queens Hospital	000	1801803903	Clean Air Car Svc & Parking (NYC)	Mileage-Livery in NYC	S0215		01/30/2018	01/30/2018	No	2	1																					Mileage-Livery in NYC	137769909
2504293	2104	571536430	Service	Syed	M	Sufian	QT41837Q	M	9294330432	10/14/1958	Queens Hospital	000	1801803903	Clean Air Car Svc & Parking (NYC)	Mileage-Livery in NYC	S0215		01/30/2018	01/30/2018	No	2	1																					Mileage-Livery in NYC	137769910
2504293	2105	571536470	Leg	Syed	M	Sufian	QT41837Q	M	9294330432	10/14/1958	Queens Hospital	000	1801803903	Clean Air Car Svc & Parking (NYC)	Livery/QN-Med Appt out CMMA	A0100	TN	01/31/2018	01/31/2018	No	2	1		daughters-monzaryoe	9294330432	27.4	01/31/2018	0930	19332 Foothill Ave	 	Hollis	NY	11423	01/31/2018	1030	2020 Cortelyou Rd	  	Brooklyn	NY	11226	13.7	2 Additional pass		No	137770124
2504293	2106	571536470	Leg	Syed	M	Sufian	QT41837Q	M	9294330432	10/14/1958	Queens Hospital	000	1801803903	Clean Air Car Svc & Parking (NYC)	Livery/QN-Med Appt out CMMA	A0100	TN	01/31/2018	01/31/2018	No	2	1		daughters-monzaryoe	9294330432	27.4	01/31/2018	CALL	2020 Cortelyou Rd	 	Brooklyn	NY	11226	01/31/2018	CALL	19332 Foothill Ave	  	Hollis	NY	11423	13.7			No	137770125
2504293	2107	571536470	Service	Syed	M	Sufian	QT41837Q	M	9294330432	10/14/1958	Queens Hospital	000	1801803903	Clean Air Car Svc & Parking (NYC)	Tolls-Universal	A0170	CG	01/31/2018	01/31/2018	No	2	1																					Tolls-Universal	137770124
2504293	2108	571536470	Service	Syed	M	Sufian	QT41837Q	M	9294330432	10/14/1958	Queens Hospital	000	1801803903	Clean Air Car Svc & Parking (NYC)	Mileage-Livery in NYC	S0215		01/31/2018	01/31/2018	No	2	1																					Mileage-Livery in NYC	137770124
2504293	2109	571536470	Service	Syed	M	Sufian	QT41837Q	M	9294330432	10/14/1958	Queens Hospital	000	1801803903	Clean Air Car Svc & Parking (NYC)	Mileage-Livery in NYC	S0215		01/31/2018	01/31/2018	No	2	1																					Mileage-Livery in NYC	137770125
2504293	2110	571565720	Leg	Anita		Narine	NC09839N	F	(347) 595-1081	05/24/1966	Pham,Shirley		1245559889	Clean Air Car Svc & Parking (NYC)	Livery/QN-Med Appt in CMMA	A0100		01/22/2018	01/22/2018	No	2	1		self	(347) 595-1081	6.8	01/22/2018	0800	11017 101st Ave	 home	South Richmond Hill	NY	11419	01/22/2018	0900	9610 Metropolitan Ave	8626088 	Forest Hills	NY	11375	3.4			No	137775568
2504293	2111	571565720	Leg	Anita		Narine	NC09839N	F	(347) 595-1081	05/24/1966	Pham,Shirley		1245559889	Clean Air Car Svc & Parking (NYC)	Livery/QN-Med Appt in CMMA	A0100		01/22/2018	01/22/2018	No	2	1		self	(347) 595-1081	6.8	01/22/2018	Call	9610 Metropolitan Ave	8626088 	Forest Hills	NY	11375	01/22/2018	Call	11017 101st Ave	  home	South Richmond Hill	NY	11419	3.4			No	137775569
2504293	2112	571565850	Leg	Anita		Narine	NC09839N	F	(347) 595-1081	05/24/1966	Pham,Shirley		1245559889	Clean Air Car Svc & Parking (NYC)	Livery/QN-Med Appt in CMMA	A0100		01/23/2018	01/23/2018	No	2	1		self	(347) 595-1081	6.8	01/23/2018	0800	11017 101st Ave	 home	South Richmond Hill	NY	11419	01/23/2018	0900	9610 Metropolitan Ave	8626088 	Forest Hills	NY	11375	3.4			No	137775825
2504293	2113	571565850	Leg	Anita		Narine	NC09839N	F	(347) 595-1081	05/24/1966	Pham,Shirley		1245559889	Clean Air Car Svc & Parking (NYC)	Livery/QN-Med Appt in CMMA	A0100		01/23/2018	01/23/2018	No	2	1		self	(347) 595-1081	6.8	01/23/2018	Call	9610 Metropolitan Ave	8626088 	Forest Hills	NY	11375	01/23/2018	Call	11017 101st Ave	  home	South Richmond Hill	NY	11419	3.4			No	137775826
2504293	2114	571581480	Leg	Mohammed	M	Sufian	QT41817Y	M	9294330432	08/29/1989	Queens Hospital	000	1801803903	Clean Air Car Svc & Parking (NYC)	Livery/QN-Med Appt out CMMA	A0100	TN	01/22/2018	01/22/2018	No	2	1		self	9294330432	31.6	01/22/2018	0815	19332 Foothill Ave	 	Hollis	NY	11423	01/22/2018	0915	1470 Madison Ave	  	New York	NY	10029	15.8	2 additional rider		No	137779558
2504293	2115	571581480	Leg	Mohammed	M	Sufian	QT41817Y	M	9294330432	08/29/1989	Queens Hospital	000	1801803903	Clean Air Car Svc & Parking (NYC)	Livery/QN-Med Appt out CMMA	A0100	TN	01/22/2018	01/22/2018	No	2	1		self	9294330432	31.6	01/22/2018	CALL	1470 Madison Ave	 	New York	NY	10029	01/22/2018	CALL	19332 Foothill Ave	  	Hollis	NY	11423	15.8			No	137779559
2504293	2116	571581480	Service	Mohammed	M	Sufian	QT41817Y	M	9294330432	08/29/1989	Queens Hospital	000	1801803903	Clean Air Car Svc & Parking (NYC)	Tolls-Universal	A0170	CG	01/22/2018	01/22/2018	No	2	1																					Tolls-Universal	137779558
2504293	2117	571581480	Service	Mohammed	M	Sufian	QT41817Y	M	9294330432	08/29/1989	Queens Hospital	000	1801803903	Clean Air Car Svc & Parking (NYC)	Livery-Manhattan Surcharge	A0100	SC	01/22/2018	01/22/2018	No	2	1																					Livery-Manhattan Surcharge	137779558
2504293	2118	571581480	Service	Mohammed	M	Sufian	QT41817Y	M	9294330432	08/29/1989	Queens Hospital	000	1801803903	Clean Air Car Svc & Parking (NYC)	Livery-Manhattan Surcharge	A0100	SC	01/22/2018	01/22/2018	No	2	1																					Livery-Manhattan Surcharge	137779559
2504293	2119	571581480	Service	Mohammed	M	Sufian	QT41817Y	M	9294330432	08/29/1989	Queens Hospital	000	1801803903	Clean Air Car Svc & Parking (NYC)	Mileage-Livery in NYC	S0215		01/22/2018	01/22/2018	No	2	1																					Mileage-Livery in NYC	137779558
2504293	2120	571581480	Service	Mohammed	M	Sufian	QT41817Y	M	9294330432	08/29/1989	Queens Hospital	000	1801803903	Clean Air Car Svc & Parking (NYC)	Mileage-Livery in NYC	S0215		01/22/2018	01/22/2018	No	2	1																					Mileage-Livery in NYC	137779559
2504293	2121	571581740	Leg	Mohammed	M	Sufian	QT41817Y	M	9294330432	08/29/1989	Queens Hospital	000	1801803903	Clean Air Car Svc & Parking (NYC)	Livery/QN-Med Appt out CMMA	A0100	TN	01/23/2018	01/23/2018	No	2	1		self	9294330432	28.6	01/23/2018	1045	19332 Foothill Ave	 	Hollis	NY	11423	01/23/2018	1145	462 1st Ave	  	New York	NY	10016	14.3	2 additional rider		No	137779857
2504293	2122	571581740	Leg	Mohammed	M	Sufian	QT41817Y	M	9294330432	08/29/1989	Queens Hospital	000	1801803903	Clean Air Car Svc & Parking (NYC)	Livery/QN-Med Appt out CMMA	A0100	TN	01/23/2018	01/23/2018	No	2	1		self	9294330432	28.6	01/23/2018	CALL	462 1st Ave	 	New York	NY	10016	01/23/2018	CALL	19332 Foothill Ave	  	Hollis	NY	11423	14.3			No	137779858
2504293	2123	571581740	Service	Mohammed	M	Sufian	QT41817Y	M	9294330432	08/29/1989	Queens Hospital	000	1801803903	Clean Air Car Svc & Parking (NYC)	Tolls-Universal	A0170	CG	01/23/2018	01/23/2018	No	2	1																					Tolls-Universal	137779857
2504293	2124	571581740	Service	Mohammed	M	Sufian	QT41817Y	M	9294330432	08/29/1989	Queens Hospital	000	1801803903	Clean Air Car Svc & Parking (NYC)	Livery-Manhattan Surcharge	A0100	SC	01/23/2018	01/23/2018	No	2	1																					Livery-Manhattan Surcharge	137779857
2504293	2125	571581740	Service	Mohammed	M	Sufian	QT41817Y	M	9294330432	08/29/1989	Queens Hospital	000	1801803903	Clean Air Car Svc & Parking (NYC)	Livery-Manhattan Surcharge	A0100	SC	01/23/2018	01/23/2018	No	2	1																					Livery-Manhattan Surcharge	137779858
2504293	2126	571581740	Service	Mohammed	M	Sufian	QT41817Y	M	9294330432	08/29/1989	Queens Hospital	000	1801803903	Clean Air Car Svc & Parking (NYC)	Mileage-Livery in NYC	S0215		01/23/2018	01/23/2018	No	2	1																					Mileage-Livery in NYC	137779857
2504293	2127	571581740	Service	Mohammed	M	Sufian	QT41817Y	M	9294330432	08/29/1989	Queens Hospital	000	1801803903	Clean Air Car Svc & Parking (NYC)	Mileage-Livery in NYC	S0215		01/23/2018	01/23/2018	No	2	1																					Mileage-Livery in NYC	137779858
2504293	2128	571582290	Leg	Mohammed	M	Sufian	QT41817Y	M	9294330432	08/29/1989	Queens Hospital	000	1801803903	Clean Air Car Svc & Parking (NYC)	Livery/QN-Med Appt out CMMA	A0100	TN	01/24/2018	01/24/2018	No	2	1		self	9294330432	12.2	01/24/2018	0800	19332 Foothill Ave	 	Hollis	NY	11423	01/24/2018	0900	3907 Prince St	  	Flushing	NY	11354	6.1	2 additional rider		No	137779882
2504293	2129	571582290	Leg	Mohammed	M	Sufian	QT41817Y	M	9294330432	08/29/1989	Queens Hospital	000	1801803903	Clean Air Car Svc & Parking (NYC)	Livery/QN-Med Appt out CMMA	A0100	TN	01/24/2018	01/24/2018	No	2	1		self	9294330432	12.2	01/24/2018	CALL	3907 Prince St	 	Flushing	NY	11354	01/24/2018	CALL	19332 Foothill Ave	  	Hollis	NY	11423	6.1			No	137779883
2504293	2130	571586860	Leg	Mohammed	M	Sufian	QT41817Y	M	9294330432	08/29/1989	Queens Hospital	000	1801803903	Clean Air Car Svc & Parking (NYC)	Livery/QN-Med Appt out CMMA	A0100	TN	01/25/2018	01/25/2018	No	2	1		self	9294330432	17.8	01/25/2018	0945	19332 Foothill Ave	 	Hollis	NY	11423	01/25/2018	1045	4032 74th St	  	Elmhurst	NY	11373	8.9	2 add ridders		No	137780622
2504293	2131	571586860	Leg	Mohammed	M	Sufian	QT41817Y	M	9294330432	08/29/1989	Queens Hospital	000	1801803903	Clean Air Car Svc & Parking (NYC)	Livery/QN-Med Appt out CMMA	A0100	TN	01/25/2018	01/25/2018	No	2	1		self	9294330432	17.8	01/25/2018	CALL	4032 74th St	 	Elmhurst	NY	11373	01/25/2018	CALL	19332 Foothill Ave	  	Hollis	NY	11423	8.9			No	137780623
2504293	2132	571586860	Service	Mohammed	M	Sufian	QT41817Y	M	9294330432	08/29/1989	Queens Hospital	000	1801803903	Clean Air Car Svc & Parking (NYC)	Mileage-Livery in NYC	S0215		01/25/2018	01/25/2018	No	2	1																					Mileage-Livery in NYC	137780622
2504293	2133	571586860	Service	Mohammed	M	Sufian	QT41817Y	M	9294330432	08/29/1989	Queens Hospital	000	1801803903	Clean Air Car Svc & Parking (NYC)	Mileage-Livery in NYC	S0215		01/25/2018	01/25/2018	No	2	1																					Mileage-Livery in NYC	137780623
2504293	2134	571587460	Leg	Mohammed	M	Sufian	QT41817Y	M	9294330432	08/29/1989	Queens Hospital	000	1801803903	Clean Air Car Svc & Parking (NYC)	Livery/QN-Med Appt out CMMA	A0100	TN	01/26/2018	01/26/2018	No	2	1		self	9294330432	17.8	01/26/2018	0915	19332 Foothill Ave	 	Hollis	NY	11423	01/26/2018	1015	4141 51st St	  	Woodside	NY	11377	8.9	2 add ridder		No	137780651
2504293	2135	571587460	Leg	Mohammed	M	Sufian	QT41817Y	M	9294330432	08/29/1989	Queens Hospital	000	1801803903	Clean Air Car Svc & Parking (NYC)	Livery/QN-Med Appt out CMMA	A0100	TN	01/26/2018	01/26/2018	No	2	1		self	9294330432	17.8	01/26/2018	CALL	4141 51st St	 	Woodside	NY	11377	01/26/2018	CALL	19332 Foothill Ave	  	Hollis	NY	11423	8.9			No	137780652
2504293	2136	571587460	Service	Mohammed	M	Sufian	QT41817Y	M	9294330432	08/29/1989	Queens Hospital	000	1801803903	Clean Air Car Svc & Parking (NYC)	Mileage-Livery in NYC	S0215		01/26/2018	01/26/2018	No	2	1																					Mileage-Livery in NYC	137780651
2504293	2137	571587460	Service	Mohammed	M	Sufian	QT41817Y	M	9294330432	08/29/1989	Queens Hospital	000	1801803903	Clean Air Car Svc & Parking (NYC)	Mileage-Livery in NYC	S0215		01/26/2018	01/26/2018	No	2	1																					Mileage-Livery in NYC	137780652
2504293	2138	571588370	Leg	Mohammed	M	Sufian	QT41817Y	M	(929) 433-0432	08/29/1989	MASON, BENJAMIN		1356390488	Clean Air Car Svc & Parking (NYC)	Livery/QN-Med Appt out CMMA	A0100	TN	01/27/2018	01/27/2018	No	2	1		Sister	(929) 433-0432	12.2	01/27/2018	0900	19332 Foothill Ave	 -	Hollis	NY	11423	01/27/2018	1000	3907 Prince St	8632804 	Flushing	NY	11354	6.1	+2, Additional Rider		No	137780836
2504293	2139	571588370	Leg	Mohammed	M	Sufian	QT41817Y	M	(929) 433-0432	08/29/1989	MASON, BENJAMIN		1356390488	Clean Air Car Svc & Parking (NYC)	Livery/QN-Med Appt out CMMA	A0100	TN	01/27/2018	01/27/2018	No	2	1		Sister	(929) 433-0432	12.2	01/27/2018	Call	3907 Prince St	8632804 	Flushing	NY	11354	01/27/2018	Call	19332 Foothill Ave	  -	Hollis	NY	11423	6.1			No	137780837
2504293	2140	571588410	Leg	Mohammed	M	Sufian	QT41817Y	M	(929) 433-0432	08/29/1989	MASON, BENJAMIN		1356390488	Clean Air Car Svc & Parking (NYC)	Livery/QN-Med Appt out CMMA	A0100	TN	01/28/2018	01/28/2018	No	2	1		Sister	(929) 433-0432	12.2	01/28/2018	0900	19332 Foothill Ave	 -	Hollis	NY	11423	01/28/2018	1000	3907 Prince St	8632804 	Flushing	NY	11354	6.1	+2, Additional Rider		No	137780850
2504293	2141	571588410	Leg	Mohammed	M	Sufian	QT41817Y	M	(929) 433-0432	08/29/1989	MASON, BENJAMIN		1356390488	Clean Air Car Svc & Parking (NYC)	Livery/QN-Med Appt out CMMA	A0100	TN	01/28/2018	01/28/2018	No	2	1		Sister	(929) 433-0432	12.2	01/28/2018	Call	3907 Prince St	8632804 	Flushing	NY	11354	01/28/2018	Call	19332 Foothill Ave	  -	Hollis	NY	11423	6.1			No	137780851
2504293	2142	571590030	Leg	Mohammed	M	Sufian	QT41817Y	M	(929) 433-0432	08/29/1989	MASON, BENJAMIN		1356390488	Clean Air Car Svc & Parking (NYC)	Livery/QN-Med Appt in CMMA	A0100		01/29/2018	01/29/2018	No	2	1		Monzare/sister	(929) 433-0432	9.4	01/29/2018	0930	19332 Foothill Ave	 	Hollis	NY	11423	01/29/2018	1030	27005 76th Ave	  	New Hyde Park	NY	11040	4.7			No	137781358
2504293	2143	571590030	Leg	Mohammed	M	Sufian	QT41817Y	M	(929) 433-0432	08/29/1989	MASON, BENJAMIN		1356390488	Clean Air Car Svc & Parking (NYC)	Livery/QN-Med Appt in CMMA	A0100		01/29/2018	01/29/2018	No	2	1		Monzare/sister	(929) 433-0432	9.4	01/29/2018	Call	27005 76th Ave	 	New Hyde Park	NY	11040	01/29/2018	Call	19332 Foothill Ave	  	Hollis	NY	11423	4.7			No	137781363
2504293	2144	571590140	Leg	Mohammed	M	Sufian	QT41817Y	M	(929) 433-0432	08/29/1989	MASON, BENJAMIN		1356390488	Clean Air Car Svc & Parking (NYC)	Livery/QN-Med Appt out CMMA	A0100	TN	01/30/2018	01/30/2018	No	2	1		Monzare/sister	(929) 433-0432	28.6	01/30/2018	1000	19332 Foothill Ave	 	Hollis	NY	11423	01/30/2018	1100	462 1st Ave	  	New York	NY	10016	14.3	plus 2		No	137781512
2504293	2145	571590140	Leg	Mohammed	M	Sufian	QT41817Y	M	(929) 433-0432	08/29/1989	MASON, BENJAMIN		1356390488	Clean Air Car Svc & Parking (NYC)	Livery/QN-Med Appt out CMMA	A0100	TN	01/30/2018	01/30/2018	No	2	1		Monzare/sister	(929) 433-0432	28.6	01/30/2018	Call	462 1st Ave	 	New York	NY	10016	01/30/2018	Call	19332 Foothill Ave	  	Hollis	NY	11423	14.3			No	141013076
2504293	2146	571590140	Service	Mohammed	M	Sufian	QT41817Y	M	(929) 433-0432	08/29/1989	MASON, BENJAMIN		1356390488	Clean Air Car Svc & Parking (NYC)	Mileage-Livery in NYC	S0215		01/30/2018	01/30/2018	No	2	1																					Mileage-Livery in NYC	137781512
2504293	2147	571590140	Service	Mohammed	M	Sufian	QT41817Y	M	(929) 433-0432	08/29/1989	MASON, BENJAMIN		1356390488	Clean Air Car Svc & Parking (NYC)	Tolls-Universal	A0170	CG	01/30/2018	01/30/2018	No	2	1																					Tolls-Universal	137781512
2504293	2148	571590140	Service	Mohammed	M	Sufian	QT41817Y	M	(929) 433-0432	08/29/1989	MASON, BENJAMIN		1356390488	Clean Air Car Svc & Parking (NYC)	Livery-Manhattan Surcharge	A0100	SC	01/30/2018	01/30/2018	No	2	1																					Livery-Manhattan Surcharge	137781512
2504293	2149	571590140	Service	Mohammed	M	Sufian	QT41817Y	M	(929) 433-0432	08/29/1989	MASON, BENJAMIN		1356390488	Clean Air Car Svc & Parking (NYC)	Mileage-Livery in NYC	S0215		01/30/2018	01/30/2018	No	2	1																					Mileage-Livery in NYC	141013076
2504293	2150	571590140	Service	Mohammed	M	Sufian	QT41817Y	M	(929) 433-0432	08/29/1989	MASON, BENJAMIN		1356390488	Clean Air Car Svc & Parking (NYC)	Livery-Manhattan Surcharge	A0100	SC	01/30/2018	01/30/2018	No	2	1																					Livery-Manhattan Surcharge	141013076
2504293	2151	571672810	Leg	Sharon		Caffey	XQ37608H	F	7183013775	09/04/1964	Bradnock Howard		1225002751	Clean Air Car Svc & Parking (NYC)	Livery/QN-Med Appt out CMMA	A0100	TN	01/22/2018	01/22/2018	No	4	1		self	7183013775	37.4	01/22/2018	0730	3441 Linden Pl	 	Flushing	NY	11354	01/22/2018	0830	8714 5th ave	  	New York	NY	10022	9.3			No	137802790
2504293	2152	571672810	Leg	Sharon		Caffey	XQ37608H	F	7183013775	09/04/1964	Bradnock Howard		1225002751	Clean Air Car Svc & Parking (NYC)	Livery/QN-Med Appt out CMMA	A0100	TN	01/22/2018	01/22/2018	No	4	1		self	7183013775	37.4	01/22/2018	CALL	8714 5th ave	 	New York	NY	10022	01/22/2018	CALL	3441 Linden Pl	  	Flushing	NY	11354	9.3			No	137802791
2504293	2153	571672810	Leg	Sharon		Caffey	XQ37608H	F	7183013775	09/04/1964	Bradnock Howard		1225002751	Clean Air Car Svc & Parking (NYC)	Livery/QN-Med Appt out CMMA	A0100	TN	01/22/2018	01/22/2018	No	4	1		self	7183013775	37.4	01/22/2018	1430	3441 Linden Pl	Apt 2B 	Flushing	NY	11354	01/22/2018	1530	1305 York Ave	  	New York	NY	10021	9.4			No	137806467
2504293	2154	571672810	Leg	Sharon		Caffey	XQ37608H	F	7183013775	09/04/1964	Bradnock Howard		1225002751	Clean Air Car Svc & Parking (NYC)	Livery/QN-Med Appt out CMMA	A0100	TN	01/22/2018	01/22/2018	No	4	1		self	7183013775	37.4	01/22/2018	Call	1305 York Ave	 	New York	NY	10021	01/22/2018	Call	3441 Linden Pl	Apt 2B 	Flushing	NY	11354	9.4			No	137806468
2504293	2155	571672810	Service	Sharon		Caffey	XQ37608H	F	7183013775	09/04/1964	Bradnock Howard		1225002751	Clean Air Car Svc & Parking (NYC)	Tolls-Universal	A0170	CG	01/22/2018	01/22/2018	No	4	1																					Tolls-Universal	137802790
2504293	2156	571672810	Service	Sharon		Caffey	XQ37608H	F	7183013775	09/04/1964	Bradnock Howard		1225002751	Clean Air Car Svc & Parking (NYC)	Livery-Manhattan Surcharge	A0100	SC	01/22/2018	01/22/2018	No	4	1																					Livery-Manhattan Surcharge	137802790
2504293	2157	571672810	Service	Sharon		Caffey	XQ37608H	F	7183013775	09/04/1964	Bradnock Howard		1225002751	Clean Air Car Svc & Parking (NYC)	Livery-Manhattan Surcharge	A0100	SC	01/22/2018	01/22/2018	No	4	1																					Livery-Manhattan Surcharge	137802791
2504293	2158	571672810	Service	Sharon		Caffey	XQ37608H	F	7183013775	09/04/1964	Bradnock Howard		1225002751	Clean Air Car Svc & Parking (NYC)	Mileage-Livery in NYC	S0215		01/22/2018	01/22/2018	No	4	1																					Mileage-Livery in NYC	137802790
2504293	2159	571672810	Service	Sharon		Caffey	XQ37608H	F	7183013775	09/04/1964	Bradnock Howard		1225002751	Clean Air Car Svc & Parking (NYC)	Mileage-Livery in NYC	S0215		01/22/2018	01/22/2018	No	4	1																					Mileage-Livery in NYC	137802791
2504293	2160	571672810	Service	Sharon		Caffey	XQ37608H	F	7183013775	09/04/1964	Bradnock Howard		1225002751	Clean Air Car Svc & Parking (NYC)	Mileage-Livery in NYC	S0215		01/22/2018	01/22/2018	No	4	1																					Mileage-Livery in NYC	137806467
2504293	2161	571672810	Service	Sharon		Caffey	XQ37608H	F	7183013775	09/04/1964	Bradnock Howard		1225002751	Clean Air Car Svc & Parking (NYC)	Mileage-Livery in NYC	S0215		01/22/2018	01/22/2018	No	4	1																					Mileage-Livery in NYC	137806468
2504293	2162	571672810	Service	Sharon		Caffey	XQ37608H	F	7183013775	09/04/1964	Bradnock Howard		1225002751	Clean Air Car Svc & Parking (NYC)	Livery-Manhattan Surcharge	A0100	SC	01/22/2018	01/22/2018	No	4	1																					Livery-Manhattan Surcharge	137806467
2504293	2163	571672810	Service	Sharon		Caffey	XQ37608H	F	7183013775	09/04/1964	Bradnock Howard		1225002751	Clean Air Car Svc & Parking (NYC)	Livery-Manhattan Surcharge	A0100	SC	01/22/2018	01/22/2018	No	4	1																					Livery-Manhattan Surcharge	137806468
2504293	2164	571696620	Leg	Sharon		Caffey	XQ37608H	F	7183013775	09/04/1964	Bradnock Howard		1225002751	Clean Air Car Svc & Parking (NYC)	Livery/QN-Med Appt out CMMA	A0100	TN	01/23/2018	01/23/2018	No	4	1		SELF	7183013775	55.6	01/23/2018	0730	3441 Linden Pl	 	Flushing	NY	11354	01/23/2018	0830	7517 6th Ave	  	Brooklyn	NY	11209	18.3			No	137806445
2504293	2165	571696620	Leg	Sharon		Caffey	XQ37608H	F	7183013775	09/04/1964	Bradnock Howard		1225002751	Clean Air Car Svc & Parking (NYC)	Livery/QN-Med Appt out CMMA	A0100	TN	01/23/2018	01/23/2018	No	4	1		SELF	7183013775	55.6	01/23/2018	0930	7517 6th Ave	 	Brooklyn	NY	11209	01/23/2018	CALL	3441 Linden Pl	  	Flushing	NY	11354	18.3			No	137806446
2504293	2166	571696620	Leg	Sharon		Caffey	XQ37608H	F	7183013775	09/04/1964	Bradnock Howard		1225002751	Clean Air Car Svc & Parking (NYC)	Livery/QN-Med Appt out CMMA	A0100	TN	01/23/2018	01/23/2018	No	4	1		SELF	7183013775	55.6	01/23/2018	1430	3441 Linden Pl	 	Flushing	NY	11354	01/23/2018	1500	520 E 70th St	  	New York	NY	10021	9.5			No	137806447
2504293	2167	571696620	Leg	Sharon		Caffey	XQ37608H	F	7183013775	09/04/1964	Bradnock Howard		1225002751	Clean Air Car Svc & Parking (NYC)	Livery/QN-Med Appt out CMMA	A0100	TN	01/23/2018	01/23/2018	No	4	1		SELF	7183013775	55.6	01/23/2018	CALL	520 E 70th St	 	New York	NY	10021	01/23/2018	CALL	3441 Linden Pl	  	Flushing	NY	11354	9.5			No	137806448
2504293	2168	571696620	Service	Sharon		Caffey	XQ37608H	F	7183013775	09/04/1964	Bradnock Howard		1225002751	Clean Air Car Svc & Parking (NYC)	Tolls-Universal	A0170	CG	01/23/2018	01/23/2018	No	4	1																					Tolls-Universal	137806445
2504293	2169	571696620	Service	Sharon		Caffey	XQ37608H	F	7183013775	09/04/1964	Bradnock Howard		1225002751	Clean Air Car Svc & Parking (NYC)	Livery-Manhattan Surcharge	A0100	SC	01/23/2018	01/23/2018	No	4	1																					Livery-Manhattan Surcharge	137806447
2504293	2170	571696620	Service	Sharon		Caffey	XQ37608H	F	7183013775	09/04/1964	Bradnock Howard		1225002751	Clean Air Car Svc & Parking (NYC)	Livery-Manhattan Surcharge	A0100	SC	01/23/2018	01/23/2018	No	4	1																					Livery-Manhattan Surcharge	137806448
2504293	2171	571696620	Service	Sharon		Caffey	XQ37608H	F	7183013775	09/04/1964	Bradnock Howard		1225002751	Clean Air Car Svc & Parking (NYC)	Mileage-Livery in NYC	S0215		01/23/2018	01/23/2018	No	4	1																					Mileage-Livery in NYC	137806445
2504293	2172	571696620	Service	Sharon		Caffey	XQ37608H	F	7183013775	09/04/1964	Bradnock Howard		1225002751	Clean Air Car Svc & Parking (NYC)	Mileage-Livery in NYC	S0215		01/23/2018	01/23/2018	No	4	1																					Mileage-Livery in NYC	137806446
2504293	2173	571696620	Service	Sharon		Caffey	XQ37608H	F	7183013775	09/04/1964	Bradnock Howard		1225002751	Clean Air Car Svc & Parking (NYC)	Mileage-Livery in NYC	S0215		01/23/2018	01/23/2018	No	4	1																					Mileage-Livery in NYC	137806447
2504293	2174	571696620	Service	Sharon		Caffey	XQ37608H	F	7183013775	09/04/1964	Bradnock Howard		1225002751	Clean Air Car Svc & Parking (NYC)	Mileage-Livery in NYC	S0215		01/23/2018	01/23/2018	No	4	1																					Mileage-Livery in NYC	137806448
2504293	2175	571751320	Leg	Iris		Babayoff	UX68405R	F	(718) 570-6536	03/26/1971	ALLEVA MICHAEL MD	000	1730147182	Clean Air Car Svc & Parking (NYC)	Livery/QN-Med Appt out CMMA	A0100	TN	01/24/2018	01/24/2018	No	2	1		same	(718) 570-6536	21.0	01/24/2018	1100	7135 Vleigh Pl	 -	Flushing	NY	11367	01/24/2018	1200	504 Central Ave	  -	Cedarhurst	NY	11516	10.5	-		No	137819418
2504293	2176	571751320	Leg	Iris		Babayoff	UX68405R	F	(718) 570-6536	03/26/1971	ALLEVA MICHAEL MD	000	1730147182	Clean Air Car Svc & Parking (NYC)	Livery/QN-Med Appt out CMMA	A0100	TN	01/24/2018	01/24/2018	No	2	1		same	(718) 570-6536	21.0	01/24/2018	1300	504 Central Ave	 -	Cedarhurst	NY	11516	01/24/2018	1400	7135 Vleigh Pl	  -	Flushing	NY	11367	10.5			No	137819420
2504293	2177	571751320	Service	Iris		Babayoff	UX68405R	F	(718) 570-6536	03/26/1971	ALLEVA MICHAEL MD	000	1730147182	Clean Air Car Svc & Parking (NYC)	Tolls-Universal	A0170	CG	01/24/2018	01/24/2018	No	2	1																					Tolls-Universal	137819418
2504293	2178	571751320	Service	Iris		Babayoff	UX68405R	F	(718) 570-6536	03/26/1971	ALLEVA MICHAEL MD	000	1730147182	Clean Air Car Svc & Parking (NYC)	Mileage-Livery out of NYC	S0215	TN	01/24/2018	01/24/2018	No	2	1																					Mileage-Livery out of NYC	137819418
2504293	2179	571751320	Service	Iris		Babayoff	UX68405R	F	(718) 570-6536	03/26/1971	ALLEVA MICHAEL MD	000	1730147182	Clean Air Car Svc & Parking (NYC)	Mileage-Livery out of NYC	S0215	TN	01/24/2018	01/24/2018	No	2	1																					Mileage-Livery out of NYC	137819420
2504293	2180	571763710	Leg	Ashley	M	Li	PE16319D	F		11/17/2010	NYU Langone Medical Center		1871799502	Clean Air Car Svc & Parking (NYC)	Livery/QN-Med Appt out CMMA	A0100	TN	01/25/2018	01/25/2018	No	2	1		Cindy/Soc. Worker	718-886-1212 ext 1602	22.8	01/25/2018	1430	14230 Barclay Ave	 -	Flushing	NY	11355	01/25/2018	1530	462 1st Ave	  main ent	New York	NY	10016	10.4	+2, Additional Rider		No	137822984
2504293	2181	571763710	Leg	Ashley	M	Li	PE16319D	F		11/17/2010	NYU Langone Medical Center		1871799502	Clean Air Car Svc & Parking (NYC)	Livery/QN-Med Appt out CMMA	A0100	TN	01/25/2018	01/25/2018	No	2	1		Cindy/Soc. Worker	718-886-1212 ext 1602	22.8	01/25/2018	Call	462 1st Ave	 main ent	New York	NY	10016	01/25/2018	Call	154 20 Bayside Ave            2	  home	Flushing	NY	11354	12.4			No	137822985
2504293	2182	571763710	Service	Ashley	M	Li	PE16319D	F		11/17/2010	NYU Langone Medical Center		1871799502	Clean Air Car Svc & Parking (NYC)	Tolls-Universal	A0170	CG	01/25/2018	01/25/2018	No	2	1																					Tolls-Universal	137822984
2504293	2183	571763710	Service	Ashley	M	Li	PE16319D	F		11/17/2010	NYU Langone Medical Center		1871799502	Clean Air Car Svc & Parking (NYC)	Livery-Manhattan Surcharge	A0100	SC	01/25/2018	01/25/2018	No	2	1																					Livery-Manhattan Surcharge	137822984
2504293	2184	571763710	Service	Ashley	M	Li	PE16319D	F		11/17/2010	NYU Langone Medical Center		1871799502	Clean Air Car Svc & Parking (NYC)	Livery-Manhattan Surcharge	A0100	SC	01/25/2018	01/25/2018	No	2	1																					Livery-Manhattan Surcharge	137822985
2504293	2185	571763710	Service	Ashley	M	Li	PE16319D	F		11/17/2010	NYU Langone Medical Center		1871799502	Clean Air Car Svc & Parking (NYC)	Mileage-Livery in NYC	S0215		01/25/2018	01/25/2018	No	2	1																					Mileage-Livery in NYC	137822984
2504293	2186	571763710	Service	Ashley	M	Li	PE16319D	F		11/17/2010	NYU Langone Medical Center		1871799502	Clean Air Car Svc & Parking (NYC)	Mileage-Livery in NYC	S0215		01/25/2018	01/25/2018	No	2	1																					Mileage-Livery in NYC	137822985
2504293	2187	571767740	Leg	Ashley	M	Li	PE16319D	F		11/17/2010	NYU Langone Medical Center		1871799502	Clean Air Car Svc & Parking (NYC)	Livery/QN-Med Appt out CMMA	A0100	TN	01/30/2018	01/30/2018	No	2	1		Cindy/Soc. Worker	718-886-1212 ext 1602	23.8	01/30/2018	0730	154 20 Bayside Ave            2	 home	Flushing	NY	11354	01/30/2018	0830	160 E 32nd St	  main ent	New York	NY	10016	11.9	+2, Additional Rider		No	137823740
2504293	2188	571767740	Leg	Ashley	M	Li	PE16319D	F		11/17/2010	NYU Langone Medical Center		1871799502	Clean Air Car Svc & Parking (NYC)	Livery/QN-Med Appt out CMMA	A0100	TN	01/30/2018	01/30/2018	No	2	1		Cindy/Soc. Worker	718-886-1212 ext 1602	23.8	01/30/2018	Call	160 E 32nd St	 main ent	New York	NY	10016	01/30/2018	Call	154 20 Bayside Ave            2	  home	Flushing	NY	11354	11.9			No	137823741
2504293	2189	571767740	Service	Ashley	M	Li	PE16319D	F		11/17/2010	NYU Langone Medical Center		1871799502	Clean Air Car Svc & Parking (NYC)	Tolls-Universal	A0170	CG	01/30/2018	01/30/2018	No	2	1																					Tolls-Universal	137823740
2504293	2190	571767740	Service	Ashley	M	Li	PE16319D	F		11/17/2010	NYU Langone Medical Center		1871799502	Clean Air Car Svc & Parking (NYC)	Livery-Manhattan Surcharge	A0100	SC	01/30/2018	01/30/2018	No	2	1																					Livery-Manhattan Surcharge	137823740
2504293	2191	571767740	Service	Ashley	M	Li	PE16319D	F		11/17/2010	NYU Langone Medical Center		1871799502	Clean Air Car Svc & Parking (NYC)	Livery-Manhattan Surcharge	A0100	SC	01/30/2018	01/30/2018	No	2	1																					Livery-Manhattan Surcharge	137823741
2504293	2192	571767740	Service	Ashley	M	Li	PE16319D	F		11/17/2010	NYU Langone Medical Center		1871799502	Clean Air Car Svc & Parking (NYC)	Mileage-Livery in NYC	S0215		01/30/2018	01/30/2018	No	2	1																					Mileage-Livery in NYC	137823740
2504293	2193	571767740	Service	Ashley	M	Li	PE16319D	F		11/17/2010	NYU Langone Medical Center		1871799502	Clean Air Car Svc & Parking (NYC)	Mileage-Livery in NYC	S0215		01/30/2018	01/30/2018	No	2	1																					Mileage-Livery in NYC	137823741
2504293	2194	571781970	Leg	Blanca	B	Dutan	PA37433R	F	(718) 600-4339	03/06/1978	Queens Hospital	000	1801803903	Clean Air Car Svc & Parking (NYC)	Livery/QN-Med Appt in CMMA	A0100		01/22/2018	01/22/2018	No	1	1		self	(718) 600-4339	1.7	01/22/2018	1230	5428 102nd St	Fl 2 	Corona	NY	11368	01/22/2018	1330	7901 Broadway	8632820 	Elmhurst	NY	11373	1.7	Additional Rider		No	137826771
2504293	2195	571781970	Leg	Blanca	B	Dutan	PA37433R	F	(718) 600-4339	03/06/1978	Queens Hospital	000	1801803903	Clean Air Car Svc & Parking (NYC)	Livery/QN-Med Appt in CMMA	A0100		01/22/2018	01/22/2018	No	1	1		self	(718) 600-4339	1.7	01/22/2018	Call	7901 Broadway	8632820 	Elmhurst	NY	11373	01/22/2018	Call	5428 102nd St	Fl 2 	Corona	NY	11368	1.7			No	137826773
2504293	2196	571802800	Leg	Yanique		Ford	SG65867E	F	6313364112	06/06/1985	NY Presbyterian Hospital		1952332801	Clean Air Car Svc & Parking (NYC)	Livery/MN-Med Appt out CMMA	A0100	TN	01/22/2018	01/22/2018	No	2	1		self	6313364112	17.6	01/22/2018	1500	25 Pine St	 	New York	NY	10005	01/22/2018	1600	2510 30th Rd	  	Long Island City	NY	11102	8.8	1 Additional rider(s). 1 Additional rider(s). 1 Additional rider(s). 1 Additional rider(s). 1 Additional rider(s). 1 Additional rider(s). 1 Additional		No	137833029
2504293	2197	571802800	Leg	Yanique		Ford	SG65867E	F	6313364112	06/06/1985	NY Presbyterian Hospital		1952332801	Clean Air Car Svc & Parking (NYC)	Livery/MN-Med Appt out CMMA	A0100	TN	01/22/2018	01/22/2018	No	2	1		self	6313364112	17.6	01/22/2018	Call	2510 30th Rd	 	Long Island City	NY	11102	01/22/2018	Call	25 Pine St	  	New York	NY	10005	8.8	1 Additional rider(s). 1 Additional rider(s). 1 Additional rider(s). 1 Additional rider(s). 1 Additional rider(s). 1 Additional rider(s). 1 Additional		No	137833030
2504293	2198	571802800	Service	Yanique		Ford	SG65867E	F	6313364112	06/06/1985	NY Presbyterian Hospital		1952332801	Clean Air Car Svc & Parking (NYC)	Mileage-Livery in NYC	S0215		01/22/2018	01/22/2018	No	2	1																					Mileage-Livery in NYC	137833029
2504293	2199	571802800	Service	Yanique		Ford	SG65867E	F	6313364112	06/06/1985	NY Presbyterian Hospital		1952332801	Clean Air Car Svc & Parking (NYC)	Mileage-Livery in NYC	S0215		01/22/2018	01/22/2018	No	2	1																					Mileage-Livery in NYC	137833030
2504293	2200	571802800	Service	Yanique		Ford	SG65867E	F	6313364112	06/06/1985	NY Presbyterian Hospital		1952332801	Clean Air Car Svc & Parking (NYC)	Tolls-Universal	A0170	CG	01/22/2018	01/22/2018	No	2	1																					Tolls-Universal	137833029
2504293	2201	571802800	Service	Yanique		Ford	SG65867E	F	6313364112	06/06/1985	NY Presbyterian Hospital		1952332801	Clean Air Car Svc & Parking (NYC)	Livery-Manhattan Surcharge	A0100	SC	01/22/2018	01/22/2018	No	2	1																					Livery-Manhattan Surcharge	137833029
2504293	2202	571802800	Service	Yanique		Ford	SG65867E	F	6313364112	06/06/1985	NY Presbyterian Hospital		1952332801	Clean Air Car Svc & Parking (NYC)	Livery-Manhattan Surcharge	A0100	SC	01/22/2018	01/22/2018	No	2	1																					Livery-Manhattan Surcharge	137833030
2504293	2203	571910340	Leg	Arnolee	C	Kennings	ZW89517K	M	(347) 317-0198	11/23/1976	NY Presbyterian Hospital	0000000	1952332801	Clean Air Car Svc & Parking (NYC)	Livery/MN-Med Appt out CMMA	A0100	TN	01/24/2018	01/24/2018	No	2	1		leslie	(347) 317-0198	10.2	01/24/2018	1100	500 W 177th St	 residence	New York	NY	10033	01/24/2018	1200	2114 Williamsbridge Rd	  main entr	Bronx	NY	10461	5.1			No	137857547
2504293	2204	571910340	Leg	Arnolee	C	Kennings	ZW89517K	M	(347) 317-0198	11/23/1976	NY Presbyterian Hospital	0000000	1952332801	Clean Air Car Svc & Parking (NYC)	Livery/MN-Med Appt out CMMA	A0100	TN	01/24/2018	01/24/2018	No	2	1		leslie	(347) 317-0198	10.2	01/24/2018	Call	2114 Williamsbridge Rd	 main entr	Bronx	NY	10461	01/24/2018	Call	500 W 177th St	  residence	New York	NY	10033	5.1			No	137857548
2504293	2205	571910340	Service	Arnolee	C	Kennings	ZW89517K	M	(347) 317-0198	11/23/1976	NY Presbyterian Hospital	0000000	1952332801	Clean Air Car Svc & Parking (NYC)	Tolls-Universal	A0170	CG	01/24/2018	01/24/2018	No	2	1																					Tolls-Universal	137857547
2504293	2206	571910600	Leg	Arnolee	C	Kennings	ZW89517K	M	(347) 317-0198	11/23/1976	NY Presbyterian Hospital	0000000	1952332801	Clean Air Car Svc & Parking (NYC)	Livery/MN-Med Appt out CMMA	A0100	TN	01/26/2018	01/26/2018	No	2	1		leslie	(347) 317-0198	10.2	01/26/2018	1100	500 W 177th St	 residence	New York	NY	10033	01/26/2018	1200	2114 Williamsbridge Rd	  main entr	Bronx	NY	10461	5.1			No	137857555
2504293	2207	571910600	Leg	Arnolee	C	Kennings	ZW89517K	M	(347) 317-0198	11/23/1976	NY Presbyterian Hospital	0000000	1952332801	Clean Air Car Svc & Parking (NYC)	Livery/MN-Med Appt out CMMA	A0100	TN	01/26/2018	01/26/2018	No	2	1		leslie	(347) 317-0198	10.2	01/26/2018	Call	2114 Williamsbridge Rd	 main entr	Bronx	NY	10461	01/26/2018	Call	500 W 177th St	  residence	New York	NY	10033	5.1			No	137857556
2504293	2208	571910600	Service	Arnolee	C	Kennings	ZW89517K	M	(347) 317-0198	11/23/1976	NY Presbyterian Hospital	0000000	1952332801	Clean Air Car Svc & Parking (NYC)	Tolls-Universal	A0170	CG	01/26/2018	01/26/2018	No	2	1																					Tolls-Universal	137857555
2504293	2209	571931580	Leg	Reshma		Maharaj	KD54352J	F	(347) 500-4614	11/06/1980	Mcdonald Annmarie		1003976341	Clean Air Car Svc & Parking (NYC)	Livery/QN-Med Appt out CMMA	A0100	TN	01/22/2018	01/22/2018	No	2	1		self	(347) 500-4614	22.6	01/22/2018	0900	10459 121st St	 home	South Richmond Hill	NY	11419	01/22/2018	1000	185 Canal St	  main	New York	NY	10013	11.3	Short s/o mon,wed and sun		No	137862111
2504293	2210	571931580	Leg	Reshma		Maharaj	KD54352J	F	(347) 500-4614	11/06/1980	Mcdonald Annmarie		1003976341	Clean Air Car Svc & Parking (NYC)	Livery/QN-Med Appt out CMMA	A0100	TN	01/22/2018	01/22/2018	No	2	1		self	(347) 500-4614	22.6	01/22/2018	Call	185 Canal St	 	New York	NY	10013	01/22/2018	Call	10459 121st St	  	South Richmond Hill	NY	11419	11.3			No	142846985
2504293	2211	571931580	Service	Reshma		Maharaj	KD54352J	F	(347) 500-4614	11/06/1980	Mcdonald Annmarie		1003976341	Clean Air Car Svc & Parking (NYC)	Mileage-Livery in NYC	S0215		01/22/2018	01/22/2018	No	2	1																					Mileage-Livery in NYC	137862111
2504293	2212	571931580	Service	Reshma		Maharaj	KD54352J	F	(347) 500-4614	11/06/1980	Mcdonald Annmarie		1003976341	Clean Air Car Svc & Parking (NYC)	Tolls-Universal	A0170	CG	01/22/2018	01/22/2018	No	2	1																					Tolls-Universal	137862111
2504293	2213	571931580	Service	Reshma		Maharaj	KD54352J	F	(347) 500-4614	11/06/1980	Mcdonald Annmarie		1003976341	Clean Air Car Svc & Parking (NYC)	Livery-Manhattan Surcharge	A0100	SC	01/22/2018	01/22/2018	No	2	1																					Livery-Manhattan Surcharge	137862111
2504293	2214	571931580	Service	Reshma		Maharaj	KD54352J	F	(347) 500-4614	11/06/1980	Mcdonald Annmarie		1003976341	Clean Air Car Svc & Parking (NYC)	Mileage-Livery in NYC	S0215		01/22/2018	01/22/2018	No	2	1																					Mileage-Livery in NYC	142846985
2504293	2215	571931580	Service	Reshma		Maharaj	KD54352J	F	(347) 500-4614	11/06/1980	Mcdonald Annmarie		1003976341	Clean Air Car Svc & Parking (NYC)	Livery-Manhattan Surcharge	A0100	SC	01/22/2018	01/22/2018	No	2	1																					Livery-Manhattan Surcharge	142846985
2504293	2216	571941850	Leg	Obdulia		Batista	ZG92504N	F	7188486535	12/03/1972	Goldberg Alla		1467698480	Clean Air Car Svc & Parking (NYC)	Livery/BK-Med Appt in CMMA	A0100		01/23/2018	01/23/2018	No	2	1		self	7188486535		01/23/2018	1015	9823 Horace Harding Expy	 Hm	Corona	NY	11368	01/23/2018	1115	18219 Horace Harding Expy	  	Fresh Meadows	NY	11365	4.4			No	137893337
2504293	2217	571941850	Leg	Obdulia		Batista	ZG92504N	F	7188486535	12/03/1972	Goldberg Alla		1467698480	Clean Air Car Svc & Parking (NYC)	Livery/BK-Med Appt in CMMA	A0100		01/23/2018	01/23/2018	No	2	1		self	7188486535		01/23/2018	Call	18219 Horace Harding Expy	 	Fresh Meadows	NY	11365	01/23/2018	Call	9823 Horace Harding Expy	  Hm	Corona	NY	11368	4.4			No	137893339
2504293	2218	571946290	Leg	Brenda		Hildagogarcia	QF85937N	F	(718) 809-4018	04/04/1989	Brownsville Multiservice Family Hlt	00723253	1578612412	Clean Air Car Svc & Parking (NYC)	Livery/BK-Med Appt in CMMA	A0100		01/22/2018	01/22/2018	No	2	1		self	(718) 809-4018	3.4	01/22/2018	1320	393 Dumont Ave	Apt 5H 	Brooklyn	NY	11212	01/22/2018	1420	650 Ashford St	  main door	Brooklyn	NY	11207	1.7			No	137865413
2504293	2219	571946290	Leg	Brenda		Hildagogarcia	QF85937N	F	(718) 809-4018	04/04/1989	Brownsville Multiservice Family Hlt	00723253	1578612412	Clean Air Car Svc & Parking (NYC)	Livery/BK-Med Appt in CMMA	A0100		01/22/2018	01/22/2018	No	2	1		self	(718) 809-4018	3.4	01/22/2018	Call	650 Ashford St	 main door	Brooklyn	NY	11207	01/22/2018	Call	393 Dumont Ave	Apt 5H 	Brooklyn	NY	11212	1.7			No	137865414
2504293	2220	571957130	Leg	Edward		Mattocks	XM70326W	M	(347) 334-1422	01/28/1967	UDUEVBO, JERRY		1740448208	Clean Air Car Svc & Parking (NYC)	Livery/QN-Med Appt in CMMA	A0100		01/26/2018	01/26/2018	No	2	1		self	(347) 334-1422	4.2	01/26/2018	0800	4114 10th St	Apt 5D 	Long Island City	NY	11101	01/26/2018	0900	2510 30th Ave	  main	Astoria	NY	11102	2.1			No	137869079
2504293	2221	571957130	Leg	Edward		Mattocks	XM70326W	M	(347) 334-1422	01/28/1967	UDUEVBO, JERRY		1740448208	Clean Air Car Svc & Parking (NYC)	Livery/QN-Med Appt in CMMA	A0100		01/26/2018	01/26/2018	No	2	1		self	(347) 334-1422	4.2	01/26/2018	Call	2510 30th Ave	 main	Astoria	NY	11102	01/26/2018	Call	4114 10th St	Apt 5D 	Long Island City	NY	11101	2.1			No	137869080
2504293	2222	572004840	Leg	Ping		Watt	TE16353T	M	(646) 331-9686	07/02/1938	Liou Michael		1447456231	Clean Air Car Svc & Parking (NYC)	Livery/BK-Med Appt in CMMA	A0100		01/23/2018	01/23/2018	No	2	1		daughter/gina	(646) 331-9686	2.6	01/23/2018	0915	1413 W 9th St	Fl 2 	Brooklyn	NY	11204	01/23/2018	1015	15 Bay 29th St	  front	Brooklyn	NY	11214	1.3	1, Additional Rider		No	137880256
2504293	2223	572004840	Leg	Ping		Watt	TE16353T	M	(646) 331-9686	07/02/1938	Liou Michael		1447456231	Clean Air Car Svc & Parking (NYC)	Livery/BK-Med Appt in CMMA	A0100		01/23/2018	01/23/2018	No	2	1		daughter/gina	(646) 331-9686	2.6	01/23/2018	Call	15 Bay 29th St	 front	Brooklyn	NY	11214	01/23/2018	Call	1413 W 9th St	Fl 2 	Brooklyn	NY	11204	1.3			No	137880257
2504293	2224	572005550	Leg	Ping		Watt	TE16353T	M	(646) 331-9686	07/02/1938	Liou Michael		1447456231	Clean Air Car Svc & Parking (NYC)	Livery/BK-Med Appt out CMMA	A0100	TN	01/31/2018	01/31/2018	No	2	1		daughter/gina	(646) 331-9686	18.8	01/31/2018	0930	1413 W 9th St	Fl 2 	Brooklyn	NY	11204	01/31/2018	1030	210 Canal St	  front	New York	NY	10013	9.4	1, Additional Rider		No	137880442
2504293	2225	572005550	Leg	Ping		Watt	TE16353T	M	(646) 331-9686	07/02/1938	Liou Michael		1447456231	Clean Air Car Svc & Parking (NYC)	Livery/BK-Med Appt out CMMA	A0100	TN	01/31/2018	01/31/2018	No	2	1		daughter/gina	(646) 331-9686	18.8	01/31/2018	Call	210 Canal St	 front	New York	NY	10013	01/31/2018	Call	1413 W 9th St	Fl 2 	Brooklyn	NY	11204	9.4			No	137880443
2504293	2226	572005550	Service	Ping		Watt	TE16353T	M	(646) 331-9686	07/02/1938	Liou Michael		1447456231	Clean Air Car Svc & Parking (NYC)	Tolls-Universal	A0170	CG	01/31/2018	01/31/2018	No	2	1																					Tolls-Universal	137880442
2504293	2227	572005550	Service	Ping		Watt	TE16353T	M	(646) 331-9686	07/02/1938	Liou Michael		1447456231	Clean Air Car Svc & Parking (NYC)	Livery-Manhattan Surcharge	A0100	SC	01/31/2018	01/31/2018	No	2	1																					Livery-Manhattan Surcharge	137880442
2504293	2228	572005550	Service	Ping		Watt	TE16353T	M	(646) 331-9686	07/02/1938	Liou Michael		1447456231	Clean Air Car Svc & Parking (NYC)	Livery-Manhattan Surcharge	A0100	SC	01/31/2018	01/31/2018	No	2	1																					Livery-Manhattan Surcharge	137880443
2504293	2229	572005550	Service	Ping		Watt	TE16353T	M	(646) 331-9686	07/02/1938	Liou Michael		1447456231	Clean Air Car Svc & Parking (NYC)	Mileage-Livery in NYC	S0215		01/31/2018	01/31/2018	No	2	1																					Mileage-Livery in NYC	137880442
2504293	2230	572005550	Service	Ping		Watt	TE16353T	M	(646) 331-9686	07/02/1938	Liou Michael		1447456231	Clean Air Car Svc & Parking (NYC)	Mileage-Livery in NYC	S0215		01/31/2018	01/31/2018	No	2	1																					Mileage-Livery in NYC	137880443
2504293	2231	572006520	Leg	Henry		Lapsley	XU44621D	M	(347) 869-4401	07/05/1965	QUEENS ARTIFICIAL KIDNEY CENTER		1689992448	Clean Air Car Svc & Parking (NYC)	Livery/QN-Med Appt out CMMA	A0100	TN	01/22/2018	01/22/2018	No	2	1		DESTINY @QUEENS DIALYSIS	(866) 544-6741	20.9	01/22/2018	1000	3435 70th St	 	Jackson Heights	NY	11372	01/22/2018	1030	2800 Marcus Ave	  MAIN	New Hyde Park	NY	11042	14.0			No	137880902
2504293	2232	572006520	Leg	Henry		Lapsley	XU44621D	M	(347) 869-4401	07/05/1965	QUEENS ARTIFICIAL KIDNEY CENTER		1689992448	Clean Air Car Svc & Parking (NYC)	Livery/QN-Med Appt out CMMA	A0100	TN	01/22/2018	01/22/2018	No	2	1		DESTINY @QUEENS DIALYSIS	(866) 544-6741	20.9	01/22/2018	Call	2800 Marcus Ave	 MAIN	New Hyde Park	NY	11042	01/22/2018	Call	4834 202nd St	# 2FL 	Bayside	NY	11364	6.9			No	137880904
2504293	2233	572006520	Service	Henry		Lapsley	XU44621D	M	(347) 869-4401	07/05/1965	QUEENS ARTIFICIAL KIDNEY CENTER		1689992448	Clean Air Car Svc & Parking (NYC)	Tolls-Universal	A0170	CG	01/22/2018	01/22/2018	No	2	1																					Tolls-Universal	137880902
2504293	2234	572006520	Service	Henry		Lapsley	XU44621D	M	(347) 869-4401	07/05/1965	QUEENS ARTIFICIAL KIDNEY CENTER		1689992448	Clean Air Car Svc & Parking (NYC)	Mileage-Livery out of NYC	S0215	TN	01/22/2018	01/22/2018	No	2	1																					Mileage-Livery out of NYC	137880902
2504293	2235	572006520	Service	Henry		Lapsley	XU44621D	M	(347) 869-4401	07/05/1965	QUEENS ARTIFICIAL KIDNEY CENTER		1689992448	Clean Air Car Svc & Parking (NYC)	Mileage-Livery out of NYC	S0215	TN	01/22/2018	01/22/2018	No	2	1																					Mileage-Livery out of NYC	137880904
2504293	2236	572073020	Leg	Blanca	S	Burgos	RM33543Y	F	(929) 231-0225	12/14/1955	BLANCO-FRANCO, OSCAR		1881709228	Clean Air Car Svc & Parking (NYC)	Livery/QN-Med Appt out CMMA	A0100	TN	01/24/2018	01/24/2018	No	2	1		self	(929) 231-0225	10.2	01/24/2018	0830	6617 Main St	 home	Flushing	NY	11367	01/24/2018	0915	3722 82nd St	  main	Jackson Heights	NY	11372	5.1	Additional Rider		No	137897416
2504293	2237	572073020	Leg	Blanca	S	Burgos	RM33543Y	F	(929) 231-0225	12/14/1955	BLANCO-FRANCO, OSCAR		1881709228	Clean Air Car Svc & Parking (NYC)	Livery/QN-Med Appt out CMMA	A0100	TN	01/24/2018	01/24/2018	No	2	1		self	(929) 231-0225	10.2	01/24/2018	1300	3722 82nd St	 main	Jackson Heights	NY	11372	01/24/2018	call	6617 Main St	  home	Flushing	NY	11367	5.1			No	137897417
2504293	2238	572118920	Leg	Edward		Harley	ZR74478K	M	(518) 857-6079	02/16/1953	Bronx Lebanon Hospital	000	1538230073	Clean Air Car Svc & Parking (NYC)	Livery/BX-Med Appt out CMMA	A0100	TN	01/23/2018	01/23/2018	No	2	1		self	(518) 857-6079	17.6	01/23/2018	1300	1200 Woodycrest Ave	Apt 5H 	Bronx	NY	10452	01/23/2018	1400	462 1st Ave	  main	New York	NY	10016	8.8			No	137906395
2504293	2239	572118920	Leg	Edward		Harley	ZR74478K	M	(518) 857-6079	02/16/1953	Bronx Lebanon Hospital	000	1538230073	Clean Air Car Svc & Parking (NYC)	Livery/BX-Med Appt out CMMA	A0100	TN	01/23/2018	01/23/2018	No	2	1		self	(518) 857-6079	17.6	01/23/2018	Call	462 1st Ave	 main	New York	NY	10016	01/23/2018	Call	1200 Woodycrest Ave	Apt 5H 	Bronx	NY	10452	8.8			No	137906396
2504293	2240	572118920	Service	Edward		Harley	ZR74478K	M	(518) 857-6079	02/16/1953	Bronx Lebanon Hospital	000	1538230073	Clean Air Car Svc & Parking (NYC)	Tolls-Universal	A0170	CG	01/23/2018	01/23/2018	No	2	1																					Tolls-Universal	137906395
2504293	2241	572118920	Service	Edward		Harley	ZR74478K	M	(518) 857-6079	02/16/1953	Bronx Lebanon Hospital	000	1538230073	Clean Air Car Svc & Parking (NYC)	Livery-Manhattan Surcharge	A0100	SC	01/23/2018	01/23/2018	No	2	1																					Livery-Manhattan Surcharge	137906395
2504293	2242	572118920	Service	Edward		Harley	ZR74478K	M	(518) 857-6079	02/16/1953	Bronx Lebanon Hospital	000	1538230073	Clean Air Car Svc & Parking (NYC)	Livery-Manhattan Surcharge	A0100	SC	01/23/2018	01/23/2018	No	2	1																					Livery-Manhattan Surcharge	137906396
2504293	2243	572118920	Service	Edward		Harley	ZR74478K	M	(518) 857-6079	02/16/1953	Bronx Lebanon Hospital	000	1538230073	Clean Air Car Svc & Parking (NYC)	Mileage-Livery in NYC	S0215		01/23/2018	01/23/2018	No	2	1																					Mileage-Livery in NYC	137906395
2504293	2244	572118920	Service	Edward		Harley	ZR74478K	M	(518) 857-6079	02/16/1953	Bronx Lebanon Hospital	000	1538230073	Clean Air Car Svc & Parking (NYC)	Mileage-Livery in NYC	S0215		01/23/2018	01/23/2018	No	2	1																					Mileage-Livery in NYC	137906396
2504293	2245	572140690	Leg	Tiffany		Lal	RC23265C	F	(347) 557-3964	09/24/2006	Braun,James		1629126396	Clean Air Car Svc & Parking (NYC)	Livery/QN-Med Appt out CMMA	A0100	TN	01/25/2018	01/25/2018	No	2	1		Jasmatie; mother	(347) 557-3964	23.2	01/25/2018	1030	9745 109th St	 home	South Richmond Hill	NY	11419	01/25/2018	1130	525 E 68th St	  main	New York	NY	10065	11.6	Additional Rider		No	137910406
2504293	2246	572140690	Leg	Tiffany		Lal	RC23265C	F	(347) 557-3964	09/24/2006	Braun,James		1629126396	Clean Air Car Svc & Parking (NYC)	Livery/QN-Med Appt out CMMA	A0100	TN	01/25/2018	01/25/2018	No	2	1		Jasmatie; mother	(347) 557-3964	23.2	01/25/2018	1400	525 E 68th St	 main	New York	NY	10065	01/25/2018	Call	9745 109th St	  home	South Richmond Hill	NY	11419	11.6			No	137910407
2504293	2247	572140690	Service	Tiffany		Lal	RC23265C	F	(347) 557-3964	09/24/2006	Braun,James		1629126396	Clean Air Car Svc & Parking (NYC)	Tolls-Universal	A0170	CG	01/25/2018	01/25/2018	No	2	1																					Tolls-Universal	137910406
2504293	2248	572140690	Service	Tiffany		Lal	RC23265C	F	(347) 557-3964	09/24/2006	Braun,James		1629126396	Clean Air Car Svc & Parking (NYC)	Livery-Manhattan Surcharge	A0100	SC	01/25/2018	01/25/2018	No	2	1																					Livery-Manhattan Surcharge	137910406
2504293	2249	572140690	Service	Tiffany		Lal	RC23265C	F	(347) 557-3964	09/24/2006	Braun,James		1629126396	Clean Air Car Svc & Parking (NYC)	Livery-Manhattan Surcharge	A0100	SC	01/25/2018	01/25/2018	No	2	1																					Livery-Manhattan Surcharge	137910407
2504293	2250	572140690	Service	Tiffany		Lal	RC23265C	F	(347) 557-3964	09/24/2006	Braun,James		1629126396	Clean Air Car Svc & Parking (NYC)	Mileage-Livery in NYC	S0215		01/25/2018	01/25/2018	No	2	1																					Mileage-Livery in NYC	137910406
2504293	2251	572140690	Service	Tiffany		Lal	RC23265C	F	(347) 557-3964	09/24/2006	Braun,James		1629126396	Clean Air Car Svc & Parking (NYC)	Mileage-Livery in NYC	S0215		01/25/2018	01/25/2018	No	2	1																					Mileage-Livery in NYC	137910407
2504293	2252	572168590	Leg	Wendy		Stevenson	XT15404E	F	(347) 530-8273	07/08/1968	BICHOTTE- LIGONDE, SOPHIA		1609815612	Clean Air Car Svc & Parking (NYC)	Livery/QN-Med Appt in CMMA	A0100		01/24/2018	01/24/2018	No	3	1		self	(347) 530-8273	18.1	01/24/2018	0830	18315 145th Rd	# 2 	Springfield Gardens	NY	11413	01/24/2018	0930	20620 Linden Blvd	  main	Cambria Heights	NY	11411	2.7			No	137917789
2504293	2253	572168590	Leg	Wendy		Stevenson	XT15404E	F	(347) 530-8273	07/08/1968	BICHOTTE- LIGONDE, SOPHIA		1609815612	Clean Air Car Svc & Parking (NYC)	Livery/QN-Med Appt in CMMA	A0100		01/24/2018	01/24/2018	No	3	1		self	(347) 530-8273	18.1	01/24/2018	call	20620 Linden Blvd	 main	Cambria Heights	NY	11411	01/24/2018	1400	529 Beach 20th St	  main	Far Rockaway	NY	11691	9.6			No	137917925
2504293	2254	572168590	Leg	Wendy		Stevenson	XT15404E	F	(347) 530-8273	07/08/1968	BICHOTTE- LIGONDE, SOPHIA		1609815612	Clean Air Car Svc & Parking (NYC)	Livery/QN-Med Appt in CMMA	A0100		01/24/2018	01/24/2018	No	3	1		self	(347) 530-8273	18.1	01/24/2018	call	529 Beach 20th St	 main	Far Rockaway	NY	11691	01/24/2018	Call	18315 145th Rd	# 2 	Springfield Gardens	NY	11413	5.8			No	137918058
2504293	2255	572168590	Service	Wendy		Stevenson	XT15404E	F	(347) 530-8273	07/08/1968	BICHOTTE- LIGONDE, SOPHIA		1609815612	Clean Air Car Svc & Parking (NYC)	Mileage-Livery in NYC	S0215		01/24/2018	01/24/2018	No	3	1																					Mileage-Livery in NYC	137917925
2504293	2256	572168590	Service	Wendy		Stevenson	XT15404E	F	(347) 530-8273	07/08/1968	BICHOTTE- LIGONDE, SOPHIA		1609815612	Clean Air Car Svc & Parking (NYC)	Livery/QN-Med Appt out CMMA P/S	A0100	TN	01/24/2018	01/24/2018	No	3	1																					Livery/QN-Med Appt out CMMA P/S	137917925
2504293	2257	572168590	Service	Wendy		Stevenson	XT15404E	F	(347) 530-8273	07/08/1968	BICHOTTE- LIGONDE, SOPHIA		1609815612	Clean Air Car Svc & Parking (NYC)	Livery/QN-Med Appt out CMMA P/S	A0100	TN	01/24/2018	01/24/2018	No	3	1																					Livery/QN-Med Appt out CMMA P/S	137918058
2504293	2258	572205190	Leg	Francisca		Gomez	YH75582U	F	(347) 994-7834	10/10/1956	Brooklyn Hospital Center	000	1326046467	Clean Air Car Svc & Parking (NYC)	Livery/BK-Med Appt in CMMA	A0100		01/24/2018	01/24/2018	No	2	1		mom	(347) 994-7834	3.0	01/24/2018	0730	236 Linden St	Apt 1C 	Brooklyn	NY	11221	01/24/2018	0900	760 Broadway	  self	Brooklyn	NY	11206	1.5	Additional Rider		No	137926906
2504293	2259	572205190	Leg	Francisca		Gomez	YH75582U	F	(347) 994-7834	10/10/1956	Brooklyn Hospital Center	000	1326046467	Clean Air Car Svc & Parking (NYC)	Livery/BK-Med Appt in CMMA	A0100		01/24/2018	01/24/2018	No	2	1		mom	(347) 994-7834	3.0	01/24/2018	Call	760 Broadway	 self	Brooklyn	NY	11206	01/24/2018	Call	236 Linden St	Apt 1C 	Brooklyn	NY	11221	1.5			No	137926907
2504293	2260	572266700	Leg	Arnolee	C	Kennings	ZW89517K	M	(347) 317-0198	11/23/1976	NY Presbyterian Hospital	0000000	1952332801	Clean Air Car Svc & Parking (NYC)	Livery/BX-Med Appt out CMMA	A0100	TN	01/22/2018	01/22/2018	No	1	1		CHRISTIAN@ HEALTHY LIVING	7184093646	5.1	01/22/2018	1330	2114 Williamsbridge Rd	 -	Bronx	NY	10461	01/22/2018	1430	500 W 177th St	  -	New York	NY	10033	5.1			No	137941565
2504293	2261	572266700	Service	Arnolee	C	Kennings	ZW89517K	M	(347) 317-0198	11/23/1976	NY Presbyterian Hospital	0000000	1952332801	Clean Air Car Svc & Parking (NYC)	Tolls-Universal	A0170	CG	01/22/2018	01/22/2018	No	1	1																					Tolls-Universal	137941565
2504293	2262	572304760	Leg	Yimha		Ng	SY11089M	F	(347) 698-3330	10/21/1961	NYC Health and Hospital Corp	00246039	1073535027	Clean Air Car Svc & Parking (NYC)	Livery/BK-Med Appt out CMMA	A0100	TN	01/29/2018	01/29/2018	No	2	1		self / interpreter	(347) 698-3330	41.4	01/29/2018	0830	1056 E 16th St	Ph 	Brooklyn	NY	11230	01/29/2018	0930	462 1st Ave	  main	New York	NY	10016	20.7			No	137950467
2504293	2263	572304760	Leg	Yimha		Ng	SY11089M	F	(347) 698-3330	10/21/1961	NYC Health and Hospital Corp	00246039	1073535027	Clean Air Car Svc & Parking (NYC)	Livery/BK-Med Appt out CMMA	A0100	TN	01/29/2018	01/29/2018	No	2	1		self / interpreter	(347) 698-3330	41.4	01/29/2018	Call	462 1st Ave	 main	New York	NY	10016	01/29/2018	Call	1056 E 16th St	Ph 	Brooklyn	NY	11230	20.7			No	137950473
2504293	2264	572304760	Service	Yimha		Ng	SY11089M	F	(347) 698-3330	10/21/1961	NYC Health and Hospital Corp	00246039	1073535027	Clean Air Car Svc & Parking (NYC)	Tolls-Universal	A0170	CG	01/29/2018	01/29/2018	No	2	1																					Tolls-Universal	137950467
2504293	2265	572304760	Service	Yimha		Ng	SY11089M	F	(347) 698-3330	10/21/1961	NYC Health and Hospital Corp	00246039	1073535027	Clean Air Car Svc & Parking (NYC)	Livery-Manhattan Surcharge	A0100	SC	01/29/2018	01/29/2018	No	2	1																					Livery-Manhattan Surcharge	137950467
2504293	2266	572304760	Service	Yimha		Ng	SY11089M	F	(347) 698-3330	10/21/1961	NYC Health and Hospital Corp	00246039	1073535027	Clean Air Car Svc & Parking (NYC)	Livery-Manhattan Surcharge	A0100	SC	01/29/2018	01/29/2018	No	2	1																					Livery-Manhattan Surcharge	137950473
2504293	2267	572304760	Service	Yimha		Ng	SY11089M	F	(347) 698-3330	10/21/1961	NYC Health and Hospital Corp	00246039	1073535027	Clean Air Car Svc & Parking (NYC)	Mileage-Livery in NYC	S0215		01/29/2018	01/29/2018	No	2	1																					Mileage-Livery in NYC	137950467
2504293	2268	572304760	Service	Yimha		Ng	SY11089M	F	(347) 698-3330	10/21/1961	NYC Health and Hospital Corp	00246039	1073535027	Clean Air Car Svc & Parking (NYC)	Mileage-Livery in NYC	S0215		01/29/2018	01/29/2018	No	2	1																					Mileage-Livery in NYC	137950473
2504293	2269	572332760	Leg	Maylene	A	Hawkinslingo	PT03668K	F	(631) 336-4112	09/14/2009	Queens Hospital	000	1801803903	Clean Air Car Svc & Parking (NYC)	Livery/MN-Med Appt out CMMA	A0100	TN	01/23/2018	01/23/2018	No	2	1		Unique/Mother	(631) 336-4112	41.0	01/23/2018	1500	25 Pine St	 	New York	NY	10005	01/23/2018	1600	1983 Marcus Ave	  	New Hyde Park	NY	11042	20.5	1 Additional rider(s). 1 Additional rider(s). 1 Additional rider(s). 1 Additional rider(s). Additional Rider		No	137956820
2504293	2270	572332760	Leg	Maylene	A	Hawkinslingo	PT03668K	F	(631) 336-4112	09/14/2009	Queens Hospital	000	1801803903	Clean Air Car Svc & Parking (NYC)	Livery/MN-Med Appt out CMMA	A0100	TN	01/23/2018	01/23/2018	No	2	1		Unique/Mother	(631) 336-4112	41.0	01/23/2018	Call	1983 Marcus Ave	 	New Hyde Park	NY	11042	01/23/2018	Call	25 Pine St	  	New York	NY	10005	20.5	1 Additional rider(s). 1 Additional rider(s). 1 Additional rider(s). 1 Additional rider(s). Additional Rider		No	137956828
2504293	2271	572332760	Service	Maylene	A	Hawkinslingo	PT03668K	F	(631) 336-4112	09/14/2009	Queens Hospital	000	1801803903	Clean Air Car Svc & Parking (NYC)	Tolls-Universal	A0170	CG	01/23/2018	01/23/2018	No	2	1																					Tolls-Universal	137956820
2504293	2272	572332760	Service	Maylene	A	Hawkinslingo	PT03668K	F	(631) 336-4112	09/14/2009	Queens Hospital	000	1801803903	Clean Air Car Svc & Parking (NYC)	Livery-Manhattan Surcharge	A0100	SC	01/23/2018	01/23/2018	No	2	1																					Livery-Manhattan Surcharge	137956820
2504293	2273	572332760	Service	Maylene	A	Hawkinslingo	PT03668K	F	(631) 336-4112	09/14/2009	Queens Hospital	000	1801803903	Clean Air Car Svc & Parking (NYC)	Livery-Manhattan Surcharge	A0100	SC	01/23/2018	01/23/2018	No	2	1																					Livery-Manhattan Surcharge	137956828
2504293	2274	572332760	Service	Maylene	A	Hawkinslingo	PT03668K	F	(631) 336-4112	09/14/2009	Queens Hospital	000	1801803903	Clean Air Car Svc & Parking (NYC)	Mileage-Livery out of NYC	S0215	TN	01/23/2018	01/23/2018	No	2	1																					Mileage-Livery out of NYC	137956820
2504293	2275	572332760	Service	Maylene	A	Hawkinslingo	PT03668K	F	(631) 336-4112	09/14/2009	Queens Hospital	000	1801803903	Clean Air Car Svc & Parking (NYC)	Mileage-Livery out of NYC	S0215	TN	01/23/2018	01/23/2018	No	2	1																					Mileage-Livery out of NYC	137956828
2504293	2276	572404430	Leg	Vera	A	Beliavsky	YA32283W	F	(718) 937-1435	05/04/1955	Mt Sinai of Queens	00243509	1245248939	Clean Air Car Svc & Parking (NYC)	Livery/QN-Med Appt in CMMA	A0100		01/24/2018	01/24/2018	No	2	1		Self	(718) 937-1435	3.2	01/24/2018	1500	3503 12th St	Apt 2H 	Long Island City	NY	11106	01/24/2018	1600	4105 31st Ave	  -	Astoria	NY	11103	1.6	Additional Rider		No	137973058
2504293	2277	572404430	Leg	Vera	A	Beliavsky	YA32283W	F	(718) 937-1435	05/04/1955	Mt Sinai of Queens	00243509	1245248939	Clean Air Car Svc & Parking (NYC)	Livery/QN-Med Appt in CMMA	A0100		01/24/2018	01/24/2018	No	2	1		Self	(718) 937-1435	3.2	01/24/2018	Call	4105 31st Ave	 -	Astoria	NY	11103	01/24/2018	Call	3503 12th St	Apt 2H 	Long Island City	NY	11106	1.6			No	137973059
2504293	2278	572411410	Leg	Vera	A	Beliavsky	YA32283W	F	7189371435	05/04/1955	Mt Sinai of Queens	00243509	1245248939	Clean Air Car Svc & Parking (NYC)	Livery/QN-Med Appt in CMMA	A0100		01/29/2018	01/29/2018	No	2	1		self	7189371435	3.4	01/29/2018	1000	3503 12th St	 	Long Island City	NY	11106	01/29/2018	1100	3074 36th St	  	Astoria	NY	11103	1.7			No	137975156
2504293	2279	572411410	Leg	Vera	A	Beliavsky	YA32283W	F	7189371435	05/04/1955	Mt Sinai of Queens	00243509	1245248939	Clean Air Car Svc & Parking (NYC)	Livery/QN-Med Appt in CMMA	A0100		01/29/2018	01/29/2018	No	2	1		self	7189371435	3.4	01/29/2018	CALL	3074 36th St	 	Astoria	NY	11103	01/29/2018	1100	3503 12th St	  	Long Island City	NY	11106	1.7			No	137975158
2504293	2280	572412960	Leg	Vera	A	Beliavsky	YA32283W	F	(718) 937-1435	05/04/1955	Mt Sinai of Queens	00243509	1245248939	Clean Air Car Svc & Parking (NYC)	Livery/QN-Med Appt in CMMA	A0100		01/31/2018	01/31/2018	No	2	1		Self	(718) 937-1435	2.8	01/31/2018	1430	3503 12th St	Apt 2H 	Long Island City	NY	11106	01/31/2018	1530	3114 30th Ave	  -	Astoria	NY	11102	1.4	Additional Rider		No	137975535
2504293	2281	572412960	Leg	Vera	A	Beliavsky	YA32283W	F	(718) 937-1435	05/04/1955	Mt Sinai of Queens	00243509	1245248939	Clean Air Car Svc & Parking (NYC)	Livery/QN-Med Appt in CMMA	A0100		01/31/2018	01/31/2018	No	2	1		Self	(718) 937-1435	2.8	01/31/2018	Call	3114 30th Ave	 -	Astoria	NY	11102	01/31/2018	Call	3503 12th St	Apt 2H 	Long Island City	NY	11106	1.4			No	137975536
2504293	2282	572426290	Leg	Theresa	G	Kowalski	ZZ33079T	F	(917) 881-2552	03/01/1955	Lin Lee		1902081797	Clean Air Car Svc & Parking (NYC)	Livery/MN-Med Appt in CMMA	A0100		01/24/2018	01/24/2018	No	2	1		Self	(917) 881-2552	4.4	01/24/2018	1430	17 Jackson St	Apt 1B 	New York	NY	10002	01/24/2018	1500	10 Union Sq E	  main entrance	New York	NY	10003	2.2			No	137979236
2504293	2283	572426290	Leg	Theresa	G	Kowalski	ZZ33079T	F	(917) 881-2552	03/01/1955	Lin Lee		1902081797	Clean Air Car Svc & Parking (NYC)	Livery/MN-Med Appt in CMMA	A0100		01/24/2018	01/24/2018	No	2	1		Self	(917) 881-2552	4.4	01/24/2018	Call	10 Union Sq E	 main entrance	New York	NY	10003	01/24/2018	Call	17 Jackson St	Apt 1B 	New York	NY	10002	2.2			No	137979237
2504293	2284	572426410	Leg	Theresa	G	Kowalski	ZZ33079T	F	(917) 881-2552	03/01/1955	Lin Lee		1902081797	Clean Air Car Svc & Parking (NYC)	Livery/MN-Med Appt in CMMA	A0100		01/26/2018	01/26/2018	No	2	1		Self	(917) 881-2552	4.4	01/26/2018	1330	17 Jackson St	Apt 1B 	New York	NY	10002	01/26/2018	1400	10 Union Sq E	  main entrance	New York	NY	10003	2.2			No	137979263
2504293	2285	572426410	Leg	Theresa	G	Kowalski	ZZ33079T	F	(917) 881-2552	03/01/1955	Lin Lee		1902081797	Clean Air Car Svc & Parking (NYC)	Livery/MN-Med Appt in CMMA	A0100		01/26/2018	01/26/2018	No	2	1		Self	(917) 881-2552	4.4	01/26/2018	Call	10 Union Sq E	 main entrance	New York	NY	10003	01/26/2018	Call	17 Jackson St	Apt 1B 	New York	NY	10002	2.2			No	137979264
2504293	2286	572500590	Leg	Latavia		Hedgespeth	QT22311G	F	6317039947	08/04/1996	Queens Hospital	000	1801803903	Clean Air Car Svc & Parking (NYC)	Livery/MN-Med Appt out CMMA	A0100	TN	01/25/2018	01/25/2018	No	2	1		self	6317039947	48.8	01/25/2018	0915	17708 Liberty Ave	 	Jamaica	NY	11433	01/25/2018	1015	1080 Sunrise Hwy	  	Amityville	NY	11701	24.4	1 Additional rider(s). +2		No	137996091
2504293	2287	572500590	Leg	Latavia		Hedgespeth	QT22311G	F	6317039947	08/04/1996	Queens Hospital	000	1801803903	Clean Air Car Svc & Parking (NYC)	Livery/MN-Med Appt out CMMA	A0100	TN	01/25/2018	01/25/2018	No	2	1		self	6317039947	48.8	01/25/2018	Call	1080 Sunrise Hwy	 	Amityville	NY	11701	01/25/2018	Call	17708 Liberty Ave	  	Jamaica	NY	11433	24.4	1 Additional rider(s). +2		No	137996092
2504293	2288	572500590	Service	Latavia		Hedgespeth	QT22311G	F	6317039947	08/04/1996	Queens Hospital	000	1801803903	Clean Air Car Svc & Parking (NYC)	Mileage-Livery out of NYC	S0215	TN	01/25/2018	01/25/2018	No	2	1																					Mileage-Livery out of NYC	137996091
2504293	2289	572500590	Service	Latavia		Hedgespeth	QT22311G	F	6317039947	08/04/1996	Queens Hospital	000	1801803903	Clean Air Car Svc & Parking (NYC)	Mileage-Livery out of NYC	S0215	TN	01/25/2018	01/25/2018	No	2	1																					Mileage-Livery out of NYC	137996092
2504293	2290	572503990	Leg	Li		Shu	RH99515C	M	(917) 584-0803	07/15/1935	Wu, Qiong		1992763916	Clean Air Car Svc & Parking (NYC)	Livery/QN-Med Appt in CMMA	A0100		01/25/2018	01/25/2018	No	2	1		daughter/susan	971-597-9508	6.8	01/25/2018	0800	11455 Dalian Ct	# 1FL 	College Point	NY	11356	01/25/2018	0900	13443 Maple Ave	8632804 	Flushing	NY	11355	3.4			No	137996926
2504293	2291	572503990	Leg	Li		Shu	RH99515C	M	(917) 584-0803	07/15/1935	Wu, Qiong		1992763916	Clean Air Car Svc & Parking (NYC)	Livery/QN-Med Appt in CMMA	A0100		01/25/2018	01/25/2018	No	2	1		daughter/susan	971-597-9508	6.8	01/25/2018	Call	13443 Maple Ave	8632804 	Flushing	NY	11355	01/25/2018	Call	11455 Dalian Ct	# 1FL 	College Point	NY	11356	3.4			No	137996927
2504293	2292	572505650	Leg	Li		Shu	RH99515C	M	(917) 584-0803	07/15/1935	Wu, Qiong		1992763916	Clean Air Car Svc & Parking (NYC)	Livery/QN-Med Appt in CMMA	A0100		01/26/2018	01/26/2018	No	2	1		daughter/susan133	(917) 584-0803	6.4	01/26/2018	0900	11455 Dalian Ct	# 1FL 	College Point	NY	11356	01/26/2018	1000	13338 41st Rd	  main ent	Flushing	NY	11355	3.2			No	137997345
2504293	2293	572505650	Leg	Li		Shu	RH99515C	M	(917) 584-0803	07/15/1935	Wu, Qiong		1992763916	Clean Air Car Svc & Parking (NYC)	Livery/QN-Med Appt in CMMA	A0100		01/26/2018	01/26/2018	No	2	1		daughter/susan133	(917) 584-0803	6.4	01/26/2018	Call	13338 41st Rd	 main ent	Flushing	NY	11355	01/26/2018	Call	11455 Dalian Ct	# 1FL 	College Point	NY	11356	3.2			No	137997346
2504293	2294	572540560	Leg	Lakyza		Shaw	TN36481U	F	(332) 201-6223	11/23/1999	Bronx Lebanon Hospital	000	1538230073	Clean Air Car Svc & Parking (NYC)	Livery/BX-Med Appt out CMMA	A0100	TN	01/23/2018	01/23/2018	No	2	1		self	(332) 201-6223	21.0	01/23/2018	0730	3961 Carpenter Ave	 hme	Bronx	NY	10466	01/23/2018	0830	120 W 106th St	  front	New York	NY	10025	10.5	1		No	138005179
2504293	2295	572540560	Leg	Lakyza		Shaw	TN36481U	F	(332) 201-6223	11/23/1999	Bronx Lebanon Hospital	000	1538230073	Clean Air Car Svc & Parking (NYC)	Livery/BX-Med Appt out CMMA	A0100	TN	01/23/2018	01/23/2018	No	2	1		self	(332) 201-6223	21.0	01/23/2018	Call	120 W 106th St	 front	New York	NY	10025	01/23/2018	Call	3961 Carpenter Ave	  hme	Bronx	NY	10466	10.5			No	138005180
2504293	2296	572540560	Service	Lakyza		Shaw	TN36481U	F	(332) 201-6223	11/23/1999	Bronx Lebanon Hospital	000	1538230073	Clean Air Car Svc & Parking (NYC)	Mileage-Livery in NYC	S0215		01/23/2018	01/23/2018	No	2	1																					Mileage-Livery in NYC	138005179
2504293	2297	572540560	Service	Lakyza		Shaw	TN36481U	F	(332) 201-6223	11/23/1999	Bronx Lebanon Hospital	000	1538230073	Clean Air Car Svc & Parking (NYC)	Mileage-Livery in NYC	S0215		01/23/2018	01/23/2018	No	2	1																					Mileage-Livery in NYC	138005180
2504293	2298	572540560	Service	Lakyza		Shaw	TN36481U	F	(332) 201-6223	11/23/1999	Bronx Lebanon Hospital	000	1538230073	Clean Air Car Svc & Parking (NYC)	Tolls-Universal	A0170	CG	01/23/2018	01/23/2018	No	2	1																					Tolls-Universal	138005179
2504293	2299	572540560	Service	Lakyza		Shaw	TN36481U	F	(332) 201-6223	11/23/1999	Bronx Lebanon Hospital	000	1538230073	Clean Air Car Svc & Parking (NYC)	Livery-Manhattan Surcharge	A0100	SC	01/23/2018	01/23/2018	No	2	1																					Livery-Manhattan Surcharge	138005179
2504293	2300	572540560	Service	Lakyza		Shaw	TN36481U	F	(332) 201-6223	11/23/1999	Bronx Lebanon Hospital	000	1538230073	Clean Air Car Svc & Parking (NYC)	Livery-Manhattan Surcharge	A0100	SC	01/23/2018	01/23/2018	No	2	1																					Livery-Manhattan Surcharge	138005180
2504293	2301	572540750	Leg	Stephanie		Chauncey	ZZ83521Q	F	(347) 488-5654	09/26/1960	Ramanathan Deepak		1306261086	Clean Air Car Svc & Parking (NYC)	Livery/QN-Med Appt out CMMA	A0100	TN	01/23/2018	01/23/2018	No	2	1		self	(347) 488-5654	21.0	01/23/2018	1200	4102 12th St	Apt 5C 	Long Island City	NY	11101	01/23/2018	1300	1825 Eastchester Rd	  	Bronx	NY	10461	10.5			No	138005365
2504293	2302	572540750	Leg	Stephanie		Chauncey	ZZ83521Q	F	(347) 488-5654	09/26/1960	Ramanathan Deepak		1306261086	Clean Air Car Svc & Parking (NYC)	Livery/QN-Med Appt out CMMA	A0100	TN	01/23/2018	01/23/2018	No	2	1		self	(347) 488-5654	21.0	01/23/2018	1600	1825 Eastchester Rd	 	Bronx	NY	10461	01/23/2018	1700	4102 12th St	Apt 5C 	Long Island City	NY	11101	10.5			No	138005366
2504293	2303	572540750	Service	Stephanie		Chauncey	ZZ83521Q	F	(347) 488-5654	09/26/1960	Ramanathan Deepak		1306261086	Clean Air Car Svc & Parking (NYC)	Tolls-Universal	A0170	CG	01/23/2018	01/23/2018	No	2	1																					Tolls-Universal	138005365
2504293	2304	572540750	Service	Stephanie		Chauncey	ZZ83521Q	F	(347) 488-5654	09/26/1960	Ramanathan Deepak		1306261086	Clean Air Car Svc & Parking (NYC)	Mileage-Livery in NYC	S0215		01/23/2018	01/23/2018	No	2	1																					Mileage-Livery in NYC	138005365
2504293	2305	572540750	Service	Stephanie		Chauncey	ZZ83521Q	F	(347) 488-5654	09/26/1960	Ramanathan Deepak		1306261086	Clean Air Car Svc & Parking (NYC)	Mileage-Livery in NYC	S0215		01/23/2018	01/23/2018	No	2	1																					Mileage-Livery in NYC	138005366
2504293	2306	572548860	Leg	Sharon		Caffey	XQ37608H	F	(718) 301-3775	09/04/1964	Bradnock Howard		1225002751	Clean Air Car Svc & Parking (NYC)	Livery/QN-Med Appt out CMMA	A0100	TN	01/24/2018	01/24/2018	No	4	1		SELF	(718) 301-3775	59.2	01/24/2018	0730	3441 Linden Pl	Apt 2B 	Flushing	NY	11354	01/24/2018	0830	9000 Shore Rd	  /	Brooklyn	NY	11209	20.2			No	138007056
2504293	2307	572548860	Leg	Sharon		Caffey	XQ37608H	F	(718) 301-3775	09/04/1964	Bradnock Howard		1225002751	Clean Air Car Svc & Parking (NYC)	Livery/QN-Med Appt out CMMA	A0100	TN	01/24/2018	01/24/2018	No	4	1		SELF	(718) 301-3775	59.2	01/24/2018	Call	9000 Shore Rd	 /	Brooklyn	NY	11209	01/24/2018	Call	3441 Linden Pl	Apt 2B 	Flushing	NY	11354	20.2			No	138007057
2504293	2308	572548860	Leg	Sharon		Caffey	XQ37608H	F	(718) 301-3775	09/04/1964	Bradnock Howard		1225002751	Clean Air Car Svc & Parking (NYC)	Livery/QN-Med Appt out CMMA	A0100	TN	01/24/2018	01/24/2018	No	4	1		SELF	(718) 301-3775	59.2	01/24/2018	1430	3441 Linden Pl	Apt 2B 	Flushing	NY	11354	01/24/2018	1530	1305 York Ave	  .	New York	NY	10021	9.4			No	138007081
2504293	2309	572548860	Leg	Sharon		Caffey	XQ37608H	F	(718) 301-3775	09/04/1964	Bradnock Howard		1225002751	Clean Air Car Svc & Parking (NYC)	Livery/QN-Med Appt out CMMA	A0100	TN	01/24/2018	01/24/2018	No	4	1		SELF	(718) 301-3775	59.2	01/24/2018	Call	1305 York Ave	 .	New York	NY	10021	01/24/2018	Call	3441 Linden Pl	Apt 2B 	Flushing	NY	11354	9.4			No	138007082
2504293	2310	572548860	Service	Sharon		Caffey	XQ37608H	F	(718) 301-3775	09/04/1964	Bradnock Howard		1225002751	Clean Air Car Svc & Parking (NYC)	Tolls-Universal	A0170	CG	01/24/2018	01/24/2018	No	4	1																					Tolls-Universal	138007056
2504293	2311	572548860	Service	Sharon		Caffey	XQ37608H	F	(718) 301-3775	09/04/1964	Bradnock Howard		1225002751	Clean Air Car Svc & Parking (NYC)	Mileage-Livery in NYC	S0215		01/24/2018	01/24/2018	No	4	1																					Mileage-Livery in NYC	138007056
2504293	2312	572548860	Service	Sharon		Caffey	XQ37608H	F	(718) 301-3775	09/04/1964	Bradnock Howard		1225002751	Clean Air Car Svc & Parking (NYC)	Mileage-Livery in NYC	S0215		01/24/2018	01/24/2018	No	4	1																					Mileage-Livery in NYC	138007057
2504293	2313	572548860	Service	Sharon		Caffey	XQ37608H	F	(718) 301-3775	09/04/1964	Bradnock Howard		1225002751	Clean Air Car Svc & Parking (NYC)	Mileage-Livery in NYC	S0215		01/24/2018	01/24/2018	No	4	1																					Mileage-Livery in NYC	138007081
2504293	2314	572548860	Service	Sharon		Caffey	XQ37608H	F	(718) 301-3775	09/04/1964	Bradnock Howard		1225002751	Clean Air Car Svc & Parking (NYC)	Mileage-Livery in NYC	S0215		01/24/2018	01/24/2018	No	4	1																					Mileage-Livery in NYC	138007082
2504293	2315	572548860	Service	Sharon		Caffey	XQ37608H	F	(718) 301-3775	09/04/1964	Bradnock Howard		1225002751	Clean Air Car Svc & Parking (NYC)	Livery-Manhattan Surcharge	A0100	SC	01/24/2018	01/24/2018	No	4	1																					Livery-Manhattan Surcharge	138007081
2504293	2316	572548860	Service	Sharon		Caffey	XQ37608H	F	(718) 301-3775	09/04/1964	Bradnock Howard		1225002751	Clean Air Car Svc & Parking (NYC)	Livery-Manhattan Surcharge	A0100	SC	01/24/2018	01/24/2018	No	4	1																					Livery-Manhattan Surcharge	138007082
2504293	2317	572549230	Leg	Sharon		Caffey	XQ37608H	F	(718) 301-3775	09/04/1964	Bradnock Howard		1225002751	Clean Air Car Svc & Parking (NYC)	Livery/QN-Med Appt out CMMA	A0100	TN	01/25/2018	01/25/2018	No	4	1		SELF	(718) 301-3775	58.6	01/25/2018	0800	3441 Linden Pl	Apt 2B 	Flushing	NY	11354	01/25/2018	0900	9711 3rd Ave	  .	Brooklyn	NY	11209	19.9			No	138007108
2504293	2318	572549230	Leg	Sharon		Caffey	XQ37608H	F	(718) 301-3775	09/04/1964	Bradnock Howard		1225002751	Clean Air Car Svc & Parking (NYC)	Livery/QN-Med Appt out CMMA	A0100	TN	01/25/2018	01/25/2018	No	4	1		SELF	(718) 301-3775	58.6	01/25/2018	Call	9711 3rd Ave	 .	Brooklyn	NY	11209	01/25/2018	Call	3441 Linden Pl	Apt 2B 	Flushing	NY	11354	19.9			No	138007109
2504293	2319	572549230	Leg	Sharon		Caffey	XQ37608H	F	(718) 301-3775	09/04/1964	Bradnock Howard		1225002751	Clean Air Car Svc & Parking (NYC)	Livery/QN-Med Appt out CMMA	A0100	TN	01/25/2018	01/25/2018	No	4	1		SELF	(718) 301-3775	58.6	01/25/2018	1400	3441 Linden Pl	Apt 2B 	Flushing	NY	11354	01/25/2018	1500	1305 York Ave	  .	New York	NY	10021	9.4			No	138007116
2504293	2320	572549230	Leg	Sharon		Caffey	XQ37608H	F	(718) 301-3775	09/04/1964	Bradnock Howard		1225002751	Clean Air Car Svc & Parking (NYC)	Livery/QN-Med Appt out CMMA	A0100	TN	01/25/2018	01/25/2018	No	4	1		SELF	(718) 301-3775	58.6	01/25/2018	Call	1305 York Ave	 .	New York	NY	10021	01/25/2018	Call	3441 Linden Pl	Apt 2B 	Flushing	NY	11354	9.4			No	138007117
2504293	2321	572549230	Service	Sharon		Caffey	XQ37608H	F	(718) 301-3775	09/04/1964	Bradnock Howard		1225002751	Clean Air Car Svc & Parking (NYC)	Mileage-Livery in NYC	S0215		01/25/2018	01/25/2018	No	4	1																					Mileage-Livery in NYC	138007108
2504293	2322	572549230	Service	Sharon		Caffey	XQ37608H	F	(718) 301-3775	09/04/1964	Bradnock Howard		1225002751	Clean Air Car Svc & Parking (NYC)	Mileage-Livery in NYC	S0215		01/25/2018	01/25/2018	No	4	1																					Mileage-Livery in NYC	138007109
2504293	2323	572549230	Service	Sharon		Caffey	XQ37608H	F	(718) 301-3775	09/04/1964	Bradnock Howard		1225002751	Clean Air Car Svc & Parking (NYC)	Mileage-Livery in NYC	S0215		01/25/2018	01/25/2018	No	4	1																					Mileage-Livery in NYC	138007116
2504293	2324	572549230	Service	Sharon		Caffey	XQ37608H	F	(718) 301-3775	09/04/1964	Bradnock Howard		1225002751	Clean Air Car Svc & Parking (NYC)	Mileage-Livery in NYC	S0215		01/25/2018	01/25/2018	No	4	1																					Mileage-Livery in NYC	138007117
2504293	2325	572549230	Service	Sharon		Caffey	XQ37608H	F	(718) 301-3775	09/04/1964	Bradnock Howard		1225002751	Clean Air Car Svc & Parking (NYC)	Tolls-Universal	A0170	CG	01/25/2018	01/25/2018	No	4	1																					Tolls-Universal	138007108
2504293	2326	572549230	Service	Sharon		Caffey	XQ37608H	F	(718) 301-3775	09/04/1964	Bradnock Howard		1225002751	Clean Air Car Svc & Parking (NYC)	Livery-Manhattan Surcharge	A0100	SC	01/25/2018	01/25/2018	No	4	1																					Livery-Manhattan Surcharge	138007116
2504293	2327	572549230	Service	Sharon		Caffey	XQ37608H	F	(718) 301-3775	09/04/1964	Bradnock Howard		1225002751	Clean Air Car Svc & Parking (NYC)	Livery-Manhattan Surcharge	A0100	SC	01/25/2018	01/25/2018	No	4	1																					Livery-Manhattan Surcharge	138007117
2504293	2328	572771100	Leg	Kenneth		Mayes	XN80853S	M	6319748479	07/25/1952	ST. VINCENTS SERVICES		1427220698	Clean Air Car Svc & Parking (NYC)	Livery/BK-Med Appt in CMMA	A0100		01/24/2018	01/24/2018	No	2	1		self	6319748479	4.0	01/24/2018	0830	765 Stanley Ave	 	Brooklyn	NY	11207	01/24/2018	0900	1 Brookdale Plz	  	Brooklyn	NY	11212	2.0	plus 1		No	138060812
2504293	2329	572771100	Leg	Kenneth		Mayes	XN80853S	M	6319748479	07/25/1952	ST. VINCENTS SERVICES		1427220698	Clean Air Car Svc & Parking (NYC)	Livery/BK-Med Appt in CMMA	A0100		01/24/2018	01/24/2018	No	2	1		self	6319748479	4.0	01/24/2018	CALL	1 Brookdale Plz	 	Brooklyn	NY	11212	01/24/2018	CALL	765 Stanley Ave	  	Brooklyn	NY	11207	2.0			No	138060814
2504293	2330	572773970	Leg	Kenneth		Mayes	XN80853S	M	6319748479	07/25/1952	ST. VINCENTS SERVICES		1427220698	Clean Air Car Svc & Parking (NYC)	Livery/BK-Med Appt in CMMA	A0100		01/26/2018	01/26/2018	No	2	1		self	6319748479	4.0	01/26/2018	0830	765 Stanley Ave	 	Brooklyn	NY	11207	01/26/2018	0900	1 Brookdale Plz	  	Brooklyn	NY	11212	2.0	plus 1		No	138061102
2504293	2331	572773970	Leg	Kenneth		Mayes	XN80853S	M	6319748479	07/25/1952	ST. VINCENTS SERVICES		1427220698	Clean Air Car Svc & Parking (NYC)	Livery/BK-Med Appt in CMMA	A0100		01/26/2018	01/26/2018	No	2	1		self	6319748479	4.0	01/26/2018	CALL	1 Brookdale Plz	 	Brooklyn	NY	11212	01/26/2018	CALL	765 Stanley Ave	  	Brooklyn	NY	11207	2.0			No	138061103
2504293	2332	572857720	Leg	Joseph		Katsobashvili	TU14154P	M	(917) 742-0317	12/09/1937	Queens Hospital	000	1801803903	Clean Air Car Svc & Parking (NYC)	Livery/QN-Med Appt out CMMA	A0100	TN	01/25/2018	01/25/2018	No	2	1		Michael/nephew	(917) 742-0317	15.0	01/25/2018	0900	103 19 68th Road              3m	 3m	Forest Hills	NY	11375	01/25/2018	1000	1305 York Ave	3rd floor 	New York	NY	10021	7.5	one additional rider on the way back		No	138080454
2504293	2333	572857720	Leg	Joseph		Katsobashvili	TU14154P	M	(917) 742-0317	12/09/1937	Queens Hospital	000	1801803903	Clean Air Car Svc & Parking (NYC)	Livery/QN-Med Appt out CMMA	A0100	TN	01/25/2018	01/25/2018	No	2	1		Michael/nephew	(917) 742-0317	15.0	01/25/2018	Call	1305 York Ave	3rd floor 	New York	NY	10021	01/25/2018	Call	103 19 68th Road              3m	  3m	Forest Hills	NY	11375	7.5			No	138080458
2504293	2334	572857720	Service	Joseph		Katsobashvili	TU14154P	M	(917) 742-0317	12/09/1937	Queens Hospital	000	1801803903	Clean Air Car Svc & Parking (NYC)	Tolls-Universal	A0170	CG	01/25/2018	01/25/2018	No	2	1																					Tolls-Universal	138080454
2504293	2335	572857720	Service	Joseph		Katsobashvili	TU14154P	M	(917) 742-0317	12/09/1937	Queens Hospital	000	1801803903	Clean Air Car Svc & Parking (NYC)	Livery-Manhattan Surcharge	A0100	SC	01/25/2018	01/25/2018	No	2	1																					Livery-Manhattan Surcharge	138080454
2504293	2336	572857720	Service	Joseph		Katsobashvili	TU14154P	M	(917) 742-0317	12/09/1937	Queens Hospital	000	1801803903	Clean Air Car Svc & Parking (NYC)	Livery-Manhattan Surcharge	A0100	SC	01/25/2018	01/25/2018	No	2	1																					Livery-Manhattan Surcharge	138080458
2504293	2337	572924400	Leg	Lisa		Carlos	ZU91547R	F	(347) 336-9141	04/01/1966	LI Jewish Medical Ctr		1982611190	Clean Air Car Svc & Parking (NYC)	Livery/QN-Med Appt out CMMA	A0100	TN	01/29/2018	01/29/2018	No	2	1		self	(347) 336-9141	14.8	01/29/2018	1600	10726 159th St	Apt 3A 	Jamaica	NY	11433	01/29/2018	1700	27005 76th Ave	  main	New Hyde Park	NY	11040	7.4	Additional Rider		No	138095479
2504293	2338	572924400	Leg	Lisa		Carlos	ZU91547R	F	(347) 336-9141	04/01/1966	LI Jewish Medical Ctr		1982611190	Clean Air Car Svc & Parking (NYC)	Livery/QN-Med Appt out CMMA	A0100	TN	01/29/2018	01/29/2018	No	2	1		self	(347) 336-9141	14.8	01/29/2018	Call	27005 76th Ave	 main	New Hyde Park	NY	11040	01/29/2018	Call	10726 159th St	Apt 3A 	Jamaica	NY	11433	7.4			No	138095480
2504293	2339	572927550	Leg	Fuxian		Li	QF10656N	F	(347) 237-7389	07/04/1939	Yuan Rumei		1194821603	Clean Air Car Svc & Parking (NYC)	Livery/QN-Med Appt in CMMA	A0100		01/27/2018	01/27/2018	No	2	1		self	(347) 237-7389	8.4	01/27/2018	0930	9840 64th Ave	Apt 8D 	Rego Park	NY	11374	01/27/2018	1000	13625 37th Ave	  main	Flushing	NY	11354	4.2			No	138096679
2504293	2340	572927550	Leg	Fuxian		Li	QF10656N	F	(347) 237-7389	07/04/1939	Yuan Rumei		1194821603	Clean Air Car Svc & Parking (NYC)	Livery/QN-Med Appt in CMMA	A0100		01/27/2018	01/27/2018	No	2	1		self	(347) 237-7389	8.4	01/27/2018	Call	13625 37th Ave	 main	Flushing	NY	11354	01/27/2018	Call	9840 64th Ave	Apt 8D 	Rego Park	NY	11374	4.2			No	138096693
2504293	2341	572930740	Leg	Fuxian		Li	QF10656N	F	(347) 237-7389	07/04/1939	Yuan Rumei		1194821603	Clean Air Car Svc & Parking (NYC)	Livery/QN-Med Appt in CMMA	A0100		01/30/2018	01/30/2018	No	2	1		self	(347) 237-7389	5.4	01/30/2018	1030	9840 64th Ave	Apt 8D 	Rego Park	NY	11374	01/30/2018	1100	4235 Main St	  main	Flushing	NY	11355	2.7			No	138096928
2504293	2342	572930740	Leg	Fuxian		Li	QF10656N	F	(347) 237-7389	07/04/1939	Yuan Rumei		1194821603	Clean Air Car Svc & Parking (NYC)	Livery/QN-Med Appt in CMMA	A0100		01/30/2018	01/30/2018	No	2	1		self	(347) 237-7389	5.4	01/30/2018	Call	4235 Main St	 main	Flushing	NY	11355	01/30/2018	Call	9840 64th Ave	Apt 8D 	Rego Park	NY	11374	2.7			No	138096930
2504293	2343	572960470	Leg	Daryl	W	Warfield	UC36318E	M	(347) 397-9123	11/11/1953	NY PRESBYTERIAN-QUEENS		1023053527	Clean Air Car Svc & Parking (NYC)	Livery/QN-Med Appt in CMMA	A0100		01/25/2018	01/25/2018	No	2	1		self	(347) 397-9123	5.8	01/25/2018	0800	13235 Sanford Ave	Apt 5A 	Flushing	NY	11355	01/25/2018	0900	18219 Horace Harding Expy	  	Fresh Meadows	NY	11365	2.9			No	138104203
2504293	2344	572960470	Leg	Daryl	W	Warfield	UC36318E	M	(347) 397-9123	11/11/1953	NY PRESBYTERIAN-QUEENS		1023053527	Clean Air Car Svc & Parking (NYC)	Livery/QN-Med Appt in CMMA	A0100		01/25/2018	01/25/2018	No	2	1		self	(347) 397-9123	5.8	01/25/2018	Call	18219 Horace Harding Expy	 	Fresh Meadows	NY	11365	01/25/2018	Call	13235 Sanford Ave	Apt 5A 	Flushing	NY	11355	2.9			No	138104204
2504293	2345	572967350	Leg	Cicely	I	Mclean	PF74602D	F	(202) 701-9441	09/05/1945	NY Presbyterian Hospital		1952332801	Clean Air Car Svc & Parking (NYC)	Livery/BK-Med Appt out CMMA	A0100	TN	01/24/2018	01/24/2018	No	2	1		self	(202) 701-9441	38.8	01/24/2018	1100	558 shepard ave	home 	Brooklyn	NY	11208	01/24/2018	1200	901 Stewart Ave	  main	Garden City	NY	11530	19.4			No	138105634
2504293	2346	572967350	Leg	Cicely	I	Mclean	PF74602D	F	(202) 701-9441	09/05/1945	NY Presbyterian Hospital		1952332801	Clean Air Car Svc & Parking (NYC)	Livery/BK-Med Appt out CMMA	A0100	TN	01/24/2018	01/24/2018	No	2	1		self	(202) 701-9441	38.8	01/24/2018	Call	901 Stewart Ave	 main	Garden City	NY	11530	01/24/2018	Call	558 shepard ave	home 	Brooklyn	NY	11208	19.4			No	138105635
2504293	2347	572967350	Service	Cicely	I	Mclean	PF74602D	F	(202) 701-9441	09/05/1945	NY Presbyterian Hospital		1952332801	Clean Air Car Svc & Parking (NYC)	Tolls-Universal	A0170	CG	01/24/2018	01/24/2018	No	2	1																					Tolls-Universal	138105634
2504293	2348	572967350	Service	Cicely	I	Mclean	PF74602D	F	(202) 701-9441	09/05/1945	NY Presbyterian Hospital		1952332801	Clean Air Car Svc & Parking (NYC)	Mileage-Livery out of NYC	S0215	TN	01/24/2018	01/24/2018	No	2	1																					Mileage-Livery out of NYC	138105634
2504293	2349	572967350	Service	Cicely	I	Mclean	PF74602D	F	(202) 701-9441	09/05/1945	NY Presbyterian Hospital		1952332801	Clean Air Car Svc & Parking (NYC)	Mileage-Livery out of NYC	S0215	TN	01/24/2018	01/24/2018	No	2	1																					Mileage-Livery out of NYC	138105635
2504293	2350	572992170	Leg	Yanique		Ford	SG65867E	F	6313364112	06/06/1985	NY Presbyterian Hospital		1952332801	Clean Air Car Svc & Parking (NYC)	Livery/MN-Med Appt out CMMA	A0100	TN	01/24/2018	01/24/2018	No	2	1		self	6313364112	17.6	01/24/2018	0900	25 Pine St	 	New York	NY	10005	01/24/2018	1000	2510 30th Rd	  	Long Island City	NY	11102	8.8	1 Additional rider(s). 1 Additional rider(s). 1 Additional rider(s). 1 Additional rider(s). 1 Additional rider(s). 1 Additional rider(s). 1 Additional		No	138110868
2504293	2351	572992170	Leg	Yanique		Ford	SG65867E	F	6313364112	06/06/1985	NY Presbyterian Hospital		1952332801	Clean Air Car Svc & Parking (NYC)	Livery/MN-Med Appt out CMMA	A0100	TN	01/24/2018	01/24/2018	No	2	1		self	6313364112	17.6	01/24/2018	Call	2510 30th Rd	 	Long Island City	NY	11102	01/24/2018	Call	25 Pine St	  	New York	NY	10005	8.8	1 Additional rider(s). 1 Additional rider(s). 1 Additional rider(s). 1 Additional rider(s). 1 Additional rider(s). 1 Additional rider(s). 1 Additional		No	138110869
2504293	2352	572992170	Service	Yanique		Ford	SG65867E	F	6313364112	06/06/1985	NY Presbyterian Hospital		1952332801	Clean Air Car Svc & Parking (NYC)	Mileage-Livery in NYC	S0215		01/24/2018	01/24/2018	No	2	1																					Mileage-Livery in NYC	138110868
2504293	2353	572992170	Service	Yanique		Ford	SG65867E	F	6313364112	06/06/1985	NY Presbyterian Hospital		1952332801	Clean Air Car Svc & Parking (NYC)	Mileage-Livery in NYC	S0215		01/24/2018	01/24/2018	No	2	1																					Mileage-Livery in NYC	138110869
2504293	2354	572992170	Service	Yanique		Ford	SG65867E	F	6313364112	06/06/1985	NY Presbyterian Hospital		1952332801	Clean Air Car Svc & Parking (NYC)	Tolls-Universal	A0170	CG	01/24/2018	01/24/2018	No	2	1																					Tolls-Universal	138110868
2504293	2355	572992170	Service	Yanique		Ford	SG65867E	F	6313364112	06/06/1985	NY Presbyterian Hospital		1952332801	Clean Air Car Svc & Parking (NYC)	Livery-Manhattan Surcharge	A0100	SC	01/24/2018	01/24/2018	No	2	1																					Livery-Manhattan Surcharge	138110868
2504293	2356	572992170	Service	Yanique		Ford	SG65867E	F	6313364112	06/06/1985	NY Presbyterian Hospital		1952332801	Clean Air Car Svc & Parking (NYC)	Livery-Manhattan Surcharge	A0100	SC	01/24/2018	01/24/2018	No	2	1																					Livery-Manhattan Surcharge	138110869
2504293	2357	573030640	Leg	Earl		Goodwine	SE94474U	M	9294338216	10/25/1974	Badillo Diana		1710120449	Clean Air Car Svc & Parking (NYC)	Livery/QN-Med Appt out CMMA	A0100	TN	01/25/2018	01/25/2018	No	2	1		self	9294338216	15.0	01/25/2018	1615	220 16 jamaica ave	 	Queens Village	NY	11432	01/25/2018	1715	140 Middle Neck Rd	  	Great Neck	NY	11021	7.5			No	138120945
2504293	2358	573030640	Leg	Earl		Goodwine	SE94474U	M	9294338216	10/25/1974	Badillo Diana		1710120449	Clean Air Car Svc & Parking (NYC)	Livery/QN-Med Appt out CMMA	A0100	TN	01/25/2018	01/25/2018	No	2	1		self	9294338216	15.0	01/25/2018	CALL	140 Middle Neck Rd	 	Great Neck	NY	11021	01/25/2018	CALL	220 16 jamaica ave	  	Queens Village	NY	11432	7.5			No	138120946
2504293	2359	573030640	Service	Earl		Goodwine	SE94474U	M	9294338216	10/25/1974	Badillo Diana		1710120449	Clean Air Car Svc & Parking (NYC)	Mileage-Livery out of NYC	S0215	TN	01/25/2018	01/25/2018	No	2	1																					Mileage-Livery out of NYC	138120945
2504293	2360	573030640	Service	Earl		Goodwine	SE94474U	M	9294338216	10/25/1974	Badillo Diana		1710120449	Clean Air Car Svc & Parking (NYC)	Mileage-Livery out of NYC	S0215	TN	01/25/2018	01/25/2018	No	2	1																					Mileage-Livery out of NYC	138120946
2504293	2361	573059310	Leg	Rafael		Dearce	ZS28632H	M	7187174024	10/08/1967	NY Presbyterian Hospital		1952332801	Clean Air Car Svc & Parking (NYC)	Livery/MN-Med Appt in CMMA	A0100		01/24/2018	01/24/2018	No	3	1		self	7187174024	5.0	01/24/2018	1130	1350 5th Ave	 	New York	NY	10026	01/24/2018	1230	2604 3rd Ave	  	Bronx	NY	10454	2.1	+1		No	138126500
2504293	2362	573059310	Leg	Rafael		Dearce	ZS28632H	M	7187174024	10/08/1967	NY Presbyterian Hospital		1952332801	Clean Air Car Svc & Parking (NYC)	Livery/MN-Med Appt in CMMA	A0100		01/24/2018	01/24/2018	No	3	1		self	7187174024	5.0	01/24/2018	CALL	2604 3rd Ave	 	Bronx	NY	10454	01/24/2018	CALL	1350 5th Ave	  	New York	NY	10026	2.1			No	138126501
2504293	2363	573059310	Leg	Rafael		Dearce	ZS28632H	M	7187174024	10/08/1967	NY Presbyterian Hospital		1952332801	Clean Air Car Svc & Parking (NYC)	Livery/MN-Med Appt in CMMA	A0100		01/24/2018	01/24/2018	No	3	1		self	7187174024	5.0	01/24/2018	0730	1350 5th Ave	Apt 6F 	New York	NY	10026	01/24/2018	0830	2195 3rd Ave	  -	New York	NY	10035	.8			No	138143825
2504293	2364	573059310	Leg	Rafael		Dearce	ZS28632H	M	7187174024	10/08/1967	NY Presbyterian Hospital		1952332801	Clean Air Car Svc & Parking (NYC)	Livery/MN-Med Appt in CMMA	A0100		01/24/2018	01/24/2018	No	3	1		self	7187174024	5.0	01/24/2018	Call	2195 3rd Ave	 -	New York	NY	10035	01/24/2018	Call	1350 5th Ave	Apt 6F 	New York	NY	10026	.8			No	138143826
2504293	2365	573059310	Service	Rafael		Dearce	ZS28632H	M	7187174024	10/08/1967	NY Presbyterian Hospital		1952332801	Clean Air Car Svc & Parking (NYC)	Tolls-Universal	A0170	CG	01/24/2018	01/24/2018	No	3	1																					Tolls-Universal	138126500
2504293	2366	573061440	Leg	Justina	T	Lorrius	XE28940A	F	6466391509	04/24/1990	Bronx Lebanon Hospital	000	1538230073	Clean Air Car Svc & Parking (NYC)	Livery/BX-Med Appt in CMMA	A0100		01/29/2018	01/29/2018	No	2	1		self	6466391509		01/29/2018	1100	3970 3rd Ave	 	Bronx	NY	10457	01/29/2018	1120	1276 Fulton Ave	  	Bronx	NY	10456	.9			No	138127346
2504293	2367	573061440	Leg	Justina	T	Lorrius	XE28940A	F	6466391509	04/24/1990	Bronx Lebanon Hospital	000	1538230073	Clean Air Car Svc & Parking (NYC)	Livery/BX-Med Appt in CMMA	A0100		01/29/2018	01/29/2018	No	2	1		self	6466391509		01/29/2018	CALL	1276 Fulton Ave	 	Bronx	NY	10456	01/29/2018	CALL	3970 3rd Ave	  	Bronx	NY	10457	.9			No	138127347
2504293	2368	573085380	Leg	Ingrid		Rastogi	QY13671Z	F	(646) 418-9657	02/26/1983	JHAVER, RITA		1073554721	Clean Air Car Svc & Parking (NYC)	Livery/QN-Med Appt in CMMA	A0100		01/29/2018	01/29/2018	No	2	1		self	(646) 418-9657	7.4	01/29/2018	1015	8534 148th St	 home	Jamaica	NY	11435	01/29/2018	1100	20811 Hillside Ave	8639412 	Queens Village	NY	11427	3.7	urology		No	138134081
2504293	2369	573085380	Leg	Ingrid		Rastogi	QY13671Z	F	(646) 418-9657	02/26/1983	JHAVER, RITA		1073554721	Clean Air Car Svc & Parking (NYC)	Livery/QN-Med Appt in CMMA	A0100		01/29/2018	01/29/2018	No	2	1		self	(646) 418-9657	7.4	01/29/2018	Call	20811 Hillside Ave	8639412 	Queens Village	NY	11427	01/29/2018	Call	8534 148th St	  home	Jamaica	NY	11435	3.7			No	138134082
2504293	2370	573097780	Leg	Sayema		Zaman	QE65089D	F	9296004267	11/06/1986	Nanda Deepak		1932167061	Clean Air Car Svc & Parking (NYC)	Livery/QN-Med Appt out CMMA	A0100	TN	01/24/2018	01/24/2018	No	2	1		self	9296004267	11.7	01/24/2018	0900	17545 88th Ave	 	Jamaica	NY	11432	01/24/2018	0945	450 Lakeville Rd	  	New Hyde Park	NY	11042	6.8	1 Additional Passenger		No	138138375
2504293	2371	573097780	Leg	Sayema		Zaman	QE65089D	F	9296004267	11/06/1986	Nanda Deepak		1932167061	Clean Air Car Svc & Parking (NYC)	Livery/QN-Med Appt out CMMA	A0100	TN	01/24/2018	01/24/2018	No	2	1		self	9296004267	11.7	01/24/2018	CALL	450 Lakeville Rd	 	New Hyde Park	NY	11042	01/24/2018	CALL	17545 88th Ave	  	Jamaica	NY	11432	6.8			No	138138376
2504293	2372	573097780	Leg	Sayema		Zaman	QE65089D	F	9296004267	11/06/1986	Nanda Deepak		1932167061	Clean Air Car Svc & Parking (NYC)	Livery/QN-Med Appt out CMMA	A0100	TN	01/24/2018	01/24/2018	No	2	1		self	9296004267	11.7	01/24/2018	1330	17545 88th Ave	 -	Jamaica	NY	11432	01/24/2018	1430	8615 65th Dr	  -	Rego Park	NY	11374	4.9			No	138141307
2504293	2373	573097780	Leg	Sayema		Zaman	QE65089D	F	9296004267	11/06/1986	Nanda Deepak		1932167061	Clean Air Car Svc & Parking (NYC)	Livery/QN-Med Appt out CMMA	A0100	TN	01/24/2018	01/24/2018	No	2	1		self	9296004267	11.7	01/24/2018	Call	8615 65th Dr	 -	Rego Park	NY	11374	01/24/2018	Call	17545 88th Ave	  -	Jamaica	NY	11432	4.9			No	138141308
2504293	2374	573097780	Service	Sayema		Zaman	QE65089D	F	9296004267	11/06/1986	Nanda Deepak		1932167061	Clean Air Car Svc & Parking (NYC)	Tolls-Universal	A0170	CG	01/24/2018	01/24/2018	No	2	1																					Tolls-Universal	138138375
2504293	2375	573097780	Service	Sayema		Zaman	QE65089D	F	9296004267	11/06/1986	Nanda Deepak		1932167061	Clean Air Car Svc & Parking (NYC)	Mileage-Livery out of NYC	S0215	TN	01/24/2018	01/24/2018	No	2	1																					Mileage-Livery out of NYC	138138375
2504293	2376	573097780	Service	Sayema		Zaman	QE65089D	F	9296004267	11/06/1986	Nanda Deepak		1932167061	Clean Air Car Svc & Parking (NYC)	Mileage-Livery out of NYC	S0215	TN	01/24/2018	01/24/2018	No	2	1																					Mileage-Livery out of NYC	138138376
2504293	2377	573121990	Leg	Maylene	A	Hawkinslingo	PT03668K	F	(631) 336-4112	09/14/2009	Queens Hospital	000	1801803903	Clean Air Car Svc & Parking (NYC)	Livery/QN-Med Appt out CMMA	A0100	TN	01/24/2018	01/24/2018	No	2	1		Unique/Mother	(631) 336-4112	41.8	01/24/2018	1500	25 Pine St	other 	New York	NY	10005	01/24/2018	1600	430 Lakeville Rd	8816474 	New Hyde Park	NY	11042	20.9	1 Additional rider(s). 1 Additional rider(s). 1 Additional rider(s). Additional Rider		No	138143022
2504293	2378	573121990	Leg	Maylene	A	Hawkinslingo	PT03668K	F	(631) 336-4112	09/14/2009	Queens Hospital	000	1801803903	Clean Air Car Svc & Parking (NYC)	Livery/QN-Med Appt out CMMA	A0100	TN	01/24/2018	01/24/2018	No	2	1		Unique/Mother	(631) 336-4112	41.8	01/24/2018	Call	430 Lakeville Rd	8816474 	New Hyde Park	NY	11042	01/24/2018	Call	25 Pine St	other 	New York	NY	10005	20.9	1 Additional rider(s). 1 Additional rider(s). 1 Additional rider(s). Additional Rider		No	138143024
2504293	2379	573121990	Service	Maylene	A	Hawkinslingo	PT03668K	F	(631) 336-4112	09/14/2009	Queens Hospital	000	1801803903	Clean Air Car Svc & Parking (NYC)	Tolls-Universal	A0170	CG	01/24/2018	01/24/2018	No	2	1																					Tolls-Universal	138143022
2504293	2380	573121990	Service	Maylene	A	Hawkinslingo	PT03668K	F	(631) 336-4112	09/14/2009	Queens Hospital	000	1801803903	Clean Air Car Svc & Parking (NYC)	Livery-Manhattan Surcharge	A0100	SC	01/24/2018	01/24/2018	No	2	1																					Livery-Manhattan Surcharge	138143022
2504293	2381	573121990	Service	Maylene	A	Hawkinslingo	PT03668K	F	(631) 336-4112	09/14/2009	Queens Hospital	000	1801803903	Clean Air Car Svc & Parking (NYC)	Livery-Manhattan Surcharge	A0100	SC	01/24/2018	01/24/2018	No	2	1																					Livery-Manhattan Surcharge	138143024
2504293	2382	573121990	Service	Maylene	A	Hawkinslingo	PT03668K	F	(631) 336-4112	09/14/2009	Queens Hospital	000	1801803903	Clean Air Car Svc & Parking (NYC)	Mileage-Livery out of NYC	S0215	TN	01/24/2018	01/24/2018	No	2	1																					Mileage-Livery out of NYC	138143022
2504293	2383	573121990	Service	Maylene	A	Hawkinslingo	PT03668K	F	(631) 336-4112	09/14/2009	Queens Hospital	000	1801803903	Clean Air Car Svc & Parking (NYC)	Mileage-Livery out of NYC	S0215	TN	01/24/2018	01/24/2018	No	2	1																					Mileage-Livery out of NYC	138143024
2504293	2384	573217980	Leg	Rhonda		Paden	YY64638X	F	(609) 676-7345	06/15/1961	Brooklyn Hospital Center	000	1326046467	Clean Air Car Svc & Parking (NYC)	Livery/BK-Med Appt in CMMA	A0100		01/24/2018	01/24/2018	No	2	1		self	(609) 676-7345	10.2	01/24/2018	1400	1200 Liberty Ave	 main	Brooklyn	NY	11208	01/24/2018	1500	760 Broadway	  main	Brooklyn	NY	11206	4.8			No	138165175
2504293	2385	573217980	Leg	Rhonda		Paden	YY64638X	F	(609) 676-7345	06/15/1961	Brooklyn Hospital Center	000	1326046467	Clean Air Car Svc & Parking (NYC)	Livery/BK-Med Appt in CMMA	A0100		01/24/2018	01/24/2018	No	2	1		self	(609) 676-7345	10.2	01/24/2018	Call	760 Broadway	 main	Brooklyn	NY	11206	01/24/2018	Call	1307 Loring Ave	Apt 6E 	Brooklyn	NY	11208	5.4			No	138165176
2504293	2386	573217980	Service	Rhonda		Paden	YY64638X	F	(609) 676-7345	06/15/1961	Brooklyn Hospital Center	000	1326046467	Clean Air Car Svc & Parking (NYC)	Livery/BK-Med Appt out CMMA P/S	A0100	TN	01/24/2018	01/24/2018	No	2	1																					Livery/BK-Med Appt out CMMA P/S	138165176
2504293	2387	573259950	Leg	Asad		Deas	TZ77303M	M	(347) 286-5829	05/21/1999	Brooklyn Hospital Center	000	1326046467	Clean Air Car Svc & Parking (NYC)	Livery/BK-Med Appt out CMMA	A0100	TN	01/24/2018	01/24/2018	No	2	1		Nicole/Mother	(347) 286-5829	26.8	01/24/2018	1000	816 Macon St	# 3K 	Brooklyn	NY	11233	01/24/2018	1100	26901 76th Ave	  Main	New Hyde Park	NY	11040	13.4	Mother will be accompanying enrl., Additional Rider		No	138174095
2504293	2388	573259950	Leg	Asad		Deas	TZ77303M	M	(347) 286-5829	05/21/1999	Brooklyn Hospital Center	000	1326046467	Clean Air Car Svc & Parking (NYC)	Livery/BK-Med Appt out CMMA	A0100	TN	01/24/2018	01/24/2018	No	2	1		Nicole/Mother	(347) 286-5829	26.8	01/24/2018	Call	26901 76th Ave	 Main	New Hyde Park	NY	11040	01/24/2018	Call	816 Macon St	# 3K 	Brooklyn	NY	11233	13.4			No	138174096
2504293	2389	573259950	Service	Asad		Deas	TZ77303M	M	(347) 286-5829	05/21/1999	Brooklyn Hospital Center	000	1326046467	Clean Air Car Svc & Parking (NYC)	Mileage-Livery in NYC	S0215		01/24/2018	01/24/2018	No	2	1																					Mileage-Livery in NYC	138174095
2504293	2390	573259950	Service	Asad		Deas	TZ77303M	M	(347) 286-5829	05/21/1999	Brooklyn Hospital Center	000	1326046467	Clean Air Car Svc & Parking (NYC)	Mileage-Livery in NYC	S0215		01/24/2018	01/24/2018	No	2	1																					Mileage-Livery in NYC	138174096
2504293	2391	573259950	Service	Asad		Deas	TZ77303M	M	(347) 286-5829	05/21/1999	Brooklyn Hospital Center	000	1326046467	Clean Air Car Svc & Parking (NYC)	Tolls-Universal	A0170	CG	01/24/2018	01/24/2018	No	2	1																					Tolls-Universal	138174095
2504293	2392	573315910	Leg	Yedlina	A	Lawrence	PS29073Q	F	(347) 239-6588	09/25/1960	Restaino,Susan		1083791727	Clean Air Car Svc & Parking (NYC)	Livery/QN-Med Appt in CMMA	A0100		01/25/2018	01/25/2018	No	2	1		Yedlina- enrollee	3472396588	6.6	01/25/2018	1245	11427 Inwood St	 home	Jamaica	NY	11436	01/25/2018	1345	18005 Hillside Ave	  main	Jamaica	NY	11432	3.3	has a cane		No	138187423
2504293	2393	573315910	Leg	Yedlina	A	Lawrence	PS29073Q	F	(347) 239-6588	09/25/1960	Restaino,Susan		1083791727	Clean Air Car Svc & Parking (NYC)	Livery/QN-Med Appt in CMMA	A0100		01/25/2018	01/25/2018	No	2	1		Yedlina- enrollee	3472396588	6.6	01/25/2018	Call	18005 Hillside Ave	 main	Jamaica	NY	11432	01/25/2018	Call	11427 Inwood St	  home	Jamaica	NY	11436	3.3			No	138187424
2504293	2394	573352450	Leg	Christina		Traboulsy	ZA17590R	F	(347) 312-6824	08/16/1960	Ringel Neal		1023112752	Clean Air Car Svc & Parking (NYC)	Livery/BK-Med Appt in CMMA	A0100		01/31/2018	01/31/2018	No	2	1		self	(347) 312-6824	3.8	01/31/2018	1230	1728 W 11th St	 	Brooklyn	NY	11223	01/31/2018	1330	1623 Kings Hwy	8639379 	Brooklyn	NY	11229	1.9	1 Additional rider(s). 1 Additional rider(s). 1 Additional rider(s).		No	138195491
2504293	2395	573352450	Leg	Christina		Traboulsy	ZA17590R	F	(347) 312-6824	08/16/1960	Ringel Neal		1023112752	Clean Air Car Svc & Parking (NYC)	Livery/BK-Med Appt in CMMA	A0100		01/31/2018	01/31/2018	No	2	1		self	(347) 312-6824	3.8	01/31/2018	Call	1623 Kings Hwy	8639379 	Brooklyn	NY	11229	01/31/2018	Call	1728 W 11th St	  	Brooklyn	NY	11223	1.9	1 Additional rider(s). 1 Additional rider(s). 1 Additional rider(s).		No	138195492
2504293	2396	573450480	Leg	Elaine		Winter	SN12085Y	F	(917) 406-3841	10/25/1959	Queens Hospital	000	1801803903	Clean Air Car Svc & Parking (NYC)	Livery/QN-Med Appt out CMMA	A0100	TN	01/29/2018	01/29/2018	No	2	1		self	(917) 406-3841	10.6	01/29/2018	1100	18 21 25th Road	 Home	Astoria	NY	11102	01/29/2018	1200	1184 5th Ave	  main	New York	NY	10029	5.3	s/o M/TU/W/TH/F		No	138218387
2504293	2397	573450480	Leg	Elaine		Winter	SN12085Y	F	(917) 406-3841	10/25/1959	Queens Hospital	000	1801803903	Clean Air Car Svc & Parking (NYC)	Livery/QN-Med Appt out CMMA	A0100	TN	01/29/2018	01/29/2018	No	2	1		self	(917) 406-3841	10.6	01/29/2018	Call	1184 5th Ave	 main	New York	NY	10029	01/29/2018	Call	18 21 25th Road	  Home	Astoria	NY	11102	5.3			No	138218388
2504293	2398	573450480	Service	Elaine		Winter	SN12085Y	F	(917) 406-3841	10/25/1959	Queens Hospital	000	1801803903	Clean Air Car Svc & Parking (NYC)	Tolls-Universal	A0170	CG	01/29/2018	01/29/2018	No	2	1																					Tolls-Universal	138218387
2504293	2399	573450480	Service	Elaine		Winter	SN12085Y	F	(917) 406-3841	10/25/1959	Queens Hospital	000	1801803903	Clean Air Car Svc & Parking (NYC)	Livery-Manhattan Surcharge	A0100	SC	01/29/2018	01/29/2018	No	2	1																					Livery-Manhattan Surcharge	138218387
2504293	2400	573450480	Service	Elaine		Winter	SN12085Y	F	(917) 406-3841	10/25/1959	Queens Hospital	000	1801803903	Clean Air Car Svc & Parking (NYC)	Livery-Manhattan Surcharge	A0100	SC	01/29/2018	01/29/2018	No	2	1																					Livery-Manhattan Surcharge	138218388
2504293	2401	573507400	Leg	Vera	A	Beliavsky	YA32283W	F	(718) 937-1435	05/04/1955	Mt Sinai of Queens	00243509	1245248939	Clean Air Car Svc & Parking (NYC)	Livery/QN-Med Appt in CMMA	A0100		01/26/2018	01/26/2018	No	2	1		self	(718) 937-1435	1.2	01/26/2018	1230	3503 12th St	Apt 2H 	Long Island City	NY	11106	01/26/2018	1330	3160 21st St	  main	Astoria	NY	11106	.6	Additional Rider		No	138231734
2504293	2402	573507400	Leg	Vera	A	Beliavsky	YA32283W	F	(718) 937-1435	05/04/1955	Mt Sinai of Queens	00243509	1245248939	Clean Air Car Svc & Parking (NYC)	Livery/QN-Med Appt in CMMA	A0100		01/26/2018	01/26/2018	No	2	1		self	(718) 937-1435	1.2	01/26/2018	Call	3160 21st St	 main	Astoria	NY	11106	01/26/2018	Call	3503 12th St	Apt 2H 	Long Island City	NY	11106	.6			No	138231735
2504293	2403	573528210	Leg	Gloria		Yung	UA10312F	F	(212) 349-5035	12/20/1998	NY Presbyterian Hospital	0000000	1952332801	Clean Air Car Svc & Parking (NYC)	Livery/MN-Hospital Discharge IB	A0100	TG	01/24/2018	01/24/2018	No	1	1		luis P @ Nyu Medical center	(646)501-0760	3.9	01/24/2018	1130	275 South St	Apt 13J 	New York	NY	10002	01/24/2018	1230	301 E 17th St	  main entrance	New York	NY	10003	3.9	Additional Rider, One way only		No	138237498
2504293	2404	573528210	Service	Gloria		Yung	UA10312F	F	(212) 349-5035	12/20/1998	NY Presbyterian Hospital	0000000	1952332801	Clean Air Car Svc & Parking (NYC)	Livery-Manhattan Surcharge	A0100	SC	01/24/2018	01/24/2018	No	1	1																					Livery-Manhattan Surcharge	138237498
2504293	2405	573747560	Leg	Maylene	A	Hawkinslingo	PT03668K	F	(631) 336-4112	09/14/2009	ZUCKER HILLSIDE HOSPITAL		1104990928	Clean Air Car Svc & Parking (NYC)	Livery/MN-Med Appt out CMMA	A0100	TN	01/25/2018	01/25/2018	No	2	1		yanike   from north shore medical center	7184073500  ext 4	39.2	01/25/2018	1400	25 Pine St	 home	New York	NY	10005	01/25/2018	1500	7559 263rd St	  main	Glen Oaks	NY	11004	19.6	1 Additional rider(s). +2 enrl traveling w parent		No	138286828
2504293	2406	573747560	Leg	Maylene	A	Hawkinslingo	PT03668K	F	(631) 336-4112	09/14/2009	ZUCKER HILLSIDE HOSPITAL		1104990928	Clean Air Car Svc & Parking (NYC)	Livery/MN-Med Appt out CMMA	A0100	TN	01/25/2018	01/25/2018	No	2	1		yanike   from north shore medical center	7184073500  ext 4	39.2	01/25/2018	Call	7559 263rd St	 main	Glen Oaks	NY	11004	01/25/2018	Call	25 Pine St	  home	New York	NY	10005	19.6	1 Additional rider(s). +2 enrl traveling w parent		No	138286833
2504293	2407	573747560	Service	Maylene	A	Hawkinslingo	PT03668K	F	(631) 336-4112	09/14/2009	ZUCKER HILLSIDE HOSPITAL		1104990928	Clean Air Car Svc & Parking (NYC)	Mileage-Livery in NYC	S0215		01/25/2018	01/25/2018	No	2	1																					Mileage-Livery in NYC	138286828
2504293	2408	573747560	Service	Maylene	A	Hawkinslingo	PT03668K	F	(631) 336-4112	09/14/2009	ZUCKER HILLSIDE HOSPITAL		1104990928	Clean Air Car Svc & Parking (NYC)	Mileage-Livery in NYC	S0215		01/25/2018	01/25/2018	No	2	1																					Mileage-Livery in NYC	138286833
2504293	2409	573747560	Service	Maylene	A	Hawkinslingo	PT03668K	F	(631) 336-4112	09/14/2009	ZUCKER HILLSIDE HOSPITAL		1104990928	Clean Air Car Svc & Parking (NYC)	Tolls-Universal	A0170	CG	01/25/2018	01/25/2018	No	2	1																					Tolls-Universal	138286828
2504293	2410	573747560	Service	Maylene	A	Hawkinslingo	PT03668K	F	(631) 336-4112	09/14/2009	ZUCKER HILLSIDE HOSPITAL		1104990928	Clean Air Car Svc & Parking (NYC)	Livery-Manhattan Surcharge	A0100	SC	01/25/2018	01/25/2018	No	2	1																					Livery-Manhattan Surcharge	138286828
2504293	2411	573747560	Service	Maylene	A	Hawkinslingo	PT03668K	F	(631) 336-4112	09/14/2009	ZUCKER HILLSIDE HOSPITAL		1104990928	Clean Air Car Svc & Parking (NYC)	Livery-Manhattan Surcharge	A0100	SC	01/25/2018	01/25/2018	No	2	1																					Livery-Manhattan Surcharge	138286833
2504293	2412	573762240	Leg	Arnolee	C	Kennings	ZW89517K	M	(862) 279-9174	11/23/1976	NY Presbyterian Hospital	0000000	1952332801	Clean Air Car Svc & Parking (NYC)	Livery/MN-Med Appt out CMMA	A0100	TN	01/31/2018	01/31/2018	No	2	1		leslie	(862) 279-9174	22.0	01/31/2018	1000	225 E 39th St	 	New York	NY	10016	01/31/2018	1100	1873 Wood Ave	  	Bronx	NY	10460	11.0			No	138289803
2504293	2413	573762240	Leg	Arnolee	C	Kennings	ZW89517K	M	(862) 279-9174	11/23/1976	NY Presbyterian Hospital	0000000	1952332801	Clean Air Car Svc & Parking (NYC)	Livery/MN-Med Appt out CMMA	A0100	TN	01/31/2018	01/31/2018	No	2	1		leslie	(862) 279-9174	22.0	01/31/2018	Call	1873 Wood Ave	 	Bronx	NY	10460	01/31/2018	Call	225 E 39th St	  	New York	NY	10016	11.0			No	138289804
2504293	2414	573762240	Service	Arnolee	C	Kennings	ZW89517K	M	(862) 279-9174	11/23/1976	NY Presbyterian Hospital	0000000	1952332801	Clean Air Car Svc & Parking (NYC)	Tolls-Universal	A0170	CG	01/31/2018	01/31/2018	No	2	1																					Tolls-Universal	138289803
2504293	2415	573762240	Service	Arnolee	C	Kennings	ZW89517K	M	(862) 279-9174	11/23/1976	NY Presbyterian Hospital	0000000	1952332801	Clean Air Car Svc & Parking (NYC)	Mileage-Livery in NYC	S0215		01/31/2018	01/31/2018	No	2	1																					Mileage-Livery in NYC	138289803
2504293	2416	573762240	Service	Arnolee	C	Kennings	ZW89517K	M	(862) 279-9174	11/23/1976	NY Presbyterian Hospital	0000000	1952332801	Clean Air Car Svc & Parking (NYC)	Livery-Manhattan Surcharge	A0100	SC	01/31/2018	01/31/2018	No	2	1																					Livery-Manhattan Surcharge	138289803
2504293	2417	573762240	Service	Arnolee	C	Kennings	ZW89517K	M	(862) 279-9174	11/23/1976	NY Presbyterian Hospital	0000000	1952332801	Clean Air Car Svc & Parking (NYC)	Mileage-Livery in NYC	S0215		01/31/2018	01/31/2018	No	2	1																					Mileage-Livery in NYC	138289804
2504293	2418	573762240	Service	Arnolee	C	Kennings	ZW89517K	M	(862) 279-9174	11/23/1976	NY Presbyterian Hospital	0000000	1952332801	Clean Air Car Svc & Parking (NYC)	Livery-Manhattan Surcharge	A0100	SC	01/31/2018	01/31/2018	No	2	1																					Livery-Manhattan Surcharge	138289804
2504293	2419	573762510	Leg	Yanique		Ford	SG65867E	F	6313364112	06/06/1985	NY Presbyterian Hospital		1952332801	Clean Air Car Svc & Parking (NYC)	Livery/MN-Med Appt out CMMA	A0100	TN	01/25/2018	01/25/2018	No	2	1		self	6313364112	17.6	01/25/2018	0900	25 Pine St	 	New York	NY	10005	01/25/2018	1000	2510 30th Rd	  	Long Island City	NY	11102	8.8	1 Additional rider(s). 1 Additional rider(s). 1 Additional rider(s). 1 Additional rider(s). 1 Additional rider(s). 1 Additional rider(s). 1 Additional		No	138289895
2504293	2420	573762510	Leg	Yanique		Ford	SG65867E	F	6313364112	06/06/1985	NY Presbyterian Hospital		1952332801	Clean Air Car Svc & Parking (NYC)	Livery/MN-Med Appt out CMMA	A0100	TN	01/25/2018	01/25/2018	No	2	1		self	6313364112	17.6	01/25/2018	Call	2510 30th Rd	 	Long Island City	NY	11102	01/25/2018	Call	25 Pine St	  	New York	NY	10005	8.8	1 Additional rider(s). 1 Additional rider(s). 1 Additional rider(s). 1 Additional rider(s). 1 Additional rider(s). 1 Additional rider(s). 1 Additional		No	138289896
2504293	2421	573762510	Service	Yanique		Ford	SG65867E	F	6313364112	06/06/1985	NY Presbyterian Hospital		1952332801	Clean Air Car Svc & Parking (NYC)	Mileage-Livery in NYC	S0215		01/25/2018	01/25/2018	No	2	1																					Mileage-Livery in NYC	138289895
2504293	2422	573762510	Service	Yanique		Ford	SG65867E	F	6313364112	06/06/1985	NY Presbyterian Hospital		1952332801	Clean Air Car Svc & Parking (NYC)	Mileage-Livery in NYC	S0215		01/25/2018	01/25/2018	No	2	1																					Mileage-Livery in NYC	138289896
2504293	2423	573762510	Service	Yanique		Ford	SG65867E	F	6313364112	06/06/1985	NY Presbyterian Hospital		1952332801	Clean Air Car Svc & Parking (NYC)	Tolls-Universal	A0170	CG	01/25/2018	01/25/2018	No	2	1																					Tolls-Universal	138289895
2504293	2424	573762510	Service	Yanique		Ford	SG65867E	F	6313364112	06/06/1985	NY Presbyterian Hospital		1952332801	Clean Air Car Svc & Parking (NYC)	Livery-Manhattan Surcharge	A0100	SC	01/25/2018	01/25/2018	No	2	1																					Livery-Manhattan Surcharge	138289895
2504293	2425	573762510	Service	Yanique		Ford	SG65867E	F	6313364112	06/06/1985	NY Presbyterian Hospital		1952332801	Clean Air Car Svc & Parking (NYC)	Livery-Manhattan Surcharge	A0100	SC	01/25/2018	01/25/2018	No	2	1																					Livery-Manhattan Surcharge	138289896
2504293	2426	573790590	Leg	Patricia		Dern	XE54056B	F	(718) 799-4051	03/30/1956	FLUSHING HOSPITAL MENTAL HEALTH		1811199342	Clean Air Car Svc & Parking (NYC)	Livery/QN-Med Appt in CMMA	A0100		01/30/2018	01/30/2018	No	2	1		Self	(718) 799-4051	5.6	01/30/2018	0800	1527 Murray St	# 4 	Whitestone	NY	11357	01/30/2018	0900	14601 45th Ave	  Main	Flushing	NY	11355	2.8			No	138296008
2504293	2427	573790590	Leg	Patricia		Dern	XE54056B	F	(718) 799-4051	03/30/1956	FLUSHING HOSPITAL MENTAL HEALTH		1811199342	Clean Air Car Svc & Parking (NYC)	Livery/QN-Med Appt in CMMA	A0100		01/30/2018	01/30/2018	No	2	1		Self	(718) 799-4051	5.6	01/30/2018	Call	14601 45th Ave	 Main	Flushing	NY	11355	01/30/2018	Call	1527 Murray St	# 4 	Whitestone	NY	11357	2.8			No	138296009
2504293	2428	573869920	Leg	Byron	J	Campbell	XT79395U	M	(347) 335-6980	05/16/1955	Brooklyn Hospital Center	000	1326046467	Clean Air Car Svc & Parking (NYC)	Livery/BK-Med Appt in CMMA	A0100		01/26/2018	01/26/2018	No	2	1		self	(347) 335-6980	2.4	01/26/2018	1330	783 Lenox Rd	Apt B9 	Brooklyn	NY	11203	01/26/2018	1430	4401 Avenue D	  main	Brooklyn	NY	11203	1.2			No	138313997
2504293	2429	573869920	Leg	Byron	J	Campbell	XT79395U	M	(347) 335-6980	05/16/1955	Brooklyn Hospital Center	000	1326046467	Clean Air Car Svc & Parking (NYC)	Livery/BK-Med Appt in CMMA	A0100		01/26/2018	01/26/2018	No	2	1		self	(347) 335-6980	2.4	01/26/2018	Call	4401 Avenue D	 main	Brooklyn	NY	11203	01/26/2018	Call	783 Lenox Rd	Apt B9 	Brooklyn	NY	11203	1.2			No	138313998
2504293	2430	573922290	Leg	Mustahidur	R	Raiyan	ZX76700E	M	(347) 479-7034	07/03/2016	King Mary		1659451128	Clean Air Car Svc & Parking (NYC)	Livery/BX-Med Appt in CMMA	A0100		01/26/2018	01/26/2018	No	2	1		self	(347) 479-7034	7.0	01/26/2018	0730	1560 Unionport Rd	 -	Bronx	NY	10462	01/26/2018	0800	3415 Bainbridge Ave	  -	Bronx	NY	10467	3.5	Additional Rider		No	138326691
2504293	2431	573922290	Leg	Mustahidur	R	Raiyan	ZX76700E	M	(347) 479-7034	07/03/2016	King Mary		1659451128	Clean Air Car Svc & Parking (NYC)	Livery/BX-Med Appt in CMMA	A0100		01/26/2018	01/26/2018	No	2	1		self	(347) 479-7034	7.0	01/26/2018	Call	3415 Bainbridge Ave	 -	Bronx	NY	10467	01/26/2018	Call	1560 Unionport Rd	  -	Bronx	NY	10462	3.5			No	138326692
2504293	2432	573992850	Leg	Xiaofang		Luo	KF17862J	F	(347) 527-8655	11/02/1945	Brooklyn Hospital Center	000	1326046467	Clean Air Car Svc & Parking (NYC)	Livery/BK-Med Appt out CMMA	A0100	TN	01/25/2018	01/25/2018	No	2	1		Jessie-Daughter	(347) 527-8655	36.0	01/25/2018	0730	35 Oliver St	apt 4h 	Brooklyn	NY	11209	01/25/2018	0830	5645 Main St	  Main	Flushing	NY	11355	18.0	Additional Rider		No	138341872
2504293	2433	573992850	Leg	Xiaofang		Luo	KF17862J	F	(347) 527-8655	11/02/1945	Brooklyn Hospital Center	000	1326046467	Clean Air Car Svc & Parking (NYC)	Livery/BK-Med Appt out CMMA	A0100	TN	01/25/2018	01/25/2018	No	2	1		Jessie-Daughter	(347) 527-8655	36.0	01/25/2018	Call	5645 Main St	 Main	Flushing	NY	11355	01/25/2018	Call	35 Oliver St	apt 4h 	Brooklyn	NY	11209	18.0			No	138341873
2504293	2434	573992850	Service	Xiaofang		Luo	KF17862J	F	(347) 527-8655	11/02/1945	Brooklyn Hospital Center	000	1326046467	Clean Air Car Svc & Parking (NYC)	Tolls-Universal	A0170	CG	01/25/2018	01/25/2018	No	2	1																					Tolls-Universal	138341872
2504293	2435	573992850	Service	Xiaofang		Luo	KF17862J	F	(347) 527-8655	11/02/1945	Brooklyn Hospital Center	000	1326046467	Clean Air Car Svc & Parking (NYC)	Mileage-Livery in NYC	S0215		01/25/2018	01/25/2018	No	2	1																					Mileage-Livery in NYC	138341872
2504293	2436	573992850	Service	Xiaofang		Luo	KF17862J	F	(347) 527-8655	11/02/1945	Brooklyn Hospital Center	000	1326046467	Clean Air Car Svc & Parking (NYC)	Mileage-Livery in NYC	S0215		01/25/2018	01/25/2018	No	2	1																					Mileage-Livery in NYC	138341873
2504293	2437	573995780	Leg	Xiaofang		Luo	KF17862J	F	(347) 527-8655	11/02/1945	Brooklyn Hospital Center	000	1326046467	Clean Air Car Svc & Parking (NYC)	Livery/BK-Med Appt out CMMA	A0100	TN	01/31/2018	01/31/2018	Yes	2	1		Jessie-Daughter	(347) 527-8655	36.2	01/31/2018	1030	35 Oliver St	apt 4h 	Brooklyn	NY	11209	01/31/2018	1130	4235 Main St	  Main	Flushing	NY	11355	18.1	S/O Wed, Additional Rider		No	138343173
2504293	2438	573995780	Leg	Xiaofang		Luo	KF17862J	F	(347) 527-8655	11/02/1945	Brooklyn Hospital Center	000	1326046467	Clean Air Car Svc & Parking (NYC)	Livery/BK-Med Appt out CMMA	A0100	TN	01/31/2018	01/31/2018	Yes	2	1		Jessie-Daughter	(347) 527-8655	36.2	01/31/2018	Call	4235 Main St	 Main	Flushing	NY	11355	01/31/2018	Call	35 Oliver St	apt 4h 	Brooklyn	NY	11209	18.1			No	138343174
2504293	2439	573995780	Service	Xiaofang		Luo	KF17862J	F	(347) 527-8655	11/02/1945	Brooklyn Hospital Center	000	1326046467	Clean Air Car Svc & Parking (NYC)	Tolls-Universal	A0170	CG	01/31/2018	01/31/2018	Yes	2	1																					Tolls-Universal	138343173
2504293	2440	573995780	Service	Xiaofang		Luo	KF17862J	F	(347) 527-8655	11/02/1945	Brooklyn Hospital Center	000	1326046467	Clean Air Car Svc & Parking (NYC)	Mileage-Livery in NYC	S0215		01/31/2018	01/31/2018	Yes	2	1																					Mileage-Livery in NYC	138343173
2504293	2441	573995780	Service	Xiaofang		Luo	KF17862J	F	(347) 527-8655	11/02/1945	Brooklyn Hospital Center	000	1326046467	Clean Air Car Svc & Parking (NYC)	Mileage-Livery in NYC	S0215		01/31/2018	01/31/2018	Yes	2	1																					Mileage-Livery in NYC	138343174
2504293	2442	574044760	Leg	Sharon		Caffey	XQ37608H	F	7183013775	09/04/1964	Bradnock Howard		1225002751	Clean Air Car Svc & Parking (NYC)	Livery/QN-Med Appt out CMMA	A0100	TN	01/27/2018	01/27/2018	No	4	1		self	7183013775	62.2	01/27/2018	0730	3441 Linden Pl	 	Flushing	NY	11354	01/27/2018	0830	153 Bay 26th St	  	Brooklyn	NY	11214	21.6			No	138355605
2504293	2443	574044760	Leg	Sharon		Caffey	XQ37608H	F	7183013775	09/04/1964	Bradnock Howard		1225002751	Clean Air Car Svc & Parking (NYC)	Livery/QN-Med Appt out CMMA	A0100	TN	01/27/2018	01/27/2018	No	4	1		self	7183013775	62.2	01/27/2018	CALL	153 Bay 26th St	 	Brooklyn	NY	11214	01/27/2018	CALL	3441 Linden Pl	  	Flushing	NY	11354	21.6			No	138355606
2504293	2444	574044760	Leg	Sharon		Caffey	XQ37608H	F	7183013775	09/04/1964	Bradnock Howard		1225002751	Clean Air Car Svc & Parking (NYC)	Livery/QN-Med Appt out CMMA	A0100	TN	01/27/2018	01/27/2018	No	4	1		self	7183013775	62.2	01/27/2018	1430	3441 Linden Pl	Apt 2B 	Flushing	NY	11354	01/27/2018	1530	520 E 70th St	  main	New York	NY	10021	9.5			No	138356986
2504293	2445	574044760	Leg	Sharon		Caffey	XQ37608H	F	7183013775	09/04/1964	Bradnock Howard		1225002751	Clean Air Car Svc & Parking (NYC)	Livery/QN-Med Appt out CMMA	A0100	TN	01/27/2018	01/27/2018	No	4	1		self	7183013775	62.2	01/27/2018	Call	520 E 70th St	 main	New York	NY	10021	01/27/2018	Call	3441 Linden Pl	Apt 2B 	Flushing	NY	11354	9.5			No	138356987
2504293	2446	574044760	Service	Sharon		Caffey	XQ37608H	F	7183013775	09/04/1964	Bradnock Howard		1225002751	Clean Air Car Svc & Parking (NYC)	Tolls-Universal	A0170	CG	01/27/2018	01/27/2018	No	4	1																					Tolls-Universal	138355605
2504293	2447	574044760	Service	Sharon		Caffey	XQ37608H	F	7183013775	09/04/1964	Bradnock Howard		1225002751	Clean Air Car Svc & Parking (NYC)	Mileage-Livery in NYC	S0215		01/27/2018	01/27/2018	No	4	1																					Mileage-Livery in NYC	138355605
2504293	2448	574044760	Service	Sharon		Caffey	XQ37608H	F	7183013775	09/04/1964	Bradnock Howard		1225002751	Clean Air Car Svc & Parking (NYC)	Mileage-Livery in NYC	S0215		01/27/2018	01/27/2018	No	4	1																					Mileage-Livery in NYC	138355606
2504293	2449	574044760	Service	Sharon		Caffey	XQ37608H	F	7183013775	09/04/1964	Bradnock Howard		1225002751	Clean Air Car Svc & Parking (NYC)	Mileage-Livery in NYC	S0215		01/27/2018	01/27/2018	No	4	1																					Mileage-Livery in NYC	138356986
2504293	2450	574044760	Service	Sharon		Caffey	XQ37608H	F	7183013775	09/04/1964	Bradnock Howard		1225002751	Clean Air Car Svc & Parking (NYC)	Mileage-Livery in NYC	S0215		01/27/2018	01/27/2018	No	4	1																					Mileage-Livery in NYC	138356987
2504293	2451	574044760	Service	Sharon		Caffey	XQ37608H	F	7183013775	09/04/1964	Bradnock Howard		1225002751	Clean Air Car Svc & Parking (NYC)	Livery-Manhattan Surcharge	A0100	SC	01/27/2018	01/27/2018	No	4	1																					Livery-Manhattan Surcharge	138356986
2504293	2452	574044760	Service	Sharon		Caffey	XQ37608H	F	7183013775	09/04/1964	Bradnock Howard		1225002751	Clean Air Car Svc & Parking (NYC)	Livery-Manhattan Surcharge	A0100	SC	01/27/2018	01/27/2018	No	4	1																					Livery-Manhattan Surcharge	138356987
2504293	2453	574059540	Leg	John	F	Harmon	ST38406Z	M	(347) 848-5261	01/19/1961	NEWTOWN DIALYSIS CENTER		1013915222	Clean Air Car Svc & Parking (NYC)	Livery/QN-Med Appt in CMMA	A0100		01/26/2018	01/26/2018	No	2	1		self	(347) 848-5261	7.4	01/26/2018	0700	4112 10th St	Apt 2F 	Long Island City	NY	11101	01/26/2018	0800	560 1st Ave	  	New York	NY	10016	3.7	1 Additional rider(s). 1 Additional rider(s). 1 Additional rider(s). 1 Additional rider(s). Additional Rider		No	138358588
2504293	2454	574059540	Leg	John	F	Harmon	ST38406Z	M	(347) 848-5261	01/19/1961	NEWTOWN DIALYSIS CENTER		1013915222	Clean Air Car Svc & Parking (NYC)	Livery/QN-Med Appt in CMMA	A0100		01/26/2018	01/26/2018	No	2	1		self	(347) 848-5261	7.4	01/26/2018	Call	560 1st Ave	 	New York	NY	10016	01/26/2018	Call	4112 10th St	Apt 2F 	Long Island City	NY	11101	3.7	1 Additional rider(s). 1 Additional rider(s). 1 Additional rider(s). 1 Additional rider(s). Additional Rider		No	138358589
2504293	2455	574059540	Service	John	F	Harmon	ST38406Z	M	(347) 848-5261	01/19/1961	NEWTOWN DIALYSIS CENTER		1013915222	Clean Air Car Svc & Parking (NYC)	Tolls-Universal	A0170	CG	01/26/2018	01/26/2018	No	2	1																					Tolls-Universal	138358588
2504293	2456	574059540	Service	John	F	Harmon	ST38406Z	M	(347) 848-5261	01/19/1961	NEWTOWN DIALYSIS CENTER		1013915222	Clean Air Car Svc & Parking (NYC)	Livery-Manhattan Surcharge	A0100	SC	01/26/2018	01/26/2018	No	2	1																					Livery-Manhattan Surcharge	138358588
2504293	2457	574059540	Service	John	F	Harmon	ST38406Z	M	(347) 848-5261	01/19/1961	NEWTOWN DIALYSIS CENTER		1013915222	Clean Air Car Svc & Parking (NYC)	Livery-Manhattan Surcharge	A0100	SC	01/26/2018	01/26/2018	No	2	1																					Livery-Manhattan Surcharge	138358589
2504293	2458	574099480	Leg	Nydia		Vasquez	ZR93788C	F	3476311085	08/09/1953	Staten Island Drug Rehab		1407877137	Clean Air Car Svc & Parking (NYC)	Livery/BK-Med Appt out CMMA	A0100	TN	01/31/2018	01/31/2018	No	2	1		self	3476311085	19.0	01/31/2018	0600	463 Avenue Y	 	Brooklyn	NY	11223	01/31/2018	0700	567 E 105th St	  	Brooklyn	NY	11236	9.5			No	138366691
2504293	2459	574099480	Leg	Nydia		Vasquez	ZR93788C	F	3476311085	08/09/1953	Staten Island Drug Rehab		1407877137	Clean Air Car Svc & Parking (NYC)	Livery/BK-Med Appt out CMMA	A0100	TN	01/31/2018	01/31/2018	No	2	1		self	3476311085	19.0	01/31/2018	CALL	567 E 105th St	 	Brooklyn	NY	11236	01/31/2018	CALL	463 Avenue Y	  	Brooklyn	NY	11223	9.5			No	138366692
2504293	2460	574099480	Service	Nydia		Vasquez	ZR93788C	F	3476311085	08/09/1953	Staten Island Drug Rehab		1407877137	Clean Air Car Svc & Parking (NYC)	Mileage-Livery in NYC	S0215		01/31/2018	01/31/2018	No	2	1																					Mileage-Livery in NYC	138366691
2504293	2461	574099480	Service	Nydia		Vasquez	ZR93788C	F	3476311085	08/09/1953	Staten Island Drug Rehab		1407877137	Clean Air Car Svc & Parking (NYC)	Mileage-Livery in NYC	S0215		01/31/2018	01/31/2018	No	2	1																					Mileage-Livery in NYC	138366692
2504293	2462	574128810	Leg	Ashley	M	Li	PE16319D	F		11/17/2010	NYU Langone Medical Center		1871799502	Clean Air Car Svc & Parking (NYC)	Livery/QN-Med Appt out CMMA	A0100	TN	01/29/2018	01/29/2018	No	2	1		Cindy L@ Charles B Wong	718+886-1212*1602	21.4	01/29/2018	1430	14230 Barclay Ave	 	Flushing	NY	11355	01/29/2018	1530	240 E 38th St	- 	New York	NY	10016	9.7	Additional Rider		No	138374473
2504293	2463	574128810	Leg	Ashley	M	Li	PE16319D	F		11/17/2010	NYU Langone Medical Center		1871799502	Clean Air Car Svc & Parking (NYC)	Livery/QN-Med Appt out CMMA	A0100	TN	01/29/2018	01/29/2018	No	2	1		Cindy L@ Charles B Wong	718+886-1212*1602	21.4	01/29/2018	Call	240 E 38th St	- 	New York	NY	10016	01/29/2018	Call	154 20 Bayside Ave            2	  	Flushing	NY	11354	11.7			No	138374474
2504293	2464	574128810	Service	Ashley	M	Li	PE16319D	F		11/17/2010	NYU Langone Medical Center		1871799502	Clean Air Car Svc & Parking (NYC)	Tolls-Universal	A0170	CG	01/29/2018	01/29/2018	No	2	1																					Tolls-Universal	138374473
2504293	2465	574128810	Service	Ashley	M	Li	PE16319D	F		11/17/2010	NYU Langone Medical Center		1871799502	Clean Air Car Svc & Parking (NYC)	Livery-Manhattan Surcharge	A0100	SC	01/29/2018	01/29/2018	No	2	1																					Livery-Manhattan Surcharge	138374473
2504293	2466	574128810	Service	Ashley	M	Li	PE16319D	F		11/17/2010	NYU Langone Medical Center		1871799502	Clean Air Car Svc & Parking (NYC)	Livery-Manhattan Surcharge	A0100	SC	01/29/2018	01/29/2018	No	2	1																					Livery-Manhattan Surcharge	138374474
2504293	2467	574128810	Service	Ashley	M	Li	PE16319D	F		11/17/2010	NYU Langone Medical Center		1871799502	Clean Air Car Svc & Parking (NYC)	Mileage-Livery in NYC	S0215		01/29/2018	01/29/2018	No	2	1																					Mileage-Livery in NYC	138374473
2504293	2468	574128810	Service	Ashley	M	Li	PE16319D	F		11/17/2010	NYU Langone Medical Center		1871799502	Clean Air Car Svc & Parking (NYC)	Mileage-Livery in NYC	S0215		01/29/2018	01/29/2018	No	2	1																					Mileage-Livery in NYC	138374474
2504293	2469	574159830	Leg	Lochan		Seeparsad	KD52413A	M	(347) 500-4614	05/11/1964	Queens Hospital	000	1801803903	Clean Air Car Svc & Parking (NYC)	Livery/BK-Med Appt in CMMA	A0100		01/26/2018	01/26/2018	Yes	4	1		self	(347) 500-4614	40.2	01/26/2018	0700	10459 121st St	 home	South Richmond Hill	NY	11419	01/26/2018	0800	8906 135th St	  main	Jamaica	NY	11418	2.0			No	138380679
2504293	2470	574159830	Leg	Lochan		Seeparsad	KD52413A	M	(347) 500-4614	05/11/1964	Queens Hospital	000	1801803903	Clean Air Car Svc & Parking (NYC)	Livery/BK-Med Appt in CMMA	A0100		01/26/2018	01/26/2018	Yes	4	1		self	(347) 500-4614	40.2	01/26/2018	Call	8906 135th St	 main	Jamaica	NY	11418	01/26/2018	Call	10459 121st St	  home	South Richmond Hill	NY	11419	2.0			No	138380680
2504293	2471	574159830	Leg	Lochan		Seeparsad	KD52413A	M	(347) 500-4614	05/11/1964	Queens Hospital	000	1801803903	Clean Air Car Svc & Parking (NYC)	Livery/BK-Med Appt in CMMA	A0100		01/26/2018	01/26/2018	Yes	4	1		self	(347) 500-4614	40.2	01/26/2018	1000	10459 121st St	 	South Richmond Hill	NY	11419	01/26/2018	1100	177 Fort Washington Ave	  	New York	NY	10032	18.1	s/o mon, wed, fri		No	138381080
2504293	2472	574159830	Leg	Lochan		Seeparsad	KD52413A	M	(347) 500-4614	05/11/1964	Queens Hospital	000	1801803903	Clean Air Car Svc & Parking (NYC)	Livery/BK-Med Appt in CMMA	A0100		01/26/2018	01/26/2018	Yes	4	1		self	(347) 500-4614	40.2	01/26/2018	Call	177 Fort Washington Ave	 	New York	NY	10032	01/26/2018	Call	10459 121st St	  	South Richmond Hill	NY	11419	18.1			No	138381081
2504293	2473	574159830	Service	Lochan		Seeparsad	KD52413A	M	(347) 500-4614	05/11/1964	Queens Hospital	000	1801803903	Clean Air Car Svc & Parking (NYC)	Mileage-Livery in NYC	S0215		01/26/2018	01/26/2018	Yes	4	1																					Mileage-Livery in NYC	138381080
2504293	2474	574159830	Service	Lochan		Seeparsad	KD52413A	M	(347) 500-4614	05/11/1964	Queens Hospital	000	1801803903	Clean Air Car Svc & Parking (NYC)	Mileage-Livery in NYC	S0215		01/26/2018	01/26/2018	Yes	4	1																					Mileage-Livery in NYC	138381081
2504293	2475	574159830	Service	Lochan		Seeparsad	KD52413A	M	(347) 500-4614	05/11/1964	Queens Hospital	000	1801803903	Clean Air Car Svc & Parking (NYC)	Tolls-Universal	A0170	CG	01/26/2018	01/26/2018	Yes	4	1																					Tolls-Universal	138381080
2504293	2476	574159830	Service	Lochan		Seeparsad	KD52413A	M	(347) 500-4614	05/11/1964	Queens Hospital	000	1801803903	Clean Air Car Svc & Parking (NYC)	Livery/BK-Med Appt out CMMA P/S	A0100	TN	01/26/2018	01/26/2018	Yes	4	1																					Livery/BK-Med Appt out CMMA P/S	138381080
2504293	2477	574159830	Service	Lochan		Seeparsad	KD52413A	M	(347) 500-4614	05/11/1964	Queens Hospital	000	1801803903	Clean Air Car Svc & Parking (NYC)	Livery/BK-Med Appt out CMMA P/S	A0100	TN	01/26/2018	01/26/2018	Yes	4	1																					Livery/BK-Med Appt out CMMA P/S	138381081
2504293	2478	574176480	Leg	Gitty		Brotsztein	UV46980S	F	(718) 633-0707	12/02/1987	Brooklyn Hospital Center	000	1326046467	Clean Air Car Svc & Parking (NYC)	Livery/BK-Med Appt out CMMA	A0100	TN	01/25/2018	01/25/2018	No	2	1		Self	(718) 633-0707	24.8	01/25/2018	1600	1360 48th St	Apt D5 	Brooklyn	NY	11219	01/25/2018	1700	157 E 80th St	  Main	New York	NY	10075	12.4	Please Call 6467081786		No	138384259
2504293	2479	574176480	Leg	Gitty		Brotsztein	UV46980S	F	(718) 633-0707	12/02/1987	Brooklyn Hospital Center	000	1326046467	Clean Air Car Svc & Parking (NYC)	Livery/BK-Med Appt out CMMA	A0100	TN	01/25/2018	01/25/2018	No	2	1		Self	(718) 633-0707	24.8	01/25/2018	Call	157 E 80th St	 Main	New York	NY	10075	01/25/2018	Call	1360 48th St	Apt D5 	Brooklyn	NY	11219	12.4			No	138384260
2504293	2480	574176480	Service	Gitty		Brotsztein	UV46980S	F	(718) 633-0707	12/02/1987	Brooklyn Hospital Center	000	1326046467	Clean Air Car Svc & Parking (NYC)	Mileage-Livery in NYC	S0215		01/25/2018	01/25/2018	No	2	1																					Mileage-Livery in NYC	138384259
2504293	2481	574176480	Service	Gitty		Brotsztein	UV46980S	F	(718) 633-0707	12/02/1987	Brooklyn Hospital Center	000	1326046467	Clean Air Car Svc & Parking (NYC)	Mileage-Livery in NYC	S0215		01/25/2018	01/25/2018	No	2	1																					Mileage-Livery in NYC	138384260
2504293	2482	574176480	Service	Gitty		Brotsztein	UV46980S	F	(718) 633-0707	12/02/1987	Brooklyn Hospital Center	000	1326046467	Clean Air Car Svc & Parking (NYC)	Tolls-Universal	A0170	CG	01/25/2018	01/25/2018	No	2	1																					Tolls-Universal	138384259
2504293	2483	574176480	Service	Gitty		Brotsztein	UV46980S	F	(718) 633-0707	12/02/1987	Brooklyn Hospital Center	000	1326046467	Clean Air Car Svc & Parking (NYC)	Livery-Manhattan Surcharge	A0100	SC	01/25/2018	01/25/2018	No	2	1																					Livery-Manhattan Surcharge	138384259
2504293	2484	574176480	Service	Gitty		Brotsztein	UV46980S	F	(718) 633-0707	12/02/1987	Brooklyn Hospital Center	000	1326046467	Clean Air Car Svc & Parking (NYC)	Livery-Manhattan Surcharge	A0100	SC	01/25/2018	01/25/2018	No	2	1																					Livery-Manhattan Surcharge	138384260
2504293	2485	574187250	Leg	Frances	E	Batista	ZN65296Z	F	(718) 678-7588	02/22/1962	DELIA, JOANNA		1821245689	Clean Air Car Svc & Parking (NYC)	Livery/QN-Med Appt out CMMA	A0100	TN	01/30/2018	01/30/2018	Yes	2	1		self	(718) 678-7588	22.4	01/30/2018	1300	25964 149th Ave	# 2 	Rosedale	NY	11422	01/30/2018	1400	9131 Queens Blvd	  main	Elmhurst	NY	11373	11.2	s/o tues.		No	138387023
2504293	2486	574187250	Leg	Frances	E	Batista	ZN65296Z	F	(718) 678-7588	02/22/1962	DELIA, JOANNA		1821245689	Clean Air Car Svc & Parking (NYC)	Livery/QN-Med Appt out CMMA	A0100	TN	01/30/2018	01/30/2018	Yes	2	1		self	(718) 678-7588	22.4	01/30/2018	call	9131 Queens Blvd	 main	Elmhurst	NY	11373	01/30/2018		25964 149th Ave	# 2 	Rosedale	NY	11422	11.2			No	138387024
2504293	2487	574187250	Service	Frances	E	Batista	ZN65296Z	F	(718) 678-7588	02/22/1962	DELIA, JOANNA		1821245689	Clean Air Car Svc & Parking (NYC)	Mileage-Livery in NYC	S0215		01/30/2018	01/30/2018	Yes	2	1																					Mileage-Livery in NYC	138387023
2504293	2488	574187250	Service	Frances	E	Batista	ZN65296Z	F	(718) 678-7588	02/22/1962	DELIA, JOANNA		1821245689	Clean Air Car Svc & Parking (NYC)	Mileage-Livery in NYC	S0215		01/30/2018	01/30/2018	Yes	2	1																					Mileage-Livery in NYC	138387024
2504293	2489	574273240	Leg	Reshma		Maharaj	KD54352J	F	(347) 500-4614	11/06/1980	Mcdonald Annmarie		1003976341	Clean Air Car Svc & Parking (NYC)	Livery/QN-Med Appt out CMMA	A0100	TN	01/30/2018	01/30/2018	Yes	4	1		self	(347) 500-4614	70.4	01/30/2018	0630	10459 121st St	 home	South Richmond Hill	NY	11419	01/30/2018	0730	622 W 168th St	  main	New York	NY	10032	17.6			No	138408173
2504293	2490	574273240	Leg	Reshma		Maharaj	KD54352J	F	(347) 500-4614	11/06/1980	Mcdonald Annmarie		1003976341	Clean Air Car Svc & Parking (NYC)	Livery/QN-Med Appt out CMMA	A0100	TN	01/30/2018	01/30/2018	Yes	4	1		self	(347) 500-4614	70.4	01/30/2018	Call	622 W 168th St	 main	New York	NY	10032	01/30/2018	Call	10459 121st St	  home	South Richmond Hill	NY	11419	17.6			No	138408174
2504293	2491	574273240	Leg	Reshma		Maharaj	KD54352J	F	(347) 500-4614	11/06/1980	Mcdonald Annmarie		1003976341	Clean Air Car Svc & Parking (NYC)	Livery/QN-Med Appt out CMMA	A0100	TN	01/30/2018	01/30/2018	Yes	4	1		self	(347) 500-4614	70.4	01/30/2018	0630	10459 121st St	 home	South Richmond Hill	NY	11419	01/30/2018	0730	622 W 168th St	  main	New York	NY	10032	17.6			No	138409145
2504293	2492	574273240	Leg	Reshma		Maharaj	KD54352J	F	(347) 500-4614	11/06/1980	Mcdonald Annmarie		1003976341	Clean Air Car Svc & Parking (NYC)	Livery/QN-Med Appt out CMMA	A0100	TN	01/30/2018	01/30/2018	Yes	4	1		self	(347) 500-4614	70.4	01/30/2018	Call	622 W 168th St	 main	New York	NY	10032	01/30/2018		10459 121st St	  home	South Richmond Hill	NY	11419	17.6			No	138409148
2504293	2493	574273240	Service	Reshma		Maharaj	KD54352J	F	(347) 500-4614	11/06/1980	Mcdonald Annmarie		1003976341	Clean Air Car Svc & Parking (NYC)	Mileage-Livery in NYC	S0215		01/30/2018	01/30/2018	Yes	4	1																					Mileage-Livery in NYC	138408173
2504293	2494	574273240	Service	Reshma		Maharaj	KD54352J	F	(347) 500-4614	11/06/1980	Mcdonald Annmarie		1003976341	Clean Air Car Svc & Parking (NYC)	Mileage-Livery in NYC	S0215		01/30/2018	01/30/2018	Yes	4	1																					Mileage-Livery in NYC	138408174
2504293	2495	574273240	Service	Reshma		Maharaj	KD54352J	F	(347) 500-4614	11/06/1980	Mcdonald Annmarie		1003976341	Clean Air Car Svc & Parking (NYC)	Mileage-Livery in NYC	S0215		01/30/2018	01/30/2018	Yes	4	1																					Mileage-Livery in NYC	138409145
2504293	2496	574273240	Service	Reshma		Maharaj	KD54352J	F	(347) 500-4614	11/06/1980	Mcdonald Annmarie		1003976341	Clean Air Car Svc & Parking (NYC)	Mileage-Livery in NYC	S0215		01/30/2018	01/30/2018	Yes	4	1																					Mileage-Livery in NYC	138409148
2504293	2497	574273240	Service	Reshma		Maharaj	KD54352J	F	(347) 500-4614	11/06/1980	Mcdonald Annmarie		1003976341	Clean Air Car Svc & Parking (NYC)	Tolls-Universal	A0170	CG	01/30/2018	01/30/2018	Yes	4	1																					Tolls-Universal	138408173
2504293	2498	574300240	Leg	Vera	A	Beliavsky	YA32283W	F	7189371435	05/04/1955	Mt Sinai of Queens	00243509	1245248939	Clean Air Car Svc & Parking (NYC)	Livery/QN-Med Appt in CMMA	A0100		01/27/2018	01/27/2018	No	2	1		self	7189371435	3.2	01/27/2018	1100	3503 12th St	 home	Long Island City	NY	11106	01/27/2018	1130	4105 31st Ave	  main	Astoria	NY	11103	1.6			No	138416503
2504293	2499	574300240	Leg	Vera	A	Beliavsky	YA32283W	F	7189371435	05/04/1955	Mt Sinai of Queens	00243509	1245248939	Clean Air Car Svc & Parking (NYC)	Livery/QN-Med Appt in CMMA	A0100		01/27/2018	01/27/2018	No	2	1		self	7189371435	3.2	01/27/2018	CALL	4105 31st Ave	 	Astoria	NY	11103	01/27/2018	CALL	3503 12th St	  	Long Island City	NY	11106	1.6			No	138416504
2504293	2500	574393640	Leg	Alicia		Shi	XQ87722E	F	(212) 265-5863	12/12/1980	NY Presbyterian Hospital	0000000	1952332801	Clean Air Car Svc & Parking (NYC)	Livery/MN-Med Appt in CMMA	A0100		01/30/2018	01/30/2018	No	2	1		self	(212) 265-5863	8.4	01/30/2018	call	55 W End Ave	 -	New York	NY	10023	01/30/2018	Call	310 E 14th St	  -	New York	NY	10003	4.2	Additional Rider		No	138440317
2504293	2501	574393640	Leg	Alicia		Shi	XQ87722E	F	(212) 265-5863	12/12/1980	NY Presbyterian Hospital	0000000	1952332801	Clean Air Car Svc & Parking (NYC)	Livery/MN-Med Appt in CMMA	A0100		01/30/2018	01/30/2018	No	2	1		self	(212) 265-5863	8.4	01/30/2018	Call	310 E 14th St	 -	New York	NY	10003	01/30/2018	Call	55 W End Ave	  -	New York	NY	10023	4.2			No	138440318
2504293	2502	574393640	Service	Alicia		Shi	XQ87722E	F	(212) 265-5863	12/12/1980	NY Presbyterian Hospital	0000000	1952332801	Clean Air Car Svc & Parking (NYC)	Livery-Manhattan Surcharge	A0100	SC	01/30/2018	01/30/2018	No	2	1																					Livery-Manhattan Surcharge	138440317
2504293	2503	574393640	Service	Alicia		Shi	XQ87722E	F	(212) 265-5863	12/12/1980	NY Presbyterian Hospital	0000000	1952332801	Clean Air Car Svc & Parking (NYC)	Livery-Manhattan Surcharge	A0100	SC	01/30/2018	01/30/2018	No	2	1																					Livery-Manhattan Surcharge	138440318
2504293	2504	574417990	Leg	Maylene	A	Hawkinslingo	PT03668K	F	(631) 336-4112	09/14/2009	Queens Hospital	000	1801803903	Clean Air Car Svc & Parking (NYC)	Livery/QN-Med Appt out CMMA	A0100	TN	01/26/2018	01/26/2018	No	2	1		Unique/Mother	(631) 336-4112	41.8	01/26/2018	1300	25 Pine St	other 	New York	NY	10005	01/26/2018	1400	430 Lakeville Rd	8816474 	New Hyde Park	NY	11042	20.9	1 Additional rider(s). 1 Additional rider(s). 1 Additional rider(s). 1 Additional rider(s). Additional Rider		No	138446658
2504293	2505	574417990	Leg	Maylene	A	Hawkinslingo	PT03668K	F	(631) 336-4112	09/14/2009	Queens Hospital	000	1801803903	Clean Air Car Svc & Parking (NYC)	Livery/QN-Med Appt out CMMA	A0100	TN	01/26/2018	01/26/2018	No	2	1		Unique/Mother	(631) 336-4112	41.8	01/26/2018	Call	430 Lakeville Rd	8816474 	New Hyde Park	NY	11042	01/26/2018	Call	25 Pine St	other 	New York	NY	10005	20.9	1 Additional rider(s). 1 Additional rider(s). 1 Additional rider(s). 1 Additional rider(s). Additional Rider		No	138446664
2504293	2506	574417990	Service	Maylene	A	Hawkinslingo	PT03668K	F	(631) 336-4112	09/14/2009	Queens Hospital	000	1801803903	Clean Air Car Svc & Parking (NYC)	Tolls-Universal	A0170	CG	01/26/2018	01/26/2018	No	2	1																					Tolls-Universal	138446658
2504293	2507	574417990	Service	Maylene	A	Hawkinslingo	PT03668K	F	(631) 336-4112	09/14/2009	Queens Hospital	000	1801803903	Clean Air Car Svc & Parking (NYC)	Livery-Manhattan Surcharge	A0100	SC	01/26/2018	01/26/2018	No	2	1																					Livery-Manhattan Surcharge	138446658
2504293	2508	574417990	Service	Maylene	A	Hawkinslingo	PT03668K	F	(631) 336-4112	09/14/2009	Queens Hospital	000	1801803903	Clean Air Car Svc & Parking (NYC)	Livery-Manhattan Surcharge	A0100	SC	01/26/2018	01/26/2018	No	2	1																					Livery-Manhattan Surcharge	138446664
2504293	2509	574417990	Service	Maylene	A	Hawkinslingo	PT03668K	F	(631) 336-4112	09/14/2009	Queens Hospital	000	1801803903	Clean Air Car Svc & Parking (NYC)	Mileage-Livery out of NYC	S0215	TN	01/26/2018	01/26/2018	No	2	1																					Mileage-Livery out of NYC	138446658
2504293	2510	574417990	Service	Maylene	A	Hawkinslingo	PT03668K	F	(631) 336-4112	09/14/2009	Queens Hospital	000	1801803903	Clean Air Car Svc & Parking (NYC)	Mileage-Livery out of NYC	S0215	TN	01/26/2018	01/26/2018	No	2	1																					Mileage-Livery out of NYC	138446664
2504293	2511	574421500	Leg	Yanique		Ford	SG65867E	F	6313364112	06/06/1985	NY Presbyterian Hospital		1952332801	Clean Air Car Svc & Parking (NYC)	Livery/MN-Med Appt out CMMA	A0100	TN	01/26/2018	01/26/2018	No	2	1		self	6313364112	17.6	01/26/2018	0900	25 Pine St	 	New York	NY	10005	01/26/2018	1000	2510 30th Rd	  	Long Island City	NY	11102	8.8	1 Additional rider(s). 1 Additional rider(s). 1 Additional rider(s). 1 Additional rider(s). 1 Additional rider(s). 1 Additional rider(s). 1 Additional		No	138448266
2504293	2512	574421500	Leg	Yanique		Ford	SG65867E	F	6313364112	06/06/1985	NY Presbyterian Hospital		1952332801	Clean Air Car Svc & Parking (NYC)	Livery/MN-Med Appt out CMMA	A0100	TN	01/26/2018	01/26/2018	No	2	1		self	6313364112	17.6	01/26/2018	Call	2510 30th Rd	 	Long Island City	NY	11102	01/26/2018	Call	25 Pine St	  	New York	NY	10005	8.8	1 Additional rider(s). 1 Additional rider(s). 1 Additional rider(s). 1 Additional rider(s). 1 Additional rider(s). 1 Additional rider(s). 1 Additional		No	138448267
2504293	2513	574421500	Service	Yanique		Ford	SG65867E	F	6313364112	06/06/1985	NY Presbyterian Hospital		1952332801	Clean Air Car Svc & Parking (NYC)	Mileage-Livery in NYC	S0215		01/26/2018	01/26/2018	No	2	1																					Mileage-Livery in NYC	138448266
2504293	2514	574421500	Service	Yanique		Ford	SG65867E	F	6313364112	06/06/1985	NY Presbyterian Hospital		1952332801	Clean Air Car Svc & Parking (NYC)	Mileage-Livery in NYC	S0215		01/26/2018	01/26/2018	No	2	1																					Mileage-Livery in NYC	138448267
2504293	2515	574421500	Service	Yanique		Ford	SG65867E	F	6313364112	06/06/1985	NY Presbyterian Hospital		1952332801	Clean Air Car Svc & Parking (NYC)	Tolls-Universal	A0170	CG	01/26/2018	01/26/2018	No	2	1																					Tolls-Universal	138448266
2504293	2516	574421500	Service	Yanique		Ford	SG65867E	F	6313364112	06/06/1985	NY Presbyterian Hospital		1952332801	Clean Air Car Svc & Parking (NYC)	Livery-Manhattan Surcharge	A0100	SC	01/26/2018	01/26/2018	No	2	1																					Livery-Manhattan Surcharge	138448266
2504293	2517	574421500	Service	Yanique		Ford	SG65867E	F	6313364112	06/06/1985	NY Presbyterian Hospital		1952332801	Clean Air Car Svc & Parking (NYC)	Livery-Manhattan Surcharge	A0100	SC	01/26/2018	01/26/2018	No	2	1																					Livery-Manhattan Surcharge	138448267
2504293	2518	574446560	Leg	Patricia		Jones-johnson	ZS98662B	F	(718) 213-5630	01/28/1962	Brooklyn Hospital Center	000	1326046467	Clean Air Car Svc & Parking (NYC)	Livery/BK-Med Appt out CMMA	A0100	TN	01/27/2018	01/27/2018	No	2	1		self	(718) 213-5630	19.4	01/27/2018	0800	795 Putnam Ave	Apt 2R 	Brooklyn	NY	11221	01/27/2018	0900	18005 Hillside Ave	  main	Jamaica	NY	11432	9.7			No	138454475
2504293	2519	574446560	Leg	Patricia		Jones-johnson	ZS98662B	F	(718) 213-5630	01/28/1962	Brooklyn Hospital Center	000	1326046467	Clean Air Car Svc & Parking (NYC)	Livery/BK-Med Appt out CMMA	A0100	TN	01/27/2018	01/27/2018	No	2	1		self	(718) 213-5630	19.4	01/27/2018	Call	18005 Hillside Ave	 main	Jamaica	NY	11432	01/27/2018	Call	795 Putnam Ave	Apt 2R 	Brooklyn	NY	11221	9.7			No	138454476
2504293	2520	574446560	Service	Patricia		Jones-johnson	ZS98662B	F	(718) 213-5630	01/28/1962	Brooklyn Hospital Center	000	1326046467	Clean Air Car Svc & Parking (NYC)	Mileage-Livery in NYC	S0215		01/27/2018	01/27/2018	No	2	1																					Mileage-Livery in NYC	138454475
2504293	2521	574446560	Service	Patricia		Jones-johnson	ZS98662B	F	(718) 213-5630	01/28/1962	Brooklyn Hospital Center	000	1326046467	Clean Air Car Svc & Parking (NYC)	Mileage-Livery in NYC	S0215		01/27/2018	01/27/2018	No	2	1																					Mileage-Livery in NYC	138454476
2504293	2522	574446560	Service	Patricia		Jones-johnson	ZS98662B	F	(718) 213-5630	01/28/1962	Brooklyn Hospital Center	000	1326046467	Clean Air Car Svc & Parking (NYC)	Tolls-Universal	A0170	CG	01/27/2018	01/27/2018	No	2	1																					Tolls-Universal	138454475
2504293	2523	574508300	Leg	Maria		Mendez	ZS73591F	F	(718) 505-2104	01/10/1938	MOUNT SINAI HEALTH SYSTEMS		1942543889	Clean Air Car Svc & Parking (NYC)	Livery/QN-Med Appt out CMMA	A0100	TN	01/31/2018	01/31/2018	No	2	1		daughter/yolanda s	6462992821	12.6	01/31/2018	0930	37 06 65th Street             2h	 home	Woodside	NY	11377	01/31/2018	1030	10 Union Sq E	  main	New York	NY	10003	6.3	Additional Rider		No	138468785
2504293	2524	574508300	Leg	Maria		Mendez	ZS73591F	F	(718) 505-2104	01/10/1938	MOUNT SINAI HEALTH SYSTEMS		1942543889	Clean Air Car Svc & Parking (NYC)	Livery/QN-Med Appt out CMMA	A0100	TN	01/31/2018	01/31/2018	No	2	1		daughter/yolanda s	6462992821	12.6	01/31/2018	Call	10 Union Sq E	 main	New York	NY	10003	01/31/2018	Call	37 06 65th Street             2h	  home	Woodside	NY	11377	6.3	Additional Rider		No	138468786
2504293	2525	574508300	Service	Maria		Mendez	ZS73591F	F	(718) 505-2104	01/10/1938	MOUNT SINAI HEALTH SYSTEMS		1942543889	Clean Air Car Svc & Parking (NYC)	Tolls-Universal	A0170	CG	01/31/2018	01/31/2018	No	2	1																					Tolls-Universal	138468785
2504293	2526	574508300	Service	Maria		Mendez	ZS73591F	F	(718) 505-2104	01/10/1938	MOUNT SINAI HEALTH SYSTEMS		1942543889	Clean Air Car Svc & Parking (NYC)	Livery-Manhattan Surcharge	A0100	SC	01/31/2018	01/31/2018	No	2	1																					Livery-Manhattan Surcharge	138468785
2504293	2527	574508300	Service	Maria		Mendez	ZS73591F	F	(718) 505-2104	01/10/1938	MOUNT SINAI HEALTH SYSTEMS		1942543889	Clean Air Car Svc & Parking (NYC)	Livery-Manhattan Surcharge	A0100	SC	01/31/2018	01/31/2018	No	2	1																					Livery-Manhattan Surcharge	138468786
2504293	2528	574562790	Leg	Ferdousi		Mollick	VJ15639Y	F	(718) 606-1747	02/15/1962	Abdelmalek Ehab		1366599755	Clean Air Car Svc & Parking (NYC)	Livery/QN-Med Appt out CMMA	A0100	TN	01/27/2018	01/27/2018	No	2	1		Self	(718) 606-1747	11.8	01/27/2018	1300	5921 Calloway St	Apt 4F 	Corona	NY	11368	01/27/2018	1400	17012 Highland Ave	  Main	Jamaica	NY	11432	5.9	Lung doc.		No	138481124
2504293	2529	574562790	Leg	Ferdousi		Mollick	VJ15639Y	F	(718) 606-1747	02/15/1962	Abdelmalek Ehab		1366599755	Clean Air Car Svc & Parking (NYC)	Livery/QN-Med Appt out CMMA	A0100	TN	01/27/2018	01/27/2018	No	2	1		Self	(718) 606-1747	11.8	01/27/2018	Call	17012 Highland Ave	 Main	Jamaica	NY	11432	01/27/2018	Call	5921 Calloway St	Apt 4F 	Corona	NY	11368	5.9			No	138481125
2504293	2530	574564500	Leg	Ferdousi		Mollick	VJ15639Y	F	(718) 606-1747	02/15/1962	Abdelmalek Ehab		1366599755	Clean Air Car Svc & Parking (NYC)	Livery/QN-Med Appt out CMMA	A0100	TN	01/29/2018	01/29/2018	No	2	1		Self	(718) 606-1747	10.6	01/29/2018	1300	5921 Calloway St	Apt 4F 	Corona	NY	11368	01/29/2018	1400	8405 169th St	  Main	Jamaica	NY	11432	5.3	Cardiology appt.		No	138481507
2504293	2531	574564500	Leg	Ferdousi		Mollick	VJ15639Y	F	(718) 606-1747	02/15/1962	Abdelmalek Ehab		1366599755	Clean Air Car Svc & Parking (NYC)	Livery/QN-Med Appt out CMMA	A0100	TN	01/29/2018	01/29/2018	No	2	1		Self	(718) 606-1747	10.6	01/29/2018	Call	8405 169th St	 Main	Jamaica	NY	11432	01/29/2018	Call	5921 Calloway St	Apt 4F 	Corona	NY	11368	5.3			No	138481508
2504293	2532	574564780	Leg	Ferdousi		Mollick	VJ15639Y	F	(718) 606-1747	02/15/1962	Abdelmalek Ehab		1366599755	Clean Air Car Svc & Parking (NYC)	Livery/QN-Med Appt out CMMA	A0100	TN	01/31/2018	01/31/2018	No	2	1		Self	(718) 606-1747	10.6	01/31/2018	1300	5921 Calloway St	Apt 4F 	Corona	NY	11368	01/31/2018	1400	8405 169th St	  Main	Jamaica	NY	11432	5.3	Cardiology appt.		No	138481827
2504293	2533	574564780	Leg	Ferdousi		Mollick	VJ15639Y	F	(718) 606-1747	02/15/1962	Abdelmalek Ehab		1366599755	Clean Air Car Svc & Parking (NYC)	Livery/QN-Med Appt out CMMA	A0100	TN	01/31/2018	01/31/2018	No	2	1		Self	(718) 606-1747	10.6	01/31/2018	Call	8405 169th St	 Main	Jamaica	NY	11432	01/31/2018	Call	5921 Calloway St	Apt 4F 	Corona	NY	11368	5.3			No	138481828
2504293	2534	574602000	Leg	Fungsin		Chiu	NA77401H	F	(646) 705-5501	07/12/1944	Hon, King-Chen		1447281738	Clean Air Car Svc & Parking (NYC)	Livery/QN-Med Appt in CMMA	A0100		01/29/2018	01/29/2018	No	2	1		grandson	(646) 705-5501	3.4	01/29/2018	0945	18819 Underhill Ave	 -	Fresh Meadows	NY	11365	01/29/2018	1045	16303 Horace Harding Expy	  	Fresh Meadows	NY	11365	1.7	1 Additional rider(s). 1 Additional rider(s). 1 Additional rider(s). 1 Additional rider(s). 1 Additional rider(s). 1 Additional rider(s). s/o thur fri		No	138490321
2504293	2535	574602000	Leg	Fungsin		Chiu	NA77401H	F	(646) 705-5501	07/12/1944	Hon, King-Chen		1447281738	Clean Air Car Svc & Parking (NYC)	Livery/QN-Med Appt in CMMA	A0100		01/29/2018	01/29/2018	No	2	1		grandson	(646) 705-5501	3.4	01/29/2018	Call	16303 Horace Harding Expy	 	Fresh Meadows	NY	11365	01/29/2018	Call	18819 Underhill Ave	  -	Fresh Meadows	NY	11365	1.7	1 Additional rider(s). 1 Additional rider(s). 1 Additional rider(s). 1 Additional rider(s). 1 Additional rider(s). 1 Additional rider(s). s/o thur fri		No	138490322
2504293	2536	574603850	Leg	Leslie		Burton	ZB53121Q	M	7187175343	09/06/1959	PAPPAS PHYSICAL MEDICINE		1538132154	Clean Air Car Svc & Parking (NYC)	Livery/QN-Med Appt in CMMA	A0100		01/30/2018	01/30/2018	No	2	1		self	7187175343	6.6	01/30/2018	0900	3553 12th St	 	Astoria	NY	11106	01/30/2018	0930	1305 York Ave	  	New York	NY	10021	3.3	aware of pickup policy		No	138490768
2504293	2537	574603850	Leg	Leslie		Burton	ZB53121Q	M	7187175343	09/06/1959	PAPPAS PHYSICAL MEDICINE		1538132154	Clean Air Car Svc & Parking (NYC)	Livery/QN-Med Appt in CMMA	A0100		01/30/2018	01/30/2018	No	2	1		self	7187175343	6.6	01/30/2018	CALL	1305 York Ave	 	New York	NY	10021	01/30/2018	0930	3553 12th St	  	Astoria	NY	11106	3.3			No	138490769
2504293	2538	574603850	Service	Leslie		Burton	ZB53121Q	M	7187175343	09/06/1959	PAPPAS PHYSICAL MEDICINE		1538132154	Clean Air Car Svc & Parking (NYC)	Tolls-Universal	A0170	CG	01/30/2018	01/30/2018	No	2	1																					Tolls-Universal	138490768
2504293	2539	574603850	Service	Leslie		Burton	ZB53121Q	M	7187175343	09/06/1959	PAPPAS PHYSICAL MEDICINE		1538132154	Clean Air Car Svc & Parking (NYC)	Livery-Manhattan Surcharge	A0100	SC	01/30/2018	01/30/2018	No	2	1																					Livery-Manhattan Surcharge	138490768
2504293	2540	574603850	Service	Leslie		Burton	ZB53121Q	M	7187175343	09/06/1959	PAPPAS PHYSICAL MEDICINE		1538132154	Clean Air Car Svc & Parking (NYC)	Livery-Manhattan Surcharge	A0100	SC	01/30/2018	01/30/2018	No	2	1																					Livery-Manhattan Surcharge	138490769
2504293	2541	574606890	Leg	Fungsin		Chiu	NA77401H	F	6467055501	07/12/1944	Hon, King-Chen		1447281738	Clean Air Car Svc & Parking (NYC)	Livery/QN-Med Appt in CMMA	A0100		01/30/2018	01/30/2018	No	2	1		self	6467055501	6.4	01/30/2018	0900	18819 Underhill Ave	 	Fresh Meadows	NY	11365	01/30/2018	1000	13620 38h Ave 3a1	  	Flushing	NY	11354	3.2	additional aide		No	138491088
2504293	2542	574606890	Leg	Fungsin		Chiu	NA77401H	F	6467055501	07/12/1944	Hon, King-Chen		1447281738	Clean Air Car Svc & Parking (NYC)	Livery/QN-Med Appt in CMMA	A0100		01/30/2018	01/30/2018	No	2	1		self	6467055501	6.4	01/30/2018	CALL	13620 38h Ave 3a1	 	Flushing	NY	11354	01/30/2018	CALL	18819 Underhill Ave	  	Fresh Meadows	NY	11365	3.2			No	138491089
2504293	2543	574622380	Leg	Sharon		Caffey	XQ37608H	F	(718) 301-3775	09/04/1964	Bradnock Howard		1225002751	Clean Air Car Svc & Parking (NYC)	Livery/QN-Med Appt out CMMA	A0100	TN	01/26/2018	01/26/2018	No	4	1		self	(718) 301-3775	58.6	01/26/2018	0730	3441 Linden Pl	Apt 2B 	Flushing	NY	11354	01/26/2018	0830	9711 3rd Ave	  main	Brooklyn	NY	11209	19.9			No	138494430
2504293	2544	574622380	Leg	Sharon		Caffey	XQ37608H	F	(718) 301-3775	09/04/1964	Bradnock Howard		1225002751	Clean Air Car Svc & Parking (NYC)	Livery/QN-Med Appt out CMMA	A0100	TN	01/26/2018	01/26/2018	No	4	1		self	(718) 301-3775	58.6	01/26/2018	Call	9711 3rd Ave	 main	Brooklyn	NY	11209	01/26/2018	Call	3441 Linden Pl	Apt 2B 	Flushing	NY	11354	19.9			No	138494431
2504293	2545	574622380	Leg	Sharon		Caffey	XQ37608H	F	(718) 301-3775	09/04/1964	Bradnock Howard		1225002751	Clean Air Car Svc & Parking (NYC)	Livery/QN-Med Appt out CMMA	A0100	TN	01/26/2018	01/26/2018	No	4	1		self	(718) 301-3775	58.6	01/26/2018	1430	3441 Linden Pl	Apt 2B 	Flushing	NY	11354	01/26/2018	1530	1305 York Ave	  main	New York	NY	10021	9.4			No	138494528
2504293	2546	574622380	Leg	Sharon		Caffey	XQ37608H	F	(718) 301-3775	09/04/1964	Bradnock Howard		1225002751	Clean Air Car Svc & Parking (NYC)	Livery/QN-Med Appt out CMMA	A0100	TN	01/26/2018	01/26/2018	No	4	1		self	(718) 301-3775	58.6	01/26/2018	Call	1305 York Ave	 main	New York	NY	10021	01/26/2018	Call	3441 Linden Pl	Apt 2B 	Flushing	NY	11354	9.4			No	138494529
2504293	2547	574622380	Service	Sharon		Caffey	XQ37608H	F	(718) 301-3775	09/04/1964	Bradnock Howard		1225002751	Clean Air Car Svc & Parking (NYC)	Mileage-Livery in NYC	S0215		01/26/2018	01/26/2018	No	4	1																					Mileage-Livery in NYC	138494430
2504293	2548	574622380	Service	Sharon		Caffey	XQ37608H	F	(718) 301-3775	09/04/1964	Bradnock Howard		1225002751	Clean Air Car Svc & Parking (NYC)	Mileage-Livery in NYC	S0215		01/26/2018	01/26/2018	No	4	1																					Mileage-Livery in NYC	138494431
2504293	2549	574622380	Service	Sharon		Caffey	XQ37608H	F	(718) 301-3775	09/04/1964	Bradnock Howard		1225002751	Clean Air Car Svc & Parking (NYC)	Mileage-Livery in NYC	S0215		01/26/2018	01/26/2018	No	4	1																					Mileage-Livery in NYC	138494528
2504293	2550	574622380	Service	Sharon		Caffey	XQ37608H	F	(718) 301-3775	09/04/1964	Bradnock Howard		1225002751	Clean Air Car Svc & Parking (NYC)	Mileage-Livery in NYC	S0215		01/26/2018	01/26/2018	No	4	1																					Mileage-Livery in NYC	138494529
2504293	2551	574622380	Service	Sharon		Caffey	XQ37608H	F	(718) 301-3775	09/04/1964	Bradnock Howard		1225002751	Clean Air Car Svc & Parking (NYC)	Tolls-Universal	A0170	CG	01/26/2018	01/26/2018	No	4	1																					Tolls-Universal	138494430
2504293	2552	574622380	Service	Sharon		Caffey	XQ37608H	F	(718) 301-3775	09/04/1964	Bradnock Howard		1225002751	Clean Air Car Svc & Parking (NYC)	Livery-Manhattan Surcharge	A0100	SC	01/26/2018	01/26/2018	No	4	1																					Livery-Manhattan Surcharge	138494528
2504293	2553	574622380	Service	Sharon		Caffey	XQ37608H	F	(718) 301-3775	09/04/1964	Bradnock Howard		1225002751	Clean Air Car Svc & Parking (NYC)	Livery-Manhattan Surcharge	A0100	SC	01/26/2018	01/26/2018	No	4	1																					Livery-Manhattan Surcharge	138494529
2504293	2554	574624300	Leg	Sharon		Caffey	XQ37608H	F	(718) 301-3775	09/04/1964	Bradnock Howard		1225002751	Clean Air Car Svc & Parking (NYC)	Livery/QN-Med Appt out CMMA	A0100	TN	01/29/2018	01/29/2018	No	4	1		self	(718) 301-3775	55.4	01/29/2018	0700	3441 Linden Pl	Apt 2B 	Flushing	NY	11354	01/29/2018	0800	7517 6th Ave	  main	Brooklyn	NY	11209	18.3			No	138495217
2504293	2555	574624300	Leg	Sharon		Caffey	XQ37608H	F	(718) 301-3775	09/04/1964	Bradnock Howard		1225002751	Clean Air Car Svc & Parking (NYC)	Livery/QN-Med Appt out CMMA	A0100	TN	01/29/2018	01/29/2018	No	4	1		self	(718) 301-3775	55.4	01/29/2018	Call	7517 6th Ave	 main	Brooklyn	NY	11209	01/29/2018	Call	3441 Linden Pl	Apt 2B 	Flushing	NY	11354	18.3			No	138495218
2504293	2556	574624300	Leg	Sharon		Caffey	XQ37608H	F	(718) 301-3775	09/04/1964	Bradnock Howard		1225002751	Clean Air Car Svc & Parking (NYC)	Livery/QN-Med Appt out CMMA	A0100	TN	01/29/2018	01/29/2018	No	4	1		self	(718) 301-3775	55.4	01/29/2018	1400	3441 Linden Pl	Apt 2B 	Flushing	NY	11354	01/29/2018	1500	1305 York Ave	  main	New York	NY	10021	9.4			No	138495241
2504293	2557	574624300	Leg	Sharon		Caffey	XQ37608H	F	(718) 301-3775	09/04/1964	Bradnock Howard		1225002751	Clean Air Car Svc & Parking (NYC)	Livery/QN-Med Appt out CMMA	A0100	TN	01/29/2018	01/29/2018	No	4	1		self	(718) 301-3775	55.4	01/29/2018	Call	1305 York Ave	 main	New York	NY	10021	01/29/2018	Call	3441 Linden Pl	Apt 2B 	Flushing	NY	11354	9.4			No	138495242
2504293	2558	574624300	Service	Sharon		Caffey	XQ37608H	F	(718) 301-3775	09/04/1964	Bradnock Howard		1225002751	Clean Air Car Svc & Parking (NYC)	Mileage-Livery in NYC	S0215		01/29/2018	01/29/2018	No	4	1																					Mileage-Livery in NYC	138495217
2504293	2559	574624300	Service	Sharon		Caffey	XQ37608H	F	(718) 301-3775	09/04/1964	Bradnock Howard		1225002751	Clean Air Car Svc & Parking (NYC)	Mileage-Livery in NYC	S0215		01/29/2018	01/29/2018	No	4	1																					Mileage-Livery in NYC	138495218
2504293	2560	574624300	Service	Sharon		Caffey	XQ37608H	F	(718) 301-3775	09/04/1964	Bradnock Howard		1225002751	Clean Air Car Svc & Parking (NYC)	Mileage-Livery in NYC	S0215		01/29/2018	01/29/2018	No	4	1																					Mileage-Livery in NYC	138495241
2504293	2561	574624300	Service	Sharon		Caffey	XQ37608H	F	(718) 301-3775	09/04/1964	Bradnock Howard		1225002751	Clean Air Car Svc & Parking (NYC)	Mileage-Livery in NYC	S0215		01/29/2018	01/29/2018	No	4	1																					Mileage-Livery in NYC	138495242
2504293	2562	574624300	Service	Sharon		Caffey	XQ37608H	F	(718) 301-3775	09/04/1964	Bradnock Howard		1225002751	Clean Air Car Svc & Parking (NYC)	Tolls-Universal	A0170	CG	01/29/2018	01/29/2018	No	4	1																					Tolls-Universal	138495217
2504293	2563	574624300	Service	Sharon		Caffey	XQ37608H	F	(718) 301-3775	09/04/1964	Bradnock Howard		1225002751	Clean Air Car Svc & Parking (NYC)	Livery-Manhattan Surcharge	A0100	SC	01/29/2018	01/29/2018	No	4	1																					Livery-Manhattan Surcharge	138495241
2504293	2564	574624300	Service	Sharon		Caffey	XQ37608H	F	(718) 301-3775	09/04/1964	Bradnock Howard		1225002751	Clean Air Car Svc & Parking (NYC)	Livery-Manhattan Surcharge	A0100	SC	01/29/2018	01/29/2018	No	4	1																					Livery-Manhattan Surcharge	138495242
2504293	2565	574624330	Leg	Reshma		Maharaj	KD54352J	F	(347) 500-4614	11/06/1980	Mcdonald Annmarie		1003976341	Clean Air Car Svc & Parking (NYC)	Livery/QN-Med Appt out CMMA	A0100	TN	01/26/2018	01/26/2018	No	2	1		SELF	(347) 500-4614	36.2	01/26/2018	0630	10459 121st St	 	South Richmond Hill	NY	11419	01/26/2018	0730	177 Fort Washington Ave	  	New York	NY	10032	18.1			No	138495215
2504293	2566	574624330	Leg	Reshma		Maharaj	KD54352J	F	(347) 500-4614	11/06/1980	Mcdonald Annmarie		1003976341	Clean Air Car Svc & Parking (NYC)	Livery/QN-Med Appt out CMMA	A0100	TN	01/26/2018	01/26/2018	No	2	1		SELF	(347) 500-4614	36.2	01/26/2018	Call	177 Fort Washington Ave	 	New York	NY	10032	01/26/2018	Call	10459 121st St	  	South Richmond Hill	NY	11419	18.1			No	138495216
2504293	2567	574624330	Service	Reshma		Maharaj	KD54352J	F	(347) 500-4614	11/06/1980	Mcdonald Annmarie		1003976341	Clean Air Car Svc & Parking (NYC)	Tolls-Universal	A0170	CG	01/26/2018	01/26/2018	No	2	1																					Tolls-Universal	138495215
2504293	2568	574624330	Service	Reshma		Maharaj	KD54352J	F	(347) 500-4614	11/06/1980	Mcdonald Annmarie		1003976341	Clean Air Car Svc & Parking (NYC)	Mileage-Livery in NYC	S0215		01/26/2018	01/26/2018	No	2	1																					Mileage-Livery in NYC	138495215
2504293	2569	574624330	Service	Reshma		Maharaj	KD54352J	F	(347) 500-4614	11/06/1980	Mcdonald Annmarie		1003976341	Clean Air Car Svc & Parking (NYC)	Mileage-Livery in NYC	S0215		01/26/2018	01/26/2018	No	2	1																					Mileage-Livery in NYC	138495216
2504293	2570	574624590	Leg	Sharon		Caffey	XQ37608H	F	(718) 301-3775	09/04/1964	Bradnock Howard		1225002751	Clean Air Car Svc & Parking (NYC)	Livery/QN-Med Appt out CMMA	A0100	TN	01/30/2018	01/30/2018	No	4	1		self	(718) 301-3775	55.4	01/30/2018	0800	3441 Linden Pl	Apt 2B 	Flushing	NY	11354	01/30/2018	0900	6317 4th Ave	  main	Brooklyn	NY	11220	18.2			No	138495618
2504293	2571	574624590	Leg	Sharon		Caffey	XQ37608H	F	(718) 301-3775	09/04/1964	Bradnock Howard		1225002751	Clean Air Car Svc & Parking (NYC)	Livery/QN-Med Appt out CMMA	A0100	TN	01/30/2018	01/30/2018	No	4	1		self	(718) 301-3775	55.4	01/30/2018	Call	6317 4th Ave	 main	Brooklyn	NY	11220	01/30/2018	Call	3441 Linden Pl	Apt 2B 	Flushing	NY	11354	18.2			No	138495619
2504293	2572	574624590	Leg	Sharon		Caffey	XQ37608H	F	(718) 301-3775	09/04/1964	Bradnock Howard		1225002751	Clean Air Car Svc & Parking (NYC)	Livery/QN-Med Appt out CMMA	A0100	TN	01/30/2018	01/30/2018	No	4	1		self	(718) 301-3775	55.4	01/30/2018	1430	3441 Linden Pl	Apt 2B 	Flushing	NY	11354	01/30/2018	1530	520 E 70th St	  main	New York	NY	10021	9.5			No	138495633
2504293	2573	574624590	Leg	Sharon		Caffey	XQ37608H	F	(718) 301-3775	09/04/1964	Bradnock Howard		1225002751	Clean Air Car Svc & Parking (NYC)	Livery/QN-Med Appt out CMMA	A0100	TN	01/30/2018	01/30/2018	No	4	1		self	(718) 301-3775	55.4	01/30/2018	Call	520 E 70th St	 main	New York	NY	10021	01/30/2018	Call	3441 Linden Pl	Apt 2B 	Flushing	NY	11354	9.5			No	138495634
2504293	2574	574624590	Service	Sharon		Caffey	XQ37608H	F	(718) 301-3775	09/04/1964	Bradnock Howard		1225002751	Clean Air Car Svc & Parking (NYC)	Mileage-Livery in NYC	S0215		01/30/2018	01/30/2018	No	4	1																					Mileage-Livery in NYC	138495618
2504293	2575	574624590	Service	Sharon		Caffey	XQ37608H	F	(718) 301-3775	09/04/1964	Bradnock Howard		1225002751	Clean Air Car Svc & Parking (NYC)	Mileage-Livery in NYC	S0215		01/30/2018	01/30/2018	No	4	1																					Mileage-Livery in NYC	138495619
2504293	2576	574624590	Service	Sharon		Caffey	XQ37608H	F	(718) 301-3775	09/04/1964	Bradnock Howard		1225002751	Clean Air Car Svc & Parking (NYC)	Mileage-Livery in NYC	S0215		01/30/2018	01/30/2018	No	4	1																					Mileage-Livery in NYC	138495633
2504293	2577	574624590	Service	Sharon		Caffey	XQ37608H	F	(718) 301-3775	09/04/1964	Bradnock Howard		1225002751	Clean Air Car Svc & Parking (NYC)	Mileage-Livery in NYC	S0215		01/30/2018	01/30/2018	No	4	1																					Mileage-Livery in NYC	138495634
2504293	2578	574624590	Service	Sharon		Caffey	XQ37608H	F	(718) 301-3775	09/04/1964	Bradnock Howard		1225002751	Clean Air Car Svc & Parking (NYC)	Tolls-Universal	A0170	CG	01/30/2018	01/30/2018	No	4	1																					Tolls-Universal	138495618
2504293	2579	574624590	Service	Sharon		Caffey	XQ37608H	F	(718) 301-3775	09/04/1964	Bradnock Howard		1225002751	Clean Air Car Svc & Parking (NYC)	Livery-Manhattan Surcharge	A0100	SC	01/30/2018	01/30/2018	No	4	1																					Livery-Manhattan Surcharge	138495633
2504293	2580	574624590	Service	Sharon		Caffey	XQ37608H	F	(718) 301-3775	09/04/1964	Bradnock Howard		1225002751	Clean Air Car Svc & Parking (NYC)	Livery-Manhattan Surcharge	A0100	SC	01/30/2018	01/30/2018	No	4	1																					Livery-Manhattan Surcharge	138495634
2504293	2581	574673330	Leg	Michael		Orozco	ZU63379K	M	(646) 498-1988	08/25/1973	NY Presbyterian Hospital	0000000	1952332801	Clean Air Car Svc & Parking (NYC)	Livery/MN-Med Appt in CMMA	A0100		01/29/2018	01/29/2018	No	2	1		self	(646) 498-1988	6.2	01/29/2018	1440	520 W 56th St	7a 	New York	NY	10019	01/29/2018	1540	1111 Amsterdam Ave	  main	New York	NY	10025	3.1	Additional Rider		No	138506955
2504293	2582	574673330	Leg	Michael		Orozco	ZU63379K	M	(646) 498-1988	08/25/1973	NY Presbyterian Hospital	0000000	1952332801	Clean Air Car Svc & Parking (NYC)	Livery/MN-Med Appt in CMMA	A0100		01/29/2018	01/29/2018	No	2	1		self	(646) 498-1988	6.2	01/29/2018	Call	1111 Amsterdam Ave	 main	New York	NY	10025	01/29/2018	Call	520 W 56th St	7a 	New York	NY	10019	3.1			No	138506956
2504293	2583	574673330	Service	Michael		Orozco	ZU63379K	M	(646) 498-1988	08/25/1973	NY Presbyterian Hospital	0000000	1952332801	Clean Air Car Svc & Parking (NYC)	Livery-Manhattan Surcharge	A0100	SC	01/29/2018	01/29/2018	No	2	1																					Livery-Manhattan Surcharge	138506955
2504293	2584	574673330	Service	Michael		Orozco	ZU63379K	M	(646) 498-1988	08/25/1973	NY Presbyterian Hospital	0000000	1952332801	Clean Air Car Svc & Parking (NYC)	Livery-Manhattan Surcharge	A0100	SC	01/29/2018	01/29/2018	No	2	1																					Livery-Manhattan Surcharge	138506956
2504293	2585	574733160	Leg	Lochan		Seeparsad	KD52413A	M	(347) 500-4614	05/11/1964	Queens Hospital	000	1801803903	Clean Air Car Svc & Parking (NYC)	Livery/BK-Med Appt out CMMA	A0100	TN	01/27/2018	01/27/2018	Yes	2	1		Lochan Seeparsad	(347) 500-4614	35.2	01/27/2018	0800	10459 121st St	 -	South Richmond Hill	NY	11419	01/27/2018	0900	622 W 168th St	  -	New York	NY	10032	17.6	S/O SAT		No	138520394
2504293	2586	574733160	Leg	Lochan		Seeparsad	KD52413A	M	(347) 500-4614	05/11/1964	Queens Hospital	000	1801803903	Clean Air Car Svc & Parking (NYC)	Livery/BK-Med Appt out CMMA	A0100	TN	01/27/2018	01/27/2018	Yes	2	1		Lochan Seeparsad	(347) 500-4614	35.2	01/27/2018	Call	622 W 168th St	 -	New York	NY	10032	01/27/2018		10459 121st St	  -	South Richmond Hill	NY	11419	17.6			No	138520395
2504293	2587	574733160	Service	Lochan		Seeparsad	KD52413A	M	(347) 500-4614	05/11/1964	Queens Hospital	000	1801803903	Clean Air Car Svc & Parking (NYC)	Mileage-Livery in NYC	S0215		01/27/2018	01/27/2018	Yes	2	1																					Mileage-Livery in NYC	138520394
2504293	2588	574733160	Service	Lochan		Seeparsad	KD52413A	M	(347) 500-4614	05/11/1964	Queens Hospital	000	1801803903	Clean Air Car Svc & Parking (NYC)	Mileage-Livery in NYC	S0215		01/27/2018	01/27/2018	Yes	2	1																					Mileage-Livery in NYC	138520395
2504293	2589	574733160	Service	Lochan		Seeparsad	KD52413A	M	(347) 500-4614	05/11/1964	Queens Hospital	000	1801803903	Clean Air Car Svc & Parking (NYC)	Tolls-Universal	A0170	CG	01/27/2018	01/27/2018	Yes	2	1																					Tolls-Universal	138520394
2504293	2590	574760360	Leg	Lochan		Seeparsad	KD52413A	M	(347) 500-4614	05/11/1964	Queens Hospital	000	1801803903	Clean Air Car Svc & Parking (NYC)	Livery/BK-Med Appt in CMMA	A0100		01/29/2018	01/29/2018	Yes	4	1		Lochan Seeparsad	(347) 500-4614	39.2	01/29/2018	0700	10459 121st St	 -	South Richmond Hill	NY	11419	01/29/2018	0800	8906 135th St	  -	Jamaica	NY	11418	2.0	S/O MON, WEDS, & FRI, Additional Rider		No	138526635
2504293	2591	574760360	Leg	Lochan		Seeparsad	KD52413A	M	(347) 500-4614	05/11/1964	Queens Hospital	000	1801803903	Clean Air Car Svc & Parking (NYC)	Livery/BK-Med Appt in CMMA	A0100		01/29/2018	01/29/2018	Yes	4	1		Lochan Seeparsad	(347) 500-4614	39.2	01/29/2018	Call	8906 135th St	 -	Jamaica	NY	11418	01/29/2018		10459 121st St	  -	South Richmond Hill	NY	11419	2.0			No	138526636
2504293	2592	574760360	Leg	Lochan		Seeparsad	KD52413A	M	(347) 500-4614	05/11/1964	Queens Hospital	000	1801803903	Clean Air Car Svc & Parking (NYC)	Livery/BK-Med Appt in CMMA	A0100		01/29/2018	01/29/2018	Yes	4	1		Lochan Seeparsad	(347) 500-4614	39.2	01/29/2018	1000	10459 121st St	 -	South Richmond Hill	NY	11419	01/29/2018	1100	622 W 168th St	  -	New York	NY	10032	17.6	S/O MON, WEDS, & FRI, Additional Rider		No	138526941
2504293	2593	574760360	Leg	Lochan		Seeparsad	KD52413A	M	(347) 500-4614	05/11/1964	Queens Hospital	000	1801803903	Clean Air Car Svc & Parking (NYC)	Livery/BK-Med Appt in CMMA	A0100		01/29/2018	01/29/2018	Yes	4	1		Lochan Seeparsad	(347) 500-4614	39.2	01/29/2018	Call	622 W 168th St	 -	New York	NY	10032	01/29/2018		10459 121st St	  -	South Richmond Hill	NY	11419	17.6			No	138526942
2504293	2594	574760360	Service	Lochan		Seeparsad	KD52413A	M	(347) 500-4614	05/11/1964	Queens Hospital	000	1801803903	Clean Air Car Svc & Parking (NYC)	Mileage-Livery in NYC	S0215		01/29/2018	01/29/2018	Yes	4	1																					Mileage-Livery in NYC	138526941
2504293	2595	574760360	Service	Lochan		Seeparsad	KD52413A	M	(347) 500-4614	05/11/1964	Queens Hospital	000	1801803903	Clean Air Car Svc & Parking (NYC)	Mileage-Livery in NYC	S0215		01/29/2018	01/29/2018	Yes	4	1																					Mileage-Livery in NYC	138526942
2504293	2596	574760360	Service	Lochan		Seeparsad	KD52413A	M	(347) 500-4614	05/11/1964	Queens Hospital	000	1801803903	Clean Air Car Svc & Parking (NYC)	Tolls-Universal	A0170	CG	01/29/2018	01/29/2018	Yes	4	1																					Tolls-Universal	138526941
2504293	2597	574760360	Service	Lochan		Seeparsad	KD52413A	M	(347) 500-4614	05/11/1964	Queens Hospital	000	1801803903	Clean Air Car Svc & Parking (NYC)	Livery/BK-Med Appt out CMMA P/S	A0100	TN	01/29/2018	01/29/2018	Yes	4	1																					Livery/BK-Med Appt out CMMA P/S	138526941
2504293	2598	574760360	Service	Lochan		Seeparsad	KD52413A	M	(347) 500-4614	05/11/1964	Queens Hospital	000	1801803903	Clean Air Car Svc & Parking (NYC)	Livery/BK-Med Appt out CMMA P/S	A0100	TN	01/29/2018	01/29/2018	Yes	4	1																					Livery/BK-Med Appt out CMMA P/S	138526942
2504293	2599	574764310	Leg	Lochan		Seeparsad	KD52413A	M	(347) 500-4614	05/11/1964	Queens Hospital	000	1801803903	Clean Air Car Svc & Parking (NYC)	Livery/BK-Med Appt in CMMA	A0100		01/31/2018	01/31/2018	Yes	4	1		Lochan Seeparsad	(347) 500-4614	39.2	01/31/2018	0700	10459 121st St	 -	South Richmond Hill	NY	11419	01/31/2018	0800	8906 135th St	  -	Jamaica	NY	11418	2.0	S/O MON, WEDS, & FRI, Additional Rider		No	138526637
2504293	2600	574764310	Leg	Lochan		Seeparsad	KD52413A	M	(347) 500-4614	05/11/1964	Queens Hospital	000	1801803903	Clean Air Car Svc & Parking (NYC)	Livery/BK-Med Appt in CMMA	A0100		01/31/2018	01/31/2018	Yes	4	1		Lochan Seeparsad	(347) 500-4614	39.2	01/31/2018	Call	8906 135th St	 -	Jamaica	NY	11418	01/31/2018		10459 121st St	  -	South Richmond Hill	NY	11419	2.0			No	138526638
2504293	2601	574764310	Leg	Lochan		Seeparsad	KD52413A	M	(347) 500-4614	05/11/1964	Queens Hospital	000	1801803903	Clean Air Car Svc & Parking (NYC)	Livery/BK-Med Appt in CMMA	A0100		01/31/2018	01/31/2018	Yes	4	1		Lochan Seeparsad	(347) 500-4614	39.2	01/31/2018	1000	10459 121st St	 -	South Richmond Hill	NY	11419	01/31/2018	1100	622 W 168th St	  -	New York	NY	10032	17.6	S/O MON, WEDS, & FRI, Additional Rider		No	138526943
2504293	2602	574764310	Leg	Lochan		Seeparsad	KD52413A	M	(347) 500-4614	05/11/1964	Queens Hospital	000	1801803903	Clean Air Car Svc & Parking (NYC)	Livery/BK-Med Appt in CMMA	A0100		01/31/2018	01/31/2018	Yes	4	1		Lochan Seeparsad	(347) 500-4614	39.2	01/31/2018	Call	622 W 168th St	 -	New York	NY	10032	01/31/2018		10459 121st St	  -	South Richmond Hill	NY	11419	17.6			No	138526944
2504293	2603	574764310	Service	Lochan		Seeparsad	KD52413A	M	(347) 500-4614	05/11/1964	Queens Hospital	000	1801803903	Clean Air Car Svc & Parking (NYC)	Mileage-Livery in NYC	S0215		01/31/2018	01/31/2018	Yes	4	1																					Mileage-Livery in NYC	138526943
2504293	2604	574764310	Service	Lochan		Seeparsad	KD52413A	M	(347) 500-4614	05/11/1964	Queens Hospital	000	1801803903	Clean Air Car Svc & Parking (NYC)	Mileage-Livery in NYC	S0215		01/31/2018	01/31/2018	Yes	4	1																					Mileage-Livery in NYC	138526944
2504293	2605	574764310	Service	Lochan		Seeparsad	KD52413A	M	(347) 500-4614	05/11/1964	Queens Hospital	000	1801803903	Clean Air Car Svc & Parking (NYC)	Tolls-Universal	A0170	CG	01/31/2018	01/31/2018	Yes	4	1																					Tolls-Universal	138526943
2504293	2606	574764310	Service	Lochan		Seeparsad	KD52413A	M	(347) 500-4614	05/11/1964	Queens Hospital	000	1801803903	Clean Air Car Svc & Parking (NYC)	Livery/BK-Med Appt out CMMA P/S	A0100	TN	01/31/2018	01/31/2018	Yes	4	1																					Livery/BK-Med Appt out CMMA P/S	138526943
2504293	2607	574764310	Service	Lochan		Seeparsad	KD52413A	M	(347) 500-4614	05/11/1964	Queens Hospital	000	1801803903	Clean Air Car Svc & Parking (NYC)	Livery/BK-Med Appt out CMMA P/S	A0100	TN	01/31/2018	01/31/2018	Yes	4	1																					Livery/BK-Med Appt out CMMA P/S	138526944
2504293	2608	574813670	Leg	Obdulia		Batista	ZG92504N	F	(718) 848-6535	12/03/1972	Odoom Ebenezer		1154416691	Clean Air Car Svc & Parking (NYC)	Livery/BK-Med Appt in CMMA	A0100		01/29/2018	01/29/2018	No	2	1			(718) 848-6535	9.2	01/29/2018	1300	98-23    Horace Harding Expy  17-o	 .	Qns	NY	11368	01/29/2018	1400	18219 Horace Harding Expy	  .	Fresh Meadows	NY	11365	4.6	1 Additional rider(s). 1 Additional rider(s). additional rider		No	138539929
2504293	2609	574813670	Leg	Obdulia		Batista	ZG92504N	F	(718) 848-6535	12/03/1972	Odoom Ebenezer		1154416691	Clean Air Car Svc & Parking (NYC)	Livery/BK-Med Appt in CMMA	A0100		01/29/2018	01/29/2018	No	2	1			(718) 848-6535	9.2	01/29/2018	Call	18219 Horace Harding Expy	 .	Fresh Meadows	NY	11365	01/29/2018	Call	98-23    Horace Harding Expy  17-o	  .	Qns	NY	11368	4.6	1 Additional rider(s). 1 Additional rider(s). additional rider		No	138539930
2504293	2610	574816990	Leg	Frances	E	Batista	ZN65296Z	F	(718) 678-7588	02/22/1962	DELIA, JOANNA		1821245689	Clean Air Car Svc & Parking (NYC)	Livery/QN-Med Appt out CMMA	A0100	TN	01/26/2018	01/26/2018	No	2	1		self	(718) 678-7588	38.6	01/26/2018	1300	25964 149th Ave	# 2 	Rosedale	NY	11422	01/26/2018	1400	475 E 72nd St	  main	New York	NY	10021	19.3	Additional Rider		No	138540689
2504293	2611	574816990	Leg	Frances	E	Batista	ZN65296Z	F	(718) 678-7588	02/22/1962	DELIA, JOANNA		1821245689	Clean Air Car Svc & Parking (NYC)	Livery/QN-Med Appt out CMMA	A0100	TN	01/26/2018	01/26/2018	No	2	1		self	(718) 678-7588	38.6	01/26/2018	Call	475 E 72nd St	 main	New York	NY	10021	01/26/2018	Call	25964 149th Ave	# 2 	Rosedale	NY	11422	19.3			No	138540690
2504293	2612	574816990	Service	Frances	E	Batista	ZN65296Z	F	(718) 678-7588	02/22/1962	DELIA, JOANNA		1821245689	Clean Air Car Svc & Parking (NYC)	Tolls-Universal	A0170	CG	01/26/2018	01/26/2018	No	2	1																					Tolls-Universal	138540689
2504293	2613	574816990	Service	Frances	E	Batista	ZN65296Z	F	(718) 678-7588	02/22/1962	DELIA, JOANNA		1821245689	Clean Air Car Svc & Parking (NYC)	Livery-Manhattan Surcharge	A0100	SC	01/26/2018	01/26/2018	No	2	1																					Livery-Manhattan Surcharge	138540689
2504293	2614	574816990	Service	Frances	E	Batista	ZN65296Z	F	(718) 678-7588	02/22/1962	DELIA, JOANNA		1821245689	Clean Air Car Svc & Parking (NYC)	Livery-Manhattan Surcharge	A0100	SC	01/26/2018	01/26/2018	No	2	1																					Livery-Manhattan Surcharge	138540690
2504293	2615	574816990	Service	Frances	E	Batista	ZN65296Z	F	(718) 678-7588	02/22/1962	DELIA, JOANNA		1821245689	Clean Air Car Svc & Parking (NYC)	Mileage-Livery in NYC	S0215		01/26/2018	01/26/2018	No	2	1																					Mileage-Livery in NYC	138540689
2504293	2616	574816990	Service	Frances	E	Batista	ZN65296Z	F	(718) 678-7588	02/22/1962	DELIA, JOANNA		1821245689	Clean Air Car Svc & Parking (NYC)	Mileage-Livery in NYC	S0215		01/26/2018	01/26/2018	No	2	1																					Mileage-Livery in NYC	138540690
2504293	2617	574858060	Leg	John		Keitt	ZH11392W	M	(347) 484-0143	04/03/1953	Elsner Norbert		1285716878	Clean Air Car Svc & Parking (NYC)	Livery/BK-Med Appt in CMMA	A0100		01/31/2018	01/31/2018	No	2	1		self	(347) 484-0143	2.8	01/31/2018	1330	2 Doscher St	Apt 9 	Brooklyn	NY	11208	01/31/2018	1430	2094 Pitkin Ave	  main	Brooklyn	NY	11207	1.4			No	138549286
2504293	2618	574858060	Leg	John		Keitt	ZH11392W	M	(347) 484-0143	04/03/1953	Elsner Norbert		1285716878	Clean Air Car Svc & Parking (NYC)	Livery/BK-Med Appt in CMMA	A0100		01/31/2018	01/31/2018	No	2	1		self	(347) 484-0143	2.8	01/31/2018	Call	2094 Pitkin Ave	 main	Brooklyn	NY	11207	01/31/2018	Call	2 Doscher St	Apt 9 	Brooklyn	NY	11208	1.4			No	138549287
2504293	2619	574913820	Leg	Eleanor		Kennedy	ZM08951T	F	(917) 673-2962	12/26/1966	Brooklyn Hospital Center	000	1326046467	Clean Air Car Svc & Parking (NYC)	Livery/BK-Med Appt in CMMA	A0100		01/30/2018	01/30/2018	No	2	1		self	(917) 673-2962	4.2	01/30/2018	0900	347 Lincoln Pl	 home	Brooklyn	NY	11238	01/30/2018	1000	803 Rogers Ave	  main	Brooklyn	NY	11226	2.1			No	138562416
2504293	2620	574913820	Leg	Eleanor		Kennedy	ZM08951T	F	(917) 673-2962	12/26/1966	Brooklyn Hospital Center	000	1326046467	Clean Air Car Svc & Parking (NYC)	Livery/BK-Med Appt in CMMA	A0100		01/30/2018	01/30/2018	No	2	1		self	(917) 673-2962	4.2	01/30/2018	Call	803 Rogers Ave	 main	Brooklyn	NY	11226	01/30/2018	Call	347 Lincoln Pl	  home	Brooklyn	NY	11238	2.1			No	138562417
2504293	2621	574916230	Leg	Eleanor		Kennedy	ZM08951T	F	(917) 673-2962	12/26/1966	Brooklyn Hospital Center	000	1326046467	Clean Air Car Svc & Parking (NYC)	Livery/BK-Med Appt in CMMA	A0100		01/29/2018	01/29/2018	No	2	1		self	(917) 673-2962	4.2	01/29/2018	0915	347 Lincoln Pl	 home	Brooklyn	NY	11238	01/29/2018	1015	803 Rogers Ave	  main	Brooklyn	NY	11226	2.1			No	138562699
2504293	2622	574916230	Leg	Eleanor		Kennedy	ZM08951T	F	(917) 673-2962	12/26/1966	Brooklyn Hospital Center	000	1326046467	Clean Air Car Svc & Parking (NYC)	Livery/BK-Med Appt in CMMA	A0100		01/29/2018	01/29/2018	No	2	1		self	(917) 673-2962	4.2	01/29/2018	Call	803 Rogers Ave	 main	Brooklyn	NY	11226	01/29/2018	Call	347 Lincoln Pl	  home	Brooklyn	NY	11238	2.1			No	138562700
2504293	2623	574928670	Leg	Anthony		Tamilio	PK73896C	M	6462759590	04/27/1960	Brooklyn Hospital Center	000	1326046467	Clean Air Car Svc & Parking (NYC)	Livery/BK-Med Appt in CMMA	A0100		01/30/2018	01/30/2018	No	2	1		-	6462759590	3.6	01/30/2018	0830	2404 E 71st St	 	Brooklyn	NY	11234	01/30/2018	0930	2270 Kimball St	  	Brooklyn	NY	11234	1.8			No	138565951
2504293	2624	574928670	Leg	Anthony		Tamilio	PK73896C	M	6462759590	04/27/1960	Brooklyn Hospital Center	000	1326046467	Clean Air Car Svc & Parking (NYC)	Livery/BK-Med Appt in CMMA	A0100		01/30/2018	01/30/2018	No	2	1		-	6462759590	3.6	01/30/2018	CALL	2270 Kimball St	 	Brooklyn	NY	11234	01/30/2018	CALL	2404 E 71st St	  	Brooklyn	NY	11234	1.8			No	138565952
2504293	2625	574929460	Leg	Almira		Jarovic	KW21038Z	F	(917) 272-8628	08/28/1978	Queens Hospital	000	1801803903	Clean Air Car Svc & Parking (NYC)	Livery/QN-Med Appt out CMMA	A0100	TN	01/26/2018	01/26/2018	No	1	1		self	(917) 272-8628	7.9	01/26/2018	1630	3327 91st St	 home	Jackson Heights	NY	11372	01/26/2018	1730	67 Irving Pl	  main entrance	New York	NY	10003	7.9			No	138566366
2504293	2626	574929460	Service	Almira		Jarovic	KW21038Z	F	(917) 272-8628	08/28/1978	Queens Hospital	000	1801803903	Clean Air Car Svc & Parking (NYC)	Tolls-Universal	A0170	CG	01/26/2018	01/26/2018	No	1	1																					Tolls-Universal	138566366
2504293	2627	574929460	Service	Almira		Jarovic	KW21038Z	F	(917) 272-8628	08/28/1978	Queens Hospital	000	1801803903	Clean Air Car Svc & Parking (NYC)	Livery-Manhattan Surcharge	A0100	SC	01/26/2018	01/26/2018	No	1	1																					Livery-Manhattan Surcharge	138566366
2504293	2628	574964020	Leg	Blanca	S	Burgos	RM33543Y	F	(929) 231-0225	12/14/1955	BLANCO-FRANCO, OSCAR		1881709228	Clean Air Car Svc & Parking (NYC)	Livery/QN-Med Appt in CMMA	A0100		01/30/2018	01/30/2018	No	2	1		self	(929) 231-0225	3.6	01/30/2018	1515	6617 Main St	 home	Flushing	NY	11367	01/30/2018	1600	4161 Kissena Blvd	  suite 6	Flushing	NY	11355	1.8			No	138574842
2504293	2629	574964020	Leg	Blanca	S	Burgos	RM33543Y	F	(929) 231-0225	12/14/1955	BLANCO-FRANCO, OSCAR		1881709228	Clean Air Car Svc & Parking (NYC)	Livery/QN-Med Appt in CMMA	A0100		01/30/2018	01/30/2018	No	2	1		self	(929) 231-0225	3.6	01/30/2018	1715	4161 Kissena Blvd	 suite 6	Flushing	NY	11355	01/30/2018	Call	6617 Main St	  home	Flushing	NY	11367	1.8			No	138574843
2504293	2630	575058850	Leg	Rhonda		Paden	YY64638X	F	(609) 676-7345	06/15/1961	Brooklyn Hospital Center	000	1326046467	Clean Air Car Svc & Parking (NYC)	Livery/BK-Med Appt in CMMA	A0100		01/29/2018	01/29/2018	No	2	1		self	(609) 676-7345	5.6	01/29/2018	1330	1307 Loring Ave	Apt 6E 	Brooklyn	NY	11208	01/29/2018	1430	1380 Linden Blvd	  .	Brooklyn	NY	11212	2.8			No	138600327
2504293	2631	575058850	Leg	Rhonda		Paden	YY64638X	F	(609) 676-7345	06/15/1961	Brooklyn Hospital Center	000	1326046467	Clean Air Car Svc & Parking (NYC)	Livery/BK-Med Appt in CMMA	A0100		01/29/2018	01/29/2018	No	2	1		self	(609) 676-7345	5.6	01/29/2018	Call	1380 Linden Blvd	 .	Brooklyn	NY	11212	01/29/2018	Call	1307 Loring Ave	Apt 6E 	Brooklyn	NY	11208	2.8			No	138600328
2504293	2632	575106180	Leg	Wendy		Stevenson	XT15404E	F	3475308273	07/08/1968	WEINGARTEN, ALEXANDER		1558353078	Clean Air Car Svc & Parking (NYC)	Livery/QN-Med Appt out CMMA	A0100	TN	01/31/2018	01/31/2018	No	2	1		self	3475308273	7.6	01/31/2018	1100	18315 145th Rd	 	Springfield Gardens	NY	11413	01/31/2018	1200	545 Elmont Rd	  	Elmont	NY	11003	3.8	.		No	138609264
2504293	2633	575106180	Leg	Wendy		Stevenson	XT15404E	F	3475308273	07/08/1968	WEINGARTEN, ALEXANDER		1558353078	Clean Air Car Svc & Parking (NYC)	Livery/QN-Med Appt out CMMA	A0100	TN	01/31/2018	01/31/2018	No	2	1		self	3475308273	7.6	01/31/2018	CALL	545 Elmont Rd	 	Elmont	NY	11003	01/31/2018	CALL	18315 145th Rd	  	Springfield Gardens	NY	11413	3.8			No	138609265
2504293	2634	575106180	Service	Wendy		Stevenson	XT15404E	F	3475308273	07/08/1968	WEINGARTEN, ALEXANDER		1558353078	Clean Air Car Svc & Parking (NYC)	Tolls-Universal	A0170	CG	01/31/2018	01/31/2018	No	2	1																					Tolls-Universal	138609264
2504293	2635	575106180	Service	Wendy		Stevenson	XT15404E	F	3475308273	07/08/1968	WEINGARTEN, ALEXANDER		1558353078	Clean Air Car Svc & Parking (NYC)	Mileage-Livery out of NYC	S0215	TN	01/31/2018	01/31/2018	No	2	1																					Mileage-Livery out of NYC	138609264
2504293	2636	575106180	Service	Wendy		Stevenson	XT15404E	F	3475308273	07/08/1968	WEINGARTEN, ALEXANDER		1558353078	Clean Air Car Svc & Parking (NYC)	Mileage-Livery out of NYC	S0215	TN	01/31/2018	01/31/2018	No	2	1																					Mileage-Livery out of NYC	138609265
2504293	2637	575134790	Leg	Cicely	I	Mclean	PF74602D	F	(202) 701-9441	09/05/1945	NY Presbyterian Hospital		1952332801	Clean Air Car Svc & Parking (NYC)	Livery/BK-Med Appt out CMMA	A0100	TN	01/30/2018	01/30/2018	No	2	1		self	(202) 701-9441	38.8	01/30/2018	1315	558 shepard ave	home 	Brooklyn	NY	11208	01/30/2018	1415	901 Stewart Ave	  main	Garden City	NY	11530	19.4			No	138615334
2504293	2638	575134790	Leg	Cicely	I	Mclean	PF74602D	F	(202) 701-9441	09/05/1945	NY Presbyterian Hospital		1952332801	Clean Air Car Svc & Parking (NYC)	Livery/BK-Med Appt out CMMA	A0100	TN	01/30/2018	01/30/2018	No	2	1		self	(202) 701-9441	38.8	01/30/2018	Call	901 Stewart Ave	 main	Garden City	NY	11530	01/30/2018	Call	558 shepard ave	home 	Brooklyn	NY	11208	19.4			No	138615335
2504293	2639	575134790	Service	Cicely	I	Mclean	PF74602D	F	(202) 701-9441	09/05/1945	NY Presbyterian Hospital		1952332801	Clean Air Car Svc & Parking (NYC)	Tolls-Universal	A0170	CG	01/30/2018	01/30/2018	No	2	1																					Tolls-Universal	138615334
2504293	2640	575134790	Service	Cicely	I	Mclean	PF74602D	F	(202) 701-9441	09/05/1945	NY Presbyterian Hospital		1952332801	Clean Air Car Svc & Parking (NYC)	Mileage-Livery out of NYC	S0215	TN	01/30/2018	01/30/2018	No	2	1																					Mileage-Livery out of NYC	138615334
2504293	2641	575134790	Service	Cicely	I	Mclean	PF74602D	F	(202) 701-9441	09/05/1945	NY Presbyterian Hospital		1952332801	Clean Air Car Svc & Parking (NYC)	Mileage-Livery out of NYC	S0215	TN	01/30/2018	01/30/2018	No	2	1																					Mileage-Livery out of NYC	138615335
2504293	2642	575136990	Leg	Cicely	I	Mclean	PF74602D	F	(202) 701-9441	09/05/1945	NY Presbyterian Hospital		1952332801	Clean Air Car Svc & Parking (NYC)	Livery/BK-Med Appt out CMMA	A0100	TN	01/31/2018	01/31/2018	No	2	1		self	(202) 701-9441	38.8	01/31/2018	1100	558 shepard ave	home 	Brooklyn	NY	11208	01/31/2018	1200	901 Stewart Ave	  main	Garden City	NY	11530	19.4			No	138615985
2504293	2643	575136990	Leg	Cicely	I	Mclean	PF74602D	F	(202) 701-9441	09/05/1945	NY Presbyterian Hospital		1952332801	Clean Air Car Svc & Parking (NYC)	Livery/BK-Med Appt out CMMA	A0100	TN	01/31/2018	01/31/2018	No	2	1		self	(202) 701-9441	38.8	01/31/2018	Call	901 Stewart Ave	 main	Garden City	NY	11530	01/31/2018	Call	558 shepard ave	home 	Brooklyn	NY	11208	19.4			No	138615986
2504293	2644	575136990	Service	Cicely	I	Mclean	PF74602D	F	(202) 701-9441	09/05/1945	NY Presbyterian Hospital		1952332801	Clean Air Car Svc & Parking (NYC)	Tolls-Universal	A0170	CG	01/31/2018	01/31/2018	No	2	1																					Tolls-Universal	138615985
2504293	2645	575136990	Service	Cicely	I	Mclean	PF74602D	F	(202) 701-9441	09/05/1945	NY Presbyterian Hospital		1952332801	Clean Air Car Svc & Parking (NYC)	Mileage-Livery out of NYC	S0215	TN	01/31/2018	01/31/2018	No	2	1																					Mileage-Livery out of NYC	138615985
2504293	2646	575136990	Service	Cicely	I	Mclean	PF74602D	F	(202) 701-9441	09/05/1945	NY Presbyterian Hospital		1952332801	Clean Air Car Svc & Parking (NYC)	Mileage-Livery out of NYC	S0215	TN	01/31/2018	01/31/2018	No	2	1																					Mileage-Livery out of NYC	138615986
2504293	2647	575225350	Leg	Reshma		Maharaj	KD54352J	F	(347) 500-4614	11/06/1980	Mcdonald Annmarie		1003976341	Clean Air Car Svc & Parking (NYC)	Livery/QN-Med Appt out CMMA	A0100	TN	01/27/2018	01/27/2018	No	2	1		SLF	(347) 500-4614	35.2	01/27/2018	0800	10459 121st St	 MAIN	South Richmond Hill	NY	11419	01/27/2018	0900	622 W 168th St	  MAIN	New York	NY	10032	17.6			No	138635052
2504293	2648	575225350	Leg	Reshma		Maharaj	KD54352J	F	(347) 500-4614	11/06/1980	Mcdonald Annmarie		1003976341	Clean Air Car Svc & Parking (NYC)	Livery/QN-Med Appt out CMMA	A0100	TN	01/27/2018	01/27/2018	No	2	1		SLF	(347) 500-4614	35.2	01/27/2018	Call	622 W 168th St	 MAIN	New York	NY	10032	01/27/2018	Call	10459 121st St	  MAIN	South Richmond Hill	NY	11419	17.6			No	138635053
2504293	2649	575225350	Service	Reshma		Maharaj	KD54352J	F	(347) 500-4614	11/06/1980	Mcdonald Annmarie		1003976341	Clean Air Car Svc & Parking (NYC)	Tolls-Universal	A0170	CG	01/27/2018	01/27/2018	No	2	1																					Tolls-Universal	138635052
2504293	2650	575225350	Service	Reshma		Maharaj	KD54352J	F	(347) 500-4614	11/06/1980	Mcdonald Annmarie		1003976341	Clean Air Car Svc & Parking (NYC)	Mileage-Livery in NYC	S0215		01/27/2018	01/27/2018	No	2	1																					Mileage-Livery in NYC	138635052
2504293	2651	575225350	Service	Reshma		Maharaj	KD54352J	F	(347) 500-4614	11/06/1980	Mcdonald Annmarie		1003976341	Clean Air Car Svc & Parking (NYC)	Mileage-Livery in NYC	S0215		01/27/2018	01/27/2018	No	2	1																					Mileage-Livery in NYC	138635053
2504293	2652	575365200	Leg	Reshma		Maharaj	KD54352J	F	(347) 500-4614	11/06/1980	Mcdonald Annmarie		1003976341	Clean Air Car Svc & Parking (NYC)	Livery/QN-Med Appt out CMMA	A0100	TN	01/28/2018	01/28/2018	No	2	1		self	(347) 500-4614	36.2	01/28/2018	0800	10459 121st St	 home	South Richmond Hill	NY	11419	01/28/2018	0900	177 Fort Washington Ave	  main	New York	NY	10032	18.1			No	138665551
2504293	2653	575365200	Leg	Reshma		Maharaj	KD54352J	F	(347) 500-4614	11/06/1980	Mcdonald Annmarie		1003976341	Clean Air Car Svc & Parking (NYC)	Livery/QN-Med Appt out CMMA	A0100	TN	01/28/2018	01/28/2018	No	2	1		self	(347) 500-4614	36.2	01/28/2018	Call	177 Fort Washington Ave	 main	New York	NY	10032	01/28/2018	Call	10459 121st St	  home	South Richmond Hill	NY	11419	18.1			No	141273116
2504293	2654	575365200	Service	Reshma		Maharaj	KD54352J	F	(347) 500-4614	11/06/1980	Mcdonald Annmarie		1003976341	Clean Air Car Svc & Parking (NYC)	Mileage-Livery in NYC	S0215		01/28/2018	01/28/2018	No	2	1																					Mileage-Livery in NYC	138665551
2504293	2655	575365200	Service	Reshma		Maharaj	KD54352J	F	(347) 500-4614	11/06/1980	Mcdonald Annmarie		1003976341	Clean Air Car Svc & Parking (NYC)	Tolls-Universal	A0170	CG	01/28/2018	01/28/2018	No	2	1																					Tolls-Universal	138665551
2504293	2656	575365200	Service	Reshma		Maharaj	KD54352J	F	(347) 500-4614	11/06/1980	Mcdonald Annmarie		1003976341	Clean Air Car Svc & Parking (NYC)	Mileage-Livery in NYC	S0215		01/28/2018	01/28/2018	No	2	1																					Mileage-Livery in NYC	141273116
2504293	2657	575428740	Leg	Iris		Babayoff	UX68405R	F	(718) 570-6536	03/26/1971	ALLEVA MICHAEL MD	000	1730147182	Clean Air Car Svc & Parking (NYC)	Livery/QN-Med Appt in CMMA	A0100		01/30/2018	01/30/2018	No	2	1		self	(718) 570-6536	3.8	01/30/2018	0815	7135 Vleigh Pl	 	Flushing	NY	11367	01/30/2018	0845	20 Continental Ave	  	Forest Hills	NY	11375	1.9			No	138679108
2504293	2658	575428740	Leg	Iris		Babayoff	UX68405R	F	(718) 570-6536	03/26/1971	ALLEVA MICHAEL MD	000	1730147182	Clean Air Car Svc & Parking (NYC)	Livery/QN-Med Appt in CMMA	A0100		01/30/2018	01/30/2018	No	2	1		self	(718) 570-6536	3.8	01/30/2018	0915	20 Continental Ave	 	Forest Hills	NY	11375	01/30/2018	1015	7135 Vleigh Pl	  	Flushing	NY	11367	1.9			No	138679109
2504293	2659	575450710	Leg	Yanique		Ford	SG65867E	F	6313364112	06/06/1985	NY Presbyterian Hospital		1952332801	Clean Air Car Svc & Parking (NYC)	Livery/MN-Med Appt out CMMA	A0100	TN	01/29/2018	01/29/2018	No	2	1		self	6313364112	17.6	01/29/2018	1500	25 Pine St	 	New York	NY	10005	01/29/2018	1600	2510 30th Rd	  	Long Island City	NY	11102	8.8	1 Additional rider(s). 1 Additional rider(s). 1 Additional rider(s). 1 Additional rider(s). 1 Additional rider(s). 1 Additional rider(s). 1 Additional		No	138684453
2504293	2660	575450710	Leg	Yanique		Ford	SG65867E	F	6313364112	06/06/1985	NY Presbyterian Hospital		1952332801	Clean Air Car Svc & Parking (NYC)	Livery/MN-Med Appt out CMMA	A0100	TN	01/29/2018	01/29/2018	No	2	1		self	6313364112	17.6	01/29/2018	Call	2510 30th Rd	 	Long Island City	NY	11102	01/29/2018	Call	25 Pine St	  	New York	NY	10005	8.8	1 Additional rider(s). 1 Additional rider(s). 1 Additional rider(s). 1 Additional rider(s). 1 Additional rider(s). 1 Additional rider(s). 1 Additional		No	138684454
2504293	2661	575450710	Service	Yanique		Ford	SG65867E	F	6313364112	06/06/1985	NY Presbyterian Hospital		1952332801	Clean Air Car Svc & Parking (NYC)	Mileage-Livery in NYC	S0215		01/29/2018	01/29/2018	No	2	1																					Mileage-Livery in NYC	138684453
2504293	2662	575450710	Service	Yanique		Ford	SG65867E	F	6313364112	06/06/1985	NY Presbyterian Hospital		1952332801	Clean Air Car Svc & Parking (NYC)	Mileage-Livery in NYC	S0215		01/29/2018	01/29/2018	No	2	1																					Mileage-Livery in NYC	138684454
2504293	2663	575450710	Service	Yanique		Ford	SG65867E	F	6313364112	06/06/1985	NY Presbyterian Hospital		1952332801	Clean Air Car Svc & Parking (NYC)	Tolls-Universal	A0170	CG	01/29/2018	01/29/2018	No	2	1																					Tolls-Universal	138684453
2504293	2664	575450710	Service	Yanique		Ford	SG65867E	F	6313364112	06/06/1985	NY Presbyterian Hospital		1952332801	Clean Air Car Svc & Parking (NYC)	Livery-Manhattan Surcharge	A0100	SC	01/29/2018	01/29/2018	No	2	1																					Livery-Manhattan Surcharge	138684453
2504293	2665	575450710	Service	Yanique		Ford	SG65867E	F	6313364112	06/06/1985	NY Presbyterian Hospital		1952332801	Clean Air Car Svc & Parking (NYC)	Livery-Manhattan Surcharge	A0100	SC	01/29/2018	01/29/2018	No	2	1																					Livery-Manhattan Surcharge	138684454
2504293	2666	575712160	Leg	Victoria	A	Proanomoya	NP20722G	F	(917) 995-7315	05/03/2012	Brown Maritza		1538108006	Clean Air Car Svc & Parking (NYC)	Livery/BK-Med Appt in CMMA	A0100		01/29/2018	01/29/2018	No	2	1		Mother - Rita	(917) 995-7315	5.0	01/29/2018	1100	313 99th St	1F 	Brooklyn	NY	11209	01/29/2018	1200	6323 7th Ave	  	Brooklyn	NY	11220	2.5	Additional Rider, One way only		No	138746636
2504293	2667	575712160	Leg	Victoria	A	Proanomoya	NP20722G	F	(917) 995-7315	05/03/2012	Brown Maritza		1538108006	Clean Air Car Svc & Parking (NYC)	Livery/BK-Med Appt in CMMA	A0100		01/29/2018	01/29/2018	No	2	1		Mother - Rita	(917) 995-7315	5.0	01/29/2018	Call	6323 7th Ave	 	Brooklyn	NY	11220	01/29/2018	Call	313 99th St	1F 	Brooklyn	NY	11209	2.5			No	138799215
2504293	2668	575791530	Leg	Lochan		Seeparsad	KD52413A	M	(347) 500-4614	05/11/1964	Queens Hospital	000	1801803903	Clean Air Car Svc & Parking (NYC)	Livery/BK-Med Appt out CMMA	A0100	TN	01/30/2018	01/30/2018	No	3	1		Lochan Seeparsad	(347) 500-4614	35.7	01/30/2018	0900	622 W 168th St	 	New York	NY	10032	01/30/2018	1000	8906 135th St	  -	Jamaica	NY	11418	16.1	S/O MON, WEDS, & FRI, Additional Rider		No	138764480
2504293	2669	575791530	Leg	Lochan		Seeparsad	KD52413A	M	(347) 500-4614	05/11/1964	Queens Hospital	000	1801803903	Clean Air Car Svc & Parking (NYC)	Livery/BK-Med Appt out CMMA	A0100	TN	01/30/2018	01/30/2018	No	3	1		Lochan Seeparsad	(347) 500-4614	35.7	01/30/2018	Call	8906 135th St	 -	Jamaica	NY	11418	01/30/2018	Call	10459 121st St	  -	South Richmond Hill	NY	11419	2.0	S/O MON, WEDS, & FRI, Additional Rider		No	138764481
2504293	2670	575791530	Leg	Lochan		Seeparsad	KD52413A	M	(347) 500-4614	05/11/1964	Queens Hospital	000	1801803903	Clean Air Car Svc & Parking (NYC)	Livery/BK-Med Appt out CMMA	A0100	TN	01/30/2018	01/30/2018	No	3	1		Lochan Seeparsad	(347) 500-4614	35.7	01/30/2018	0630	10459 121st St	 Hm	South Richmond Hill	NY	11419	01/30/2018	0730	622 W 168th St	  	New York	NY	10032	17.6			No	138813424
2504293	2671	575791530	Service	Lochan		Seeparsad	KD52413A	M	(347) 500-4614	05/11/1964	Queens Hospital	000	1801803903	Clean Air Car Svc & Parking (NYC)	Mileage-Livery in NYC	S0215		01/30/2018	01/30/2018	No	3	1																					Mileage-Livery in NYC	138764480
2504293	2672	575791530	Service	Lochan		Seeparsad	KD52413A	M	(347) 500-4614	05/11/1964	Queens Hospital	000	1801803903	Clean Air Car Svc & Parking (NYC)	Tolls-Universal	A0170	CG	01/30/2018	01/30/2018	No	3	1																					Tolls-Universal	138764480
2504293	2673	575791530	Service	Lochan		Seeparsad	KD52413A	M	(347) 500-4614	05/11/1964	Queens Hospital	000	1801803903	Clean Air Car Svc & Parking (NYC)	Livery/BK-Med Appt in CMMA P/S	A0100		01/30/2018	01/30/2018	No	3	1																					Livery/BK-Med Appt in CMMA P/S	138764481
2504293	2674	575791530	Service	Lochan		Seeparsad	KD52413A	M	(347) 500-4614	05/11/1964	Queens Hospital	000	1801803903	Clean Air Car Svc & Parking (NYC)	Mileage-Livery in NYC	S0215		01/30/2018	01/30/2018	No	3	1																					Mileage-Livery in NYC	138813424
2504293	2675	575959590	Leg	Maylene	A	Hawkinslingo	PT03668K	F	(631) 336-4112	09/14/2009	Queens Hospital	000	1801803903	Clean Air Car Svc & Parking (NYC)	Livery/MN-Med Appt out CMMA	A0100	TN	01/30/2018	01/30/2018	No	2	1		Unique/Mother	(631) 336-4112	41.0	01/30/2018	1540	25 Pine St	 	New York	NY	10005	01/30/2018	1640	1983 Marcus Ave	  	New Hyde Park	NY	11042	20.5	1 Additional rider(s). 1 Additional rider(s). 1 Additional rider(s). 1 Additional rider(s). 1 Additional rider(s). Additional Rider		No	138803251
2504293	2676	575959590	Leg	Maylene	A	Hawkinslingo	PT03668K	F	(631) 336-4112	09/14/2009	Queens Hospital	000	1801803903	Clean Air Car Svc & Parking (NYC)	Livery/MN-Med Appt out CMMA	A0100	TN	01/30/2018	01/30/2018	No	2	1		Unique/Mother	(631) 336-4112	41.0	01/30/2018	Call	1983 Marcus Ave	 	New Hyde Park	NY	11042	01/30/2018	Call	25 Pine St	  	New York	NY	10005	20.5	1 Additional rider(s). 1 Additional rider(s). 1 Additional rider(s). 1 Additional rider(s). 1 Additional rider(s). Additional Rider		No	138803252
2504293	2677	575959590	Service	Maylene	A	Hawkinslingo	PT03668K	F	(631) 336-4112	09/14/2009	Queens Hospital	000	1801803903	Clean Air Car Svc & Parking (NYC)	Tolls-Universal	A0170	CG	01/30/2018	01/30/2018	No	2	1																					Tolls-Universal	138803251
2504293	2678	575959590	Service	Maylene	A	Hawkinslingo	PT03668K	F	(631) 336-4112	09/14/2009	Queens Hospital	000	1801803903	Clean Air Car Svc & Parking (NYC)	Livery-Manhattan Surcharge	A0100	SC	01/30/2018	01/30/2018	No	2	1																					Livery-Manhattan Surcharge	138803251
2504293	2679	575959590	Service	Maylene	A	Hawkinslingo	PT03668K	F	(631) 336-4112	09/14/2009	Queens Hospital	000	1801803903	Clean Air Car Svc & Parking (NYC)	Livery-Manhattan Surcharge	A0100	SC	01/30/2018	01/30/2018	No	2	1																					Livery-Manhattan Surcharge	138803252
2504293	2680	575959590	Service	Maylene	A	Hawkinslingo	PT03668K	F	(631) 336-4112	09/14/2009	Queens Hospital	000	1801803903	Clean Air Car Svc & Parking (NYC)	Mileage-Livery out of NYC	S0215	TN	01/30/2018	01/30/2018	No	2	1																					Mileage-Livery out of NYC	138803251
2504293	2681	575959590	Service	Maylene	A	Hawkinslingo	PT03668K	F	(631) 336-4112	09/14/2009	Queens Hospital	000	1801803903	Clean Air Car Svc & Parking (NYC)	Mileage-Livery out of NYC	S0215	TN	01/30/2018	01/30/2018	No	2	1																					Mileage-Livery out of NYC	138803252
2504293	2682	575988430	Leg	Mohammed	M	Sufian	QT41817Y	M	(929) 433-0432	08/29/1989	MASON, BENJAMIN		1356390488	Clean Air Car Svc & Parking (NYC)	Livery/QN-Med Appt out CMMA	A0100	TN	01/31/2018	01/31/2018	No	2	1		Monzare/sister	(929) 433-0432	31.6	01/31/2018	1000	19332 Foothill Ave	 front entrance	Hollis	NY	11423	01/31/2018	1100	1470 Madison Ave	  main entrance	New York	NY	10029	15.8	plus 2		No	138810297
2504293	2683	575988430	Leg	Mohammed	M	Sufian	QT41817Y	M	(929) 433-0432	08/29/1989	MASON, BENJAMIN		1356390488	Clean Air Car Svc & Parking (NYC)	Livery/QN-Med Appt out CMMA	A0100	TN	01/31/2018	01/31/2018	No	2	1		Monzare/sister	(929) 433-0432	31.6	01/31/2018	Call	1470 Madison Ave	 front entrance	New York	NY	10029	01/31/2018	Call	19332 Foothill Ave	  main entrance	Hollis	NY	11423	15.8			No	138810298
2504293	2684	575988430	Service	Mohammed	M	Sufian	QT41817Y	M	(929) 433-0432	08/29/1989	MASON, BENJAMIN		1356390488	Clean Air Car Svc & Parking (NYC)	Mileage-Livery in NYC	S0215		01/31/2018	01/31/2018	No	2	1																					Mileage-Livery in NYC	138810297
2504293	2685	575988430	Service	Mohammed	M	Sufian	QT41817Y	M	(929) 433-0432	08/29/1989	MASON, BENJAMIN		1356390488	Clean Air Car Svc & Parking (NYC)	Mileage-Livery in NYC	S0215		01/31/2018	01/31/2018	No	2	1																					Mileage-Livery in NYC	138810298
2504293	2686	575988430	Service	Mohammed	M	Sufian	QT41817Y	M	(929) 433-0432	08/29/1989	MASON, BENJAMIN		1356390488	Clean Air Car Svc & Parking (NYC)	Tolls-Universal	A0170	CG	01/31/2018	01/31/2018	No	2	1																					Tolls-Universal	138810297
2504293	2687	575988430	Service	Mohammed	M	Sufian	QT41817Y	M	(929) 433-0432	08/29/1989	MASON, BENJAMIN		1356390488	Clean Air Car Svc & Parking (NYC)	Livery-Manhattan Surcharge	A0100	SC	01/31/2018	01/31/2018	No	2	1																					Livery-Manhattan Surcharge	138810297
2504293	2688	575988430	Service	Mohammed	M	Sufian	QT41817Y	M	(929) 433-0432	08/29/1989	MASON, BENJAMIN		1356390488	Clean Air Car Svc & Parking (NYC)	Livery-Manhattan Surcharge	A0100	SC	01/31/2018	01/31/2018	No	2	1																					Livery-Manhattan Surcharge	138810298
2504293	2689	576008740	Leg	Swatiben	A	Vora	NC76974F	F	(516) 455-3952	05/12/1958	Akhtar Sajjad MD	000000000	1912919457	Clean Air Car Svc & Parking (NYC)	Livery/QN-Med Appt in CMMA	A0100		01/31/2018	01/31/2018	Yes	2	1		self	(516) 455-3952	2.8	01/31/2018	1500	3514 65th St	FL 1 	Woodside	NY	11377	01/31/2018	1600	3353 82nd St	  main	Jackson Heights	NY	11372	1.4	s/o wednesdays-fridays only		No	138814093
2504293	2690	576008740	Leg	Swatiben	A	Vora	NC76974F	F	(516) 455-3952	05/12/1958	Akhtar Sajjad MD	000000000	1912919457	Clean Air Car Svc & Parking (NYC)	Livery/QN-Med Appt in CMMA	A0100		01/31/2018	01/31/2018	Yes	2	1		self	(516) 455-3952	2.8	01/31/2018	Call	3353 82nd St	 main	Jackson Heights	NY	11372	01/31/2018	Call	3514 65th St	FL 1 	Woodside	NY	11377	1.4			No	138814094
2504293	2691	576020280	Leg	Henrickson		Francois	XF05691E	M	(718) 931-3573	07/05/1957	Masci Joseph		1891709648	Clean Air Car Svc & Parking (NYC)	Livery/QN-Med Appt in CMMA	A0100		01/30/2018	01/30/2018	No	2	1		self	(718) 931-3573	9.6	01/30/2018	1200	43-44 Kissena Bld             2n	 home	Flushing	NY	11355	01/30/2018	1300	9027 Sutphin Blvd	8639528 	Jamaica	NY	11435	4.8			No	138816738
2504293	2692	576020280	Leg	Henrickson		Francois	XF05691E	M	(718) 931-3573	07/05/1957	Masci Joseph		1891709648	Clean Air Car Svc & Parking (NYC)	Livery/QN-Med Appt in CMMA	A0100		01/30/2018	01/30/2018	No	2	1		self	(718) 931-3573	9.6	01/30/2018	Call	9027 Sutphin Blvd	8639528 	Jamaica	NY	11435	01/30/2018	Call	43-44 Kissena Bld             2n	  home	Flushing	NY	11355	4.8			No	138816740
2504293	2693	576178820	Leg	Fungsin		Chiu	NA77401H	F	(646) 705-5501	07/12/1944	Hon, King-Chen		1447281738	Clean Air Car Svc & Parking (NYC)	Livery/QN-Med Appt in CMMA	A0100		01/31/2018	01/31/2018	No	2	1		self	(646) 705-5501	3.4	01/31/2018	0830	18819 Underhill Ave	 home	Fresh Meadows	NY	11365	01/31/2018	0930	16303 Horace Harding Expy	  main	Fresh Meadows	NY	11365	1.7	+1		No	138853996
2504293	2694	576178820	Leg	Fungsin		Chiu	NA77401H	F	(646) 705-5501	07/12/1944	Hon, King-Chen		1447281738	Clean Air Car Svc & Parking (NYC)	Livery/QN-Med Appt in CMMA	A0100		01/31/2018	01/31/2018	No	2	1		self	(646) 705-5501	3.4	01/31/2018	Call	16303 Horace Harding Expy	 	Fresh Meadows	NY	11365	01/31/2018	Call	18819 Underhill Ave	  -	Fresh Meadows	NY	11365	1.7	+1		No	138853997
2504293	2695	576182930	Leg	Sharon		Caffey	XQ37608H	F	(718) 301-3775	09/04/1964	Bradnock Howard		1225002751	Clean Air Car Svc & Parking (NYC)	Livery/QN-Med Appt out CMMA	A0100	TN	01/31/2018	01/31/2018	No	4	1		elf	(718) 301-3775	56.2	01/31/2018	0730	3441 Linden Pl	Apt 2B 	Flushing	NY	11354	01/31/2018	0830	849 57th St	  main	Brooklyn	NY	11220	18.7			No	138855061
2504293	2696	576182930	Leg	Sharon		Caffey	XQ37608H	F	(718) 301-3775	09/04/1964	Bradnock Howard		1225002751	Clean Air Car Svc & Parking (NYC)	Livery/QN-Med Appt out CMMA	A0100	TN	01/31/2018	01/31/2018	No	4	1		elf	(718) 301-3775	56.2	01/31/2018	Call	849 57th St	 main	Brooklyn	NY	11220	01/31/2018	Call	3441 Linden Pl	Apt 2B 	Flushing	NY	11354	18.7			No	138855062
2504293	2697	576182930	Leg	Sharon		Caffey	XQ37608H	F	(718) 301-3775	09/04/1964	Bradnock Howard		1225002751	Clean Air Car Svc & Parking (NYC)	Livery/QN-Med Appt out CMMA	A0100	TN	01/31/2018	01/31/2018	No	4	1		elf	(718) 301-3775	56.2	01/31/2018	1430	3441 Linden Pl	Apt 2B 	Flushing	NY	11354	01/31/2018	1530	1305 York Ave	  main	New York	NY	10021	9.4			No	138855184
2504293	2698	576182930	Leg	Sharon		Caffey	XQ37608H	F	(718) 301-3775	09/04/1964	Bradnock Howard		1225002751	Clean Air Car Svc & Parking (NYC)	Livery/QN-Med Appt out CMMA	A0100	TN	01/31/2018	01/31/2018	No	4	1		elf	(718) 301-3775	56.2	01/31/2018	Call	1305 York Ave	 main	New York	NY	10021	01/31/2018	Call	3441 Linden Pl	Apt 2B 	Flushing	NY	11354	9.4			No	138855185
2504293	2699	576182930	Service	Sharon		Caffey	XQ37608H	F	(718) 301-3775	09/04/1964	Bradnock Howard		1225002751	Clean Air Car Svc & Parking (NYC)	Tolls-Universal	A0170	CG	01/31/2018	01/31/2018	No	4	1																					Tolls-Universal	138855061
2504293	2700	576182930	Service	Sharon		Caffey	XQ37608H	F	(718) 301-3775	09/04/1964	Bradnock Howard		1225002751	Clean Air Car Svc & Parking (NYC)	Mileage-Livery in NYC	S0215		01/31/2018	01/31/2018	No	4	1																					Mileage-Livery in NYC	138855061
2504293	2701	576182930	Service	Sharon		Caffey	XQ37608H	F	(718) 301-3775	09/04/1964	Bradnock Howard		1225002751	Clean Air Car Svc & Parking (NYC)	Mileage-Livery in NYC	S0215		01/31/2018	01/31/2018	No	4	1																					Mileage-Livery in NYC	138855062
2504293	2702	576182930	Service	Sharon		Caffey	XQ37608H	F	(718) 301-3775	09/04/1964	Bradnock Howard		1225002751	Clean Air Car Svc & Parking (NYC)	Mileage-Livery in NYC	S0215		01/31/2018	01/31/2018	No	4	1																					Mileage-Livery in NYC	138855184
2504293	2703	576182930	Service	Sharon		Caffey	XQ37608H	F	(718) 301-3775	09/04/1964	Bradnock Howard		1225002751	Clean Air Car Svc & Parking (NYC)	Mileage-Livery in NYC	S0215		01/31/2018	01/31/2018	No	4	1																					Mileage-Livery in NYC	138855185
2504293	2704	576182930	Service	Sharon		Caffey	XQ37608H	F	(718) 301-3775	09/04/1964	Bradnock Howard		1225002751	Clean Air Car Svc & Parking (NYC)	Livery-Manhattan Surcharge	A0100	SC	01/31/2018	01/31/2018	No	4	1																					Livery-Manhattan Surcharge	138855184
2504293	2705	576182930	Service	Sharon		Caffey	XQ37608H	F	(718) 301-3775	09/04/1964	Bradnock Howard		1225002751	Clean Air Car Svc & Parking (NYC)	Livery-Manhattan Surcharge	A0100	SC	01/31/2018	01/31/2018	No	4	1																					Livery-Manhattan Surcharge	138855185
2504293	2706	576183780	Leg	Gloria		Yung	UA10312F	F	2123495035	12/20/1998	NY Presbyterian Hospital		1952332801	Clean Air Car Svc & Parking (NYC)	Livery/MN-Med Appt out CMMA	A0100	TN	01/31/2018	01/31/2018	No	4	1		self	2123495035	24.2	01/31/2018	0900	275 South St	 	New York	NY	10002	01/31/2018	1000	301 E 17th st	  	Brooklyn	NY	11230	8.2	added rider		No	138855230
2504293	2707	576183780	Leg	Gloria		Yung	UA10312F	F	2123495035	12/20/1998	NY Presbyterian Hospital		1952332801	Clean Air Car Svc & Parking (NYC)	Livery/MN-Med Appt out CMMA	A0100	TN	01/31/2018	01/31/2018	No	4	1		self	2123495035	24.2	01/31/2018	CALL	301 E 17th st	 	Brooklyn	NY	11230	01/31/2018	CALL	275 South St	  	New York	NY	10002	8.2			No	138855233
2504293	2708	576183780	Leg	Gloria		Yung	UA10312F	F	2123495035	12/20/1998	NY Presbyterian Hospital		1952332801	Clean Air Car Svc & Parking (NYC)	Livery/MN-Med Appt out CMMA	A0100	TN	01/31/2018	01/31/2018	No	4	1		self	2123495035	24.2	01/31/2018	1300	275 South St	Apt 13J 	New York	NY	10002	01/31/2018	1400	301 E 17th St	  	New York	NY	10003	3.9	Additional Rider		No	139070632
2504293	2709	576183780	Leg	Gloria		Yung	UA10312F	F	2123495035	12/20/1998	NY Presbyterian Hospital		1952332801	Clean Air Car Svc & Parking (NYC)	Livery/MN-Med Appt out CMMA	A0100	TN	01/31/2018	01/31/2018	No	4	1		self	2123495035	24.2	01/31/2018	Call	301 E 17th St	 	New York	NY	10003	01/31/2018	Call	275 South St	Apt 13J 	New York	NY	10002	3.9			No	139070633
2504293	2710	576183780	Service	Gloria		Yung	UA10312F	F	2123495035	12/20/1998	NY Presbyterian Hospital		1952332801	Clean Air Car Svc & Parking (NYC)	Tolls-Universal	A0170	CG	01/31/2018	01/31/2018	No	4	1																					Tolls-Universal	138855230
2504293	2711	576183780	Service	Gloria		Yung	UA10312F	F	2123495035	12/20/1998	NY Presbyterian Hospital		1952332801	Clean Air Car Svc & Parking (NYC)	Livery-Manhattan Surcharge	A0100	SC	01/31/2018	01/31/2018	No	4	1																					Livery-Manhattan Surcharge	138855230
2504293	2712	576183780	Service	Gloria		Yung	UA10312F	F	2123495035	12/20/1998	NY Presbyterian Hospital		1952332801	Clean Air Car Svc & Parking (NYC)	Livery-Manhattan Surcharge	A0100	SC	01/31/2018	01/31/2018	No	4	1																					Livery-Manhattan Surcharge	138855233
2504293	2713	576183780	Service	Gloria		Yung	UA10312F	F	2123495035	12/20/1998	NY Presbyterian Hospital		1952332801	Clean Air Car Svc & Parking (NYC)	Mileage-Livery in NYC	S0215		01/31/2018	01/31/2018	No	4	1																					Mileage-Livery in NYC	138855230
2504293	2714	576183780	Service	Gloria		Yung	UA10312F	F	2123495035	12/20/1998	NY Presbyterian Hospital		1952332801	Clean Air Car Svc & Parking (NYC)	Mileage-Livery in NYC	S0215		01/31/2018	01/31/2018	No	4	1																					Mileage-Livery in NYC	138855233
2504293	2715	576183780	Service	Gloria		Yung	UA10312F	F	2123495035	12/20/1998	NY Presbyterian Hospital		1952332801	Clean Air Car Svc & Parking (NYC)	Livery-Manhattan Surcharge	A0100	SC	01/31/2018	01/31/2018	No	4	1																					Livery-Manhattan Surcharge	139070632
2504293	2716	576183780	Service	Gloria		Yung	UA10312F	F	2123495035	12/20/1998	NY Presbyterian Hospital		1952332801	Clean Air Car Svc & Parking (NYC)	Livery-Manhattan Surcharge	A0100	SC	01/31/2018	01/31/2018	No	4	1																					Livery-Manhattan Surcharge	139070633
2504293	2717	576183780	Service	Gloria		Yung	UA10312F	F	2123495035	12/20/1998	NY Presbyterian Hospital		1952332801	Clean Air Car Svc & Parking (NYC)	Livery/MN-Med Appt in CMMA P/S	A0100		01/31/2018	01/31/2018	No	4	1																					Livery/MN-Med Appt in CMMA P/S	139070632
2504293	2718	576183780	Service	Gloria		Yung	UA10312F	F	2123495035	12/20/1998	NY Presbyterian Hospital		1952332801	Clean Air Car Svc & Parking (NYC)	Livery/MN-Med Appt in CMMA P/S	A0100		01/31/2018	01/31/2018	No	4	1																					Livery/MN-Med Appt in CMMA P/S	139070633
2504293	2719	576413430	Leg	Asad		Deas	TZ77303M	M	(347) 286-5829	05/21/1999	Brooklyn Hospital Center	000	1326046467	Clean Air Car Svc & Parking (NYC)	Livery/BK-Med Appt out CMMA	A0100	TN	01/31/2018	01/31/2018	No	2	1		mom/Nicole Deas	(347) 286-5829	26.8	01/31/2018	1000	816 Macon St	# 3K 	Brooklyn	NY	11233	01/31/2018	1100	26901 76th Ave	  suite 225	New Hyde Park	NY	11040	13.4	Additional Rider		No	138907984
2504293	2720	576413430	Leg	Asad		Deas	TZ77303M	M	(347) 286-5829	05/21/1999	Brooklyn Hospital Center	000	1326046467	Clean Air Car Svc & Parking (NYC)	Livery/BK-Med Appt out CMMA	A0100	TN	01/31/2018	01/31/2018	No	2	1		mom/Nicole Deas	(347) 286-5829	26.8	01/31/2018	Call	26901 76th Ave	 suite 225	New Hyde Park	NY	11040	01/31/2018	Call	816 Macon St	# 3K 	Brooklyn	NY	11233	13.4			No	138907985
2504293	2721	576413430	Service	Asad		Deas	TZ77303M	M	(347) 286-5829	05/21/1999	Brooklyn Hospital Center	000	1326046467	Clean Air Car Svc & Parking (NYC)	Mileage-Livery in NYC	S0215		01/31/2018	01/31/2018	No	2	1																					Mileage-Livery in NYC	138907984
2504293	2722	576413430	Service	Asad		Deas	TZ77303M	M	(347) 286-5829	05/21/1999	Brooklyn Hospital Center	000	1326046467	Clean Air Car Svc & Parking (NYC)	Mileage-Livery in NYC	S0215		01/31/2018	01/31/2018	No	2	1																					Mileage-Livery in NYC	138907985
2504293	2723	576413430	Service	Asad		Deas	TZ77303M	M	(347) 286-5829	05/21/1999	Brooklyn Hospital Center	000	1326046467	Clean Air Car Svc & Parking (NYC)	Tolls-Universal	A0170	CG	01/31/2018	01/31/2018	No	2	1																					Tolls-Universal	138907984
2504293	2724	576426110	Leg	Obdulia		Batista	ZG92504N	F	7188486535	12/03/1972	Goldberg Alla		1467698480	Clean Air Car Svc & Parking (NYC)	Livery/BK-Med Appt out CMMA	A0100	TN	01/31/2018	01/31/2018	No	2	1		self	7188486535	15.8	01/31/2018	1030	98-23    Horace Harding Expy  17-o	 	Qns	NY	11368	01/31/2018	1130	5645 Main St	  	Flushing	NY	11355	7.9	1 Additional rider(s). 1 Additional rider(s). 1 Additional rider(s). 1		No	138910461
2504293	2725	576426110	Leg	Obdulia		Batista	ZG92504N	F	7188486535	12/03/1972	Goldberg Alla		1467698480	Clean Air Car Svc & Parking (NYC)	Livery/BK-Med Appt out CMMA	A0100	TN	01/31/2018	01/31/2018	No	2	1		self	7188486535	15.8	01/31/2018	Call	5645 Main St	 	Flushing	NY	11355	01/31/2018	Call	98-23    Horace Harding Expy  17-o	  	Qns	NY	11368	7.9	1 Additional rider(s). 1 Additional rider(s). 1 Additional rider(s). 1		No	138910462
2504293	2726	576426110	Service	Obdulia		Batista	ZG92504N	F	7188486535	12/03/1972	Goldberg Alla		1467698480	Clean Air Car Svc & Parking (NYC)	Mileage-Livery out of NYC	S0215	TN	01/31/2018	01/31/2018	No	2	1																					Mileage-Livery out of NYC	138910461
2504293	2727	576426110	Service	Obdulia		Batista	ZG92504N	F	7188486535	12/03/1972	Goldberg Alla		1467698480	Clean Air Car Svc & Parking (NYC)	Mileage-Livery out of NYC	S0215	TN	01/31/2018	01/31/2018	No	2	1																					Mileage-Livery out of NYC	138910462
2504293	2728	576463940	Leg	Qin		Jiang	UM79948S	F	(917) 605-2881	04/09/1989	Queens Hospital	000	1801803903	Clean Air Car Svc & Parking (NYC)	Livery/QN-Med Appt out CMMA	A0100	TN	01/30/2018	01/30/2018	No	2	1		mom	(917) 605-2881	28.6	01/30/2018	1150	1922 76th St	 home	East Elmhurst	NY	11370	01/30/2018	1250	1 Dakota Dr	  main	New Hyde Park	NY	11042	14.3	Additional Rider request driver b69		No	138919326
2504293	2729	576463940	Leg	Qin		Jiang	UM79948S	F	(917) 605-2881	04/09/1989	Queens Hospital	000	1801803903	Clean Air Car Svc & Parking (NYC)	Livery/QN-Med Appt out CMMA	A0100	TN	01/30/2018	01/30/2018	No	2	1		mom	(917) 605-2881	28.6	01/30/2018	Call	1 Dakota Dr	 main	New Hyde Park	NY	11042	01/30/2018	Call	1922 76th St	  home	East Elmhurst	NY	11370	14.3			No	138919327
2504293	2730	576463940	Service	Qin		Jiang	UM79948S	F	(917) 605-2881	04/09/1989	Queens Hospital	000	1801803903	Clean Air Car Svc & Parking (NYC)	Tolls-Universal	A0170	CG	01/30/2018	01/30/2018	No	2	1																					Tolls-Universal	138919326
2504293	2731	576463940	Service	Qin		Jiang	UM79948S	F	(917) 605-2881	04/09/1989	Queens Hospital	000	1801803903	Clean Air Car Svc & Parking (NYC)	Mileage-Livery out of NYC	S0215	TN	01/30/2018	01/30/2018	No	2	1																					Mileage-Livery out of NYC	138919326
2504293	2732	576463940	Service	Qin		Jiang	UM79948S	F	(917) 605-2881	04/09/1989	Queens Hospital	000	1801803903	Clean Air Car Svc & Parking (NYC)	Mileage-Livery out of NYC	S0215	TN	01/30/2018	01/30/2018	No	2	1																					Mileage-Livery out of NYC	138919327
2504293	2733	576529290	Leg	Patricia		Jones-johnson	ZS98662B	F	(718) 213-5630	01/28/1962	Brooklyn Hospital Center	000	1326046467	Clean Air Car Svc & Parking (NYC)	Livery/BK-Med Appt out CMMA	A0100	TN	01/31/2018	01/31/2018	No	2	1		self	(718) 213-5630	24.8	01/31/2018	0930	795 Putnam Ave	Apt 2R 	Brooklyn	NY	11221	01/31/2018	1030	18005 Hillside Ave	  main	Jamaica	NY	11432	9.7			No	138934845
2504293	2734	576529290	Leg	Patricia		Jones-johnson	ZS98662B	F	(718) 213-5630	01/28/1962	Brooklyn Hospital Center	000	1326046467	Clean Air Car Svc & Parking (NYC)	Livery/BK-Med Appt out CMMA	A0100	TN	01/31/2018	01/31/2018	No	2	1		self	(718) 213-5630	24.8	01/31/2018	Call	18005 Hillside Ave	 main	Jamaica	NY	11432	01/31/2018	Call	1 Centre St	main 	New York	NY	10007	15.1			No	138934846
2504293	2735	576529290	Service	Patricia		Jones-johnson	ZS98662B	F	(718) 213-5630	01/28/1962	Brooklyn Hospital Center	000	1326046467	Clean Air Car Svc & Parking (NYC)	Mileage-Livery in NYC	S0215		01/31/2018	01/31/2018	No	2	1																					Mileage-Livery in NYC	138934845
2504293	2736	576529290	Service	Patricia		Jones-johnson	ZS98662B	F	(718) 213-5630	01/28/1962	Brooklyn Hospital Center	000	1326046467	Clean Air Car Svc & Parking (NYC)	Mileage-Livery in NYC	S0215		01/31/2018	01/31/2018	No	2	1																					Mileage-Livery in NYC	138934846
2504293	2737	576529290	Service	Patricia		Jones-johnson	ZS98662B	F	(718) 213-5630	01/28/1962	Brooklyn Hospital Center	000	1326046467	Clean Air Car Svc & Parking (NYC)	Tolls-Universal	A0170	CG	01/31/2018	01/31/2018	No	2	1																					Tolls-Universal	138934845
2504293	2738	576529290	Service	Patricia		Jones-johnson	ZS98662B	F	(718) 213-5630	01/28/1962	Brooklyn Hospital Center	000	1326046467	Clean Air Car Svc & Parking (NYC)	Livery-Manhattan Surcharge	A0100	SC	01/31/2018	01/31/2018	No	2	1																					Livery-Manhattan Surcharge	138934845
2504293	2739	576529290	Service	Patricia		Jones-johnson	ZS98662B	F	(718) 213-5630	01/28/1962	Brooklyn Hospital Center	000	1326046467	Clean Air Car Svc & Parking (NYC)	Livery-Manhattan Surcharge	A0100	SC	01/31/2018	01/31/2018	No	2	1																					Livery-Manhattan Surcharge	138934846
2504293	2740	576578520	Leg	Alexandros		Katechis	UZ10132J	M	(347) 612-4416	01/10/1936	BALAESCU, MIHAELA		1952414815	Clean Air Car Svc & Parking (NYC)	Livery/QN-Med Appt in CMMA	A0100		01/31/2018	01/31/2018	No	2	1			(347) 612-4416	5.6	01/31/2018	0900	96 15    41st Ave             3	 -	Corona	NY	11368	01/31/2018	1000	4701 Queens Blvd	  -	Sunnyside	NY	11104	2.8			No	138945053
2504293	2741	576578520	Leg	Alexandros		Katechis	UZ10132J	M	(347) 612-4416	01/10/1936	BALAESCU, MIHAELA		1952414815	Clean Air Car Svc & Parking (NYC)	Livery/QN-Med Appt in CMMA	A0100		01/31/2018	01/31/2018	No	2	1			(347) 612-4416	5.6	01/31/2018	Call	4701 Queens Blvd	 -	Sunnyside	NY	11104	01/31/2018	Call	96 15    41st Ave             3	  -	Corona	NY	11368	2.8			No	138945054
2504293	2742	576638880	Leg	Yanique		Ford	SG65867E	F	6313364112	06/06/1985	NY Presbyterian Hospital		1952332801	Clean Air Car Svc & Parking (NYC)	Livery/MN-Med Appt out CMMA	A0100	TN	01/31/2018	01/31/2018	No	2	1		self	6313364112	17.6	01/31/2018	0900	25 Pine St	 	New York	NY	10005	01/31/2018	1000	2510 30th Rd	  	Long Island City	NY	11102	8.8	1 Additional rider(s). 1 Additional rider(s). 1 Additional rider(s). 1 Additional rider(s). 1 Additional rider(s). 1 Additional rider(s). 1 Additional		No	138959426
2504293	2743	576638880	Leg	Yanique		Ford	SG65867E	F	6313364112	06/06/1985	NY Presbyterian Hospital		1952332801	Clean Air Car Svc & Parking (NYC)	Livery/MN-Med Appt out CMMA	A0100	TN	01/31/2018	01/31/2018	No	2	1		self	6313364112	17.6	01/31/2018	Call	2510 30th Rd	 	Long Island City	NY	11102	01/31/2018	Call	25 Pine St	  	New York	NY	10005	8.8	1 Additional rider(s). 1 Additional rider(s). 1 Additional rider(s). 1 Additional rider(s). 1 Additional rider(s). 1 Additional rider(s). 1 Additional		No	138959427
2504293	2744	576638880	Service	Yanique		Ford	SG65867E	F	6313364112	06/06/1985	NY Presbyterian Hospital		1952332801	Clean Air Car Svc & Parking (NYC)	Mileage-Livery in NYC	S0215		01/31/2018	01/31/2018	No	2	1																					Mileage-Livery in NYC	138959426
2504293	2745	576638880	Service	Yanique		Ford	SG65867E	F	6313364112	06/06/1985	NY Presbyterian Hospital		1952332801	Clean Air Car Svc & Parking (NYC)	Mileage-Livery in NYC	S0215		01/31/2018	01/31/2018	No	2	1																					Mileage-Livery in NYC	138959427
2504293	2746	576638880	Service	Yanique		Ford	SG65867E	F	6313364112	06/06/1985	NY Presbyterian Hospital		1952332801	Clean Air Car Svc & Parking (NYC)	Tolls-Universal	A0170	CG	01/31/2018	01/31/2018	No	2	1																					Tolls-Universal	138959426
2504293	2747	576638880	Service	Yanique		Ford	SG65867E	F	6313364112	06/06/1985	NY Presbyterian Hospital		1952332801	Clean Air Car Svc & Parking (NYC)	Livery-Manhattan Surcharge	A0100	SC	01/31/2018	01/31/2018	No	2	1																					Livery-Manhattan Surcharge	138959426
2504293	2748	576638880	Service	Yanique		Ford	SG65867E	F	6313364112	06/06/1985	NY Presbyterian Hospital		1952332801	Clean Air Car Svc & Parking (NYC)	Livery-Manhattan Surcharge	A0100	SC	01/31/2018	01/31/2018	No	2	1																					Livery-Manhattan Surcharge	138959427
2504293	2749	576645740	Leg	Maylene	A	Hawkinslingo	PT03668K	F	(631) 336-4112	09/14/2009	Queens Hospital	000	1801803903	Clean Air Car Svc & Parking (NYC)	Livery/QN-Med Appt out CMMA	A0100	TN	01/31/2018	01/31/2018	No	2	1		Unique/Mother	(631) 336-4112	41.8	01/31/2018	1500	25 Pine St	other 	New York	NY	10005	01/31/2018	1600	430 Lakeville Rd	8816474 	New Hyde Park	NY	11042	20.9	1 Additional rider(s). 1 Additional rider(s). 1 Additional rider(s). 1 Additional rider(s). 1 Additional rider(s). Additional Rider		No	138960521
2504293	2750	576645740	Leg	Maylene	A	Hawkinslingo	PT03668K	F	(631) 336-4112	09/14/2009	Queens Hospital	000	1801803903	Clean Air Car Svc & Parking (NYC)	Livery/QN-Med Appt out CMMA	A0100	TN	01/31/2018	01/31/2018	No	2	1		Unique/Mother	(631) 336-4112	41.8	01/31/2018	Call	430 Lakeville Rd	8816474 	New Hyde Park	NY	11042	01/31/2018	Call	25 Pine St	other 	New York	NY	10005	20.9	1 Additional rider(s). 1 Additional rider(s). 1 Additional rider(s). 1 Additional rider(s). 1 Additional rider(s). Additional Rider		No	138960522
2504293	2751	576645740	Service	Maylene	A	Hawkinslingo	PT03668K	F	(631) 336-4112	09/14/2009	Queens Hospital	000	1801803903	Clean Air Car Svc & Parking (NYC)	Tolls-Universal	A0170	CG	01/31/2018	01/31/2018	No	2	1																					Tolls-Universal	138960521
2504293	2752	576645740	Service	Maylene	A	Hawkinslingo	PT03668K	F	(631) 336-4112	09/14/2009	Queens Hospital	000	1801803903	Clean Air Car Svc & Parking (NYC)	Livery-Manhattan Surcharge	A0100	SC	01/31/2018	01/31/2018	No	2	1																					Livery-Manhattan Surcharge	138960521
2504293	2753	576645740	Service	Maylene	A	Hawkinslingo	PT03668K	F	(631) 336-4112	09/14/2009	Queens Hospital	000	1801803903	Clean Air Car Svc & Parking (NYC)	Livery-Manhattan Surcharge	A0100	SC	01/31/2018	01/31/2018	No	2	1																					Livery-Manhattan Surcharge	138960522
2504293	2754	576645740	Service	Maylene	A	Hawkinslingo	PT03668K	F	(631) 336-4112	09/14/2009	Queens Hospital	000	1801803903	Clean Air Car Svc & Parking (NYC)	Mileage-Livery out of NYC	S0215	TN	01/31/2018	01/31/2018	No	2	1																					Mileage-Livery out of NYC	138960521
2504293	2755	576645740	Service	Maylene	A	Hawkinslingo	PT03668K	F	(631) 336-4112	09/14/2009	Queens Hospital	000	1801803903	Clean Air Car Svc & Parking (NYC)	Mileage-Livery out of NYC	S0215	TN	01/31/2018	01/31/2018	No	2	1																					Mileage-Livery out of NYC	138960522
2504293	2756	576703250	Leg	Madeline		Burgos	WU35924C	F	3472359843	11/08/1956	Queens Hospital	000	1801803903	Clean Air Car Svc & Parking (NYC)	Livery/QN-Med Appt in CMMA	A0100		01/31/2018	01/31/2018	No	2	1		self	3472359843	6.0	01/31/2018	1000	3550 21st St	 	Astoria	NY	11106	01/31/2018	1030	4037 76th St	  	Elmhurst	NY	11373	3.0			No	138975232
2504293	2757	576703250	Leg	Madeline		Burgos	WU35924C	F	3472359843	11/08/1956	Queens Hospital	000	1801803903	Clean Air Car Svc & Parking (NYC)	Livery/QN-Med Appt in CMMA	A0100		01/31/2018	01/31/2018	No	2	1		self	3472359843	6.0	01/31/2018	CALL	4037 76th St	 	Elmhurst	NY	11373	01/31/2018	CALL	3550 21st St	  	Astoria	NY	11106	3.0			No	138975233
2504293	2758	577035040	Leg	Celida	M	Mendez	PM95015K	F	(718) 776-7671	12/09/1949	BAKHSHOUDEH,BOBAK		1053756205	Clean Air Car Svc & Parking (NYC)	Livery/QN-Med Appt out CMMA	A0100	TN	01/31/2018	01/31/2018	No	2	1		self	(718) 776-7671	12.4	01/31/2018	1000	11202 207th St	 hme	Queens Village	NY	11429	01/31/2018	1100	11050 71st Rd	  ste 1b	Forest Hills	NY	11375	6.2			No	139051598
2504293	2759	577035040	Leg	Celida	M	Mendez	PM95015K	F	(718) 776-7671	12/09/1949	BAKHSHOUDEH,BOBAK		1053756205	Clean Air Car Svc & Parking (NYC)	Livery/QN-Med Appt out CMMA	A0100	TN	01/31/2018	01/31/2018	No	2	1		self	(718) 776-7671	12.4	01/31/2018	call	11050 71st Rd	 	Forest Hills	NY	11375	01/31/2018	Call	11202 207th St	  	Queens Village	NY	11429	6.2			No	139052303
